(lp1
(lp2
a(lp3
a(lp4
a(lp5
a(lp6
a(lp7
a(lp8
I2886
aI5260
aI9458
aI15516
aa(lp9
I35
aI45
aI51
aI54
aI64
aI65
aI74
aI88
aI90
aI98
aI100
aI109
aI111
aI112
aI113
aI132
aI133
aI136
aI178
aI182
aI183
aI185
aI188
aI192
aI207
aI218
aI237
aI240
aI251
aI260
aI261
aI291
aI299
aI300
aI303
aI304
aI336
aI339
aI342
aI363
aI371
aI372
aI373
aI384
aI389
aI390
aI393
aI395
aI400
aI427
aI435
aI443
aI467
aI472
aI498
aI518
aI595
aI596
aI598
aI616
aI638
aI656
aI681
aI684
aI685
aI691
aI693
aI695
aI724
aI729
aI732
aI740
aI742
aI743
aI757
aI765
aI774
aI875
aI877
aI886
aI887
aI902
aI908
aI940
aI941
aI969
aI973
aI1000
aI1006
aI1028
aI1029
aI1038
aI1039
aI1059
aI1063
aI1068
aI1086
aI1113
aI1114
aI1117
aI1130
aI1156
aI1166
aI1167
aI1177
aI1178
aI1187
aI1213
aI1214
aI1226
aI1227
aI1229
aI1238
aI1240
aI1241
aI1242
aI1245
aI1246
aI1261
aI1280
aI1312
aI1313
aI1314
aI1316
aI1320
aI1321
aI1323
aI1337
aI1344
aI1345
aI1346
aI1347
aI1353
aI1368
aI1373
aI1411
aI1461
aI1486
aI1488
aI1513
aI1544
aI1566
aI1578
aI1587
aI1592
aI1596
aI1597
aI1600
aI1612
aI1618
aI1631
aI1637
aI1644
aI1645
aI1655
aI1659
aI1672
aI1678
aI1684
aI1742
aI1785
aI1809
aI1830
aI1831
aI1852
aI1870
aI1879
aI1913
aI1914
aI1915
aI1919
aI1927
aI1955
aI1959
aI2003
aI2005
aI2020
aI2032
aI2033
aI2095
aI2096
aI2125
aI2130
aI2133
aI2134
aI2162
aI2186
aI2190
aI2191
aI2223
aI2228
aI2259
aI2322
aI2391
aI2415
aI2455
aI2459
aI2472
aI2534
aI2538
aI2547
aI2549
aI2573
aI2575
aI2601
aI2637
aI2640
aI2648
aI2649
aI2653
aI2657
aI2665
aI2678
aI2679
aI2699
aI2703
aI2725
aI2733
aI2735
aI2740
aI2741
aI2754
aI2755
aI2763
aI2772
aI2777
aI2778
aI2802
aI2806
aI2807
aI2809
aI2810
aI2812
aI2816
aI2850
aI2852
aI2857
aI2863
aI2900
aI2910
aI2919
aI2929
aI2937
aI2938
aI2939
aI2940
aI2942
aI2954
aI2961
aI2988
aI2990
aI2993
aI3010
aI3014
aI3018
aI3023
aI3027
aI3033
aI3034
aI3038
aI3039
aI3065
aI3069
aI3095
aI3104
aI3108
aI3119
aI3129
aI3158
aI3160
aI3173
aI3177
aI3195
aI3223
aI3230
aI3231
aI3232
aI3236
aI3239
aI3244
aI3285
aI3286
aI3288
aI3298
aI3303
aI3326
aI3329
aI3348
aI3358
aI3360
aI3363
aI3365
aI3366
aI3367
aI3368
aI3372
aI3382
aI3391
aI3392
aI3412
aI3438
aI3471
aI3473
aI3474
aI3476
aI3487
aI3490
aI3496
aI3505
aI3515
aI3524
aI3532
aI3550
aI3567
aI3576
aI3588
aI3599
aI3616
aI3619
aI3622
aI3623
aI3624
aI3629
aI3632
aI3644
aI3650
aI3672
aI3673
aI3677
aI3698
aI3715
aI3720
aI3739
aI3743
aI3746
aI3751
aI3772
aI3773
aI3778
aI3801
aI3807
aI3829
aI3838
aI3848
aI3861
aI3880
aI3899
aI3919
aI3938
aI3952
aI3959
aI3976
aI3978
aI3997
aI4000
aI4003
aI4009
aI4047
aI4059
aI4063
aI4067
aI4068
aI4080
aI4083
aI4094
aI4100
aI4101
aI4122
aI4128
aI4147
aI4153
aI4155
aI4165
aI4171
aI4175
aI4190
aI4191
aI4196
aI4222
aI4243
aI4250
aI4253
aI4265
aI4278
aI4281
aI4299
aI4303
aI4310
aI4322
aI4323
aI4362
aI4366
aI4371
aI4374
aI4377
aI4384
aI4392
aI4408
aI4430
aI4431
aI4435
aI4436
aI4441
aI4442
aI4474
aI4478
aI4479
aI4488
aI4506
aI4509
aI4513
aI4515
aI4521
aI4523
aI4531
aI4532
aI4533
aI4573
aI4581
aI4606
aI4608
aI4622
aI4641
aI4643
aI4691
aI4698
aI4754
aI4821
aI4826
aI4843
aI4874
aI4877
aI4878
aI4909
aI4936
aI4989
aI4992
aI4993
aI4995
aI4998
aI5040
aI5064
aI5065
aI5070
aI5091
aI5102
aI5112
aI5155
aI5156
aI5158
aI5184
aI5189
aI5190
aI5215
aI5226
aI5228
aI5244
aI5245
aI5246
aI5258
aI5259
aI5281
aI5282
aI5303
aI5312
aI5343
aI5347
aI5360
aI5362
aI5363
aI5386
aI5423
aI5424
aI5453
aI5468
aI5479
aI5486
aI5487
aI5488
aI5491
aI5493
aI5505
aI5520
aI5524
aI5567
aI5576
aI5577
aI5588
aI5589
aI5591
aI5611
aI5619
aI5626
aI5636
aI5655
aI5679
aI5748
aI5750
aI5766
aI5806
aI5819
aI5894
aI5907
aI5919
aI6006
aI6018
aI6027
aI6030
aI6044
aI6073
aI6081
aI6098
aI6128
aI6130
aI6147
aI6157
aI6161
aI6162
aI6164
aI6175
aI6184
aI6186
aI6200
aI6219
aI6228
aI6255
aI6257
aI6288
aI6303
aI6316
aI6324
aI6328
aI6347
aI6348
aI6349
aI6353
aI6354
aI6356
aI6360
aI6398
aI6406
aI6408
aI6425
aI6428
aI6456
aI6468
aI6474
aI6480
aI6484
aI6485
aI6490
aI6493
aI6508
aI6523
aI6525
aI6551
aI6552
aI6553
aI6574
aI6602
aI6611
aI6616
aI6617
aI6618
aI6649
aI6684
aI6714
aI6716
aI6729
aI6730
aI6734
aI6748
aI6750
aI6765
aI6771
aI6787
aI6827
aI6828
aI6831
aI6846
aI6855
aI6857
aI6886
aI6904
aI6913
aI6916
aI6921
aI6922
aI6923
aI6926
aI6927
aI6941
aI6942
aI6945
aI6979
aI6980
aI6984
aI6985
aI6990
aI6998
aI7009
aI7040
aI7053
aI7056
aI7066
aI7072
aI7073
aI7074
aI7078
aI7106
aI7115
aI7120
aI7135
aI7142
aI7145
aI7148
aI7181
aI7262
aI7303
aI7309
aI7329
aI7349
aI7350
aI7358
aI7359
aI7373
aI7382
aI7392
aI7393
aI7395
aI7396
aI7400
aI7412
aI7413
aI7419
aI7424
aI7444
aI7448
aI7449
aI7451
aI7456
aI7469
aI7497
aI7499
aI7517
aI7520
aI7539
aI7556
aI7570
aI7595
aI7608
aI7628
aI7637
aI7640
aI7651
aI7654
aI7675
aI7676
aI7686
aI7722
aI7735
aI7744
aI7757
aI7784
aI7785
aI7793
aI7794
aI7795
aI7806
aI7811
aI7834
aI7842
aI7844
aI7854
aI7879
aI7881
aI7882
aI7890
aI7901
aI7903
aI7910
aI7912
aI7932
aI7940
aI7941
aI7951
aI7975
aI7982
aI8014
aI8018
aI8021
aI8040
aI8095
aI8100
aI8114
aI8133
aI8135
aI8140
aI8157
aI8195
aI8197
aI8220
aI8222
aI8223
aI8247
aI8253
aI8258
aI8260
aI8268
aI8277
aI8286
aI8288
aI8292
aI8298
aI8299
aI8301
aI8302
aI8304
aI8307
aI8315
aI8318
aI8319
aI8350
aI8368
aI8373
aI8374
aI8386
aI8396
aI8399
aI8400
aI8406
aI8413
aI8416
aI8420
aI8421
aI8424
aI8461
aI8462
aI8466
aI8470
aI8474
aI8484
aI8501
aI8520
aI8521
aI8524
aI8525
aI8528
aI8532
aI8538
aI8547
aI8556
aI8558
aI8559
aI8573
aI8574
aI8575
aI8580
aI8597
aI8610
aI8611
aI8612
aI8617
aI8625
aI8626
aI8632
aI8633
aI8634
aI8652
aI8654
aI8655
aI8661
aI8664
aI8669
aI8673
aI8675
aI8688
aI8696
aI8704
aI8705
aI8706
aI8714
aI8729
aI8731
aI8770
aI8788
aI8796
aI8797
aI8798
aI8799
aI8801
aI8805
aI8807
aI8808
aI8833
aI8851
aI8861
aI8874
aI8911
aI8918
aI8920
aI8923
aI8927
aI8947
aI8978
aI8993
aI8995
aI8996
aI9001
aI9051
aI9090
aI9101
aI9109
aI9142
aI9145
aI9169
aI9170
aI9173
aI9174
aI9201
aI9232
aI9233
aI9251
aI9254
aI9259
aI9291
aI9293
aI9294
aI9318
aI9370
aI9376
aI9394
aI9404
aI9413
aI9416
aI9419
aI9422
aI9423
aI9429
aI9478
aI9481
aI9510
aI9522
aI9528
aI9531
aI9543
aI9557
aI9559
aI9579
aI9599
aI9603
aI9617
aI9625
aI9626
aI9639
aI9642
aI9699
aI9703
aI9704
aI9706
aI9722
aI9728
aI9732
aI9733
aI9739
aI9741
aI9764
aI9765
aI9766
aI9767
aI9770
aI9787
aI9820
aI9825
aI9835
aI9839
aI9850
aI9892
aI9896
aI9962
aI9963
aI9975
aI9979
aI9980
aI9981
aI9987
aI9988
aI9993
aI10020
aI10047
aI10054
aI10069
aI10098
aI10099
aI10101
aI10104
aI10106
aI10111
aI10112
aI10123
aI10124
aI10143
aI10144
aI10153
aI10160
aI10177
aI10182
aI10194
aI10195
aI10225
aI10228
aI10233
aI10240
aI10253
aI10258
aI10268
aI10272
aI10282
aI10283
aI10301
aI10304
aI10305
aI10306
aI10309
aI10316
aI10323
aI10326
aI10342
aI10351
aI10363
aI10386
aI10400
aI10411
aI10426
aI10432
aI10433
aI10434
aI10435
aI10445
aI10446
aI10450
aI10451
aI10454
aI10455
aI10456
aI10461
aI10462
aI10473
aI10478
aI10518
aI10522
aI10534
aI10535
aI10538
aI10547
aI10560
aI10572
aI10575
aI10577
aI10578
aI10700
aI10701
aI10702
aI10703
aI10708
aI10731
aI10734
aI10740
aI10754
aI10771
aI10783
aI10845
aI10868
aI10876
aI10895
aI10898
aI10914
aI10928
aI10929
aI10949
aI10958
aI10959
aI10969
aI10972
aI10973
aI10988
aI10999
aI11008
aI11012
aI11016
aI11049
aI11058
aI11090
aI11098
aI11101
aI11136
aI11137
aI11143
aI11156
aI11166
aI11167
aI11182
aI11187
aI11198
aI11204
aI11228
aI11229
aI11232
aI11235
aI11259
aI11265
aI11267
aI11315
aI11358
aI11374
aI11391
aI11392
aI11438
aI11439
aI11440
aI11444
aI11447
aI11455
aI11471
aI11481
aI11490
aI11502
aI11509
aI11515
aI11519
aI11557
aI11575
aI11592
aI11605
aI11634
aI11643
aI11647
aI11660
aI11668
aI11684
aI11693
aI11770
aI11774
aI11813
aI11814
aI11815
aI11837
aI11839
aI11856
aI11873
aI11874
aI11875
aI11882
aI11904
aI11918
aI11919
aI11945
aI11968
aI11983
aI11991
aI12010
aI12027
aI12037
aI12045
aI12046
aI12047
aI12049
aI12082
aI12086
aI12129
aI12137
aI12146
aI12147
aI12151
aI12185
aI12189
aI12198
aI12200
aI12204
aI12209
aI12220
aI12222
aI12231
aI12243
aI12258
aI12263
aI12271
aI12274
aI12277
aI12279
aI12288
aI12289
aI12293
aI12301
aI12320
aI12321
aI12342
aI12344
aI12346
aI12348
aI12350
aI12352
aI12356
aI12367
aI12385
aI12386
aI12387
aI12388
aI12407
aI12421
aI12422
aI12437
aI12438
aI12446
aI12447
aI12449
aI12472
aI12474
aI12478
aI12495
aI12516
aI12563
aI12584
aI12585
aI12586
aI12606
aI12611
aI12648
aI12674
aI12706
aI12721
aI12733
aI12734
aI12792
aI12802
aI12803
aI12812
aI12832
aI12842
aI12862
aI12876
aI12942
aI12945
aI12948
aI12981
aI12982
aI12984
aI13001
aI13002
aI13011
aI13014
aI13039
aI13042
aI13046
aI13064
aI13071
aI13087
aI13112
aI13166
aI13173
aI13174
aI13175
aI13194
aI13197
aI13211
aI13212
aI13231
aI13242
aI13251
aI13256
aI13257
aI13293
aI13295
aI13301
aI13321
aI13332
aI13333
aI13364
aI13376
aI13410
aI13411
aI13423
aI13436
aI13443
aI13460
aI13497
aI13513
aI13523
aI13544
aI13550
aI13551
aI13563
aI13564
aI13565
aI13650
aI13696
aI13704
aI13722
aI13731
aI13732
aI13744
aI13748
aI13763
aI13776
aI13800
aI13808
aI13814
aI13824
aI13830
aI13833
aI13853
aI13860
aI13876
aI13879
aI13880
aI13893
aI13894
aI13902
aI13907
aI13908
aI13935
aI13942
aI13955
aI13959
aI13978
aI13980
aI14010
aI14028
aI14033
aI14034
aI14047
aI14070
aI14077
aI14098
aI14108
aI14111
aI14122
aI14123
aI14139
aI14142
aI14166
aI14167
aI14183
aI14188
aI14201
aI14205
aI14206
aI14233
aI14234
aI14241
aI14260
aI14264
aI14272
aI14288
aI14344
aI14368
aI14384
aI14398
aI14473
aI14496
aI14499
aI14509
aI14543
aI14547
aI14601
aI14602
aI14613
aI14615
aI14621
aI14622
aI14623
aI14666
aI14668
aI14674
aI14675
aI14678
aI14680
aI14681
aI14698
aI14709
aI14715
aI14716
aI14717
aI14721
aI14726
aI14728
aI14733
aI14734
aI14737
aI14738
aI14739
aI14741
aI14748
aI14761
aI14786
aI14791
aI14796
aI14797
aI14805
aI14812
aI14830
aI14831
aI14835
aI14836
aI14845
aI14858
aI14863
aI14878
aI14890
aI14901
aI14903
aI14908
aI14910
aI14916
aI14917
aI14922
aI14923
aI14940
aI14954
aI14970
aI14974
aI14988
aI15013
aI15018
aI15034
aI15052
aI15069
aI15071
aI15074
aI15109
aI15143
aI15150
aI15161
aI15164
aI15176
aI15188
aI15202
aI15229
aI15238
aI15244
aI15280
aI15282
aI15284
aI15327
aI15346
aI15354
aI15364
aI15365
aI15367
aI15376
aI15384
aI15392
aI15398
aI15405
aI15406
aI15421
aI15431
aI15438
aI15454
aI15465
aI15469
aI15477
aI15484
aI15497
aI15498
aI15530
aI15535
aI15575
aI15591
aI15599
aI15606
aI15632
aI15633
aI15641
aI15648
aI15680
aI15681
aI15684
aI15724
aI15728
aI15868
aI15877
aI15884
aI15891
aI15892
aI15893
aI15898
aI15904
aI15916
aI15917
aI15923
aI15930
aI15940
aI15952
aI15953
aI15954
aI15965
aI15990
aI15998
aI16002
aI16020
aI16037
aI16038
aI16046
aI16055
aI16057
aI16068
aI16126
aI16127
aI16140
aI16148
aI16152
aI16170
aI16175
aI16177
aI16190
aI16194
aI16245
aI16297
aI16302
aI16305
aI16318
aI16319
aI16321
aI16328
aI16329
aI16339
aI16349
aI16353
aI16355
aI16356
aI16378
aI16383
aI16446
aI16939
aI17344
aI18356
aI18506
aI18692
aI18704
aI18751
aI18773
aI19154
aI19381
aI19384
aI19478
aI21492
aI22031
aI22250
aI22295
aI22324
aI22485
aI22756
aI22813
aI22959
aI23264
aI23267
aI23703
aI23978
aI25335
aI25976
aI26066
aI26418
aI26469
aI26669
aI27064
aI27144
aI27501
aI27567
aI27677
aI27817
aI27821
aI28081
aI28342
aI28682
aI28731
aI28802
aI28875
aI28876
aI29016
aI29082
aI29131
aI29161
aI29163
aI29266
aI29275
aI29414
aI29441
aI29631
aI29887
aI29961
aI29982
aI29983
aI29989
aI30285
aI30497
aI30646
aI30652
aI30722
aI30879
aI30901
aI30987
aI31377
aI31382
aI31404
aI31406
aI31529
aI31618
aI31643
aI31766
aI31893
aI32038
aI32056
aI32139
aI32175
aI32400
aI32437
aI32605
aI32606
aI32621
aa.