(lp1
(lp2
a(lp3
a(lp4
a(lp5
a(lp6
a(lp7
a(lp8
I4259
aI12383
aI17165
aI18367
aI18648
aI19286
aI20665
aI21871
aI22036
aI22351
aI24105
aI24137
aI24424
aI25059
aI26116
aI26352
aI26846
aI26889
aI27094
aI27152
aI27875
aI27991
aI28015
aI28165
aI28248
aI28487
aI28714
aI29790
aI30301
aI31206
aI31730
aI31928
aa(lp9
I115
aI123
aI244
aI251
aI373
aI380
aI428
aI437
aI888
aI889
aI897
aI1403
aI1531
aI1532
aI1928
aI2044
aI2046
aI2482
aI2501
aI2766
aI2890
aI3020
aI3074
aI3202
aI3245
aI3268
aI3331
aI3644
aI3857
aI3946
aI3947
aI4008
aI4131
aI4514
aI4605
aI4628
aI4633
aI5000
aI5282
aI5531
aI5684
aI5704
aI5813
aI5816
aI5885
aI5903
aI6113
aI6198
aI6264
aI6330
aI6347
aI6357
aI6523
aI6525
aI6814
aI6946
aI7074
aI7404
aI7613
aI7629
aI7904
aI8234
aI8264
aI8392
aI8488
aI8520
aI8540
aI8747
aI8762
aI8967
aI9218
aI9346
aI9389
aI9563
aI9677
aI10025
aI10062
aI10075
aI10142
aI10143
aI10144
aI10147
aI10166
aI10179
aI10191
aI10210
aI10211
aI10265
aI10323
aI10326
aI10353
aI10512
aI10545
aI10669
aI10690
aI10833
aI11130
aI11140
aI11143
aI11159
aI11212
aI11264
aI11265
aI11284
aI11330
aI11375
aI11392
aI11466
aI11789
aI11939
aI11950
aI11951
aI11955
aI11956
aI11957
aI11965
aI12161
aI12288
aI12289
aI12315
aI12465
aI12469
aI12908
aI12945
aI13010
aI13218
aI13285
aI13576
aI13578
aI13729
aI13730
aI13732
aI13768
aI13769
aI13815
aI13965
aI13966
aI14100
aI14142
aI14509
aI14594
aI14645
aI14735
aI14790
aI14854
aI14883
aI15257
aI15280
aI15386
aI15401
aI15459
aI15525
aI15550
aI15762
aI15890
aI16123
aI16387
aI16389
aI16398
aI16399
aI16400
aI16412
aI16414
aI16459
aI16470
aI16476
aI16515
aI16521
aI16523
aI16531
aI16540
aI16554
aI16575
aI16594
aI16598
aI16604
aI16655
aI16657
aI16658
aI16661
aI16664
aI16682
aI16695
aI16726
aI16731
aI16775
aI16778
aI16783
aI16785
aI16799
aI16826
aI16897
aI16913
aI16917
aI16918
aI16919
aI16944
aI16961
aI16971
aI17024
aI17025
aI17044
aI17046
aI17047
aI17060
aI17061
aI17066
aI17069
aI17074
aI17076
aI17089
aI17099
aI17100
aI17103
aI17166
aI17172
aI17210
aI17230
aI17242
aI17247
aI17252
aI17286
aI17291
aI17297
aI17303
aI17304
aI17306
aI17307
aI17326
aI17332
aI17337
aI17344
aI17354
aI17360
aI17377
aI17380
aI17409
aI17424
aI17425
aI17427
aI17430
aI17436
aI17467
aI17490
aI17499
aI17504
aI17543
aI17552
aI17556
aI17564
aI17577
aI17592
aI17598
aI17607
aI17617
aI17618
aI17675
aI17699
aI17701
aI17703
aI17738
aI17747
aI17748
aI17750
aI17754
aI17755
aI17765
aI17792
aI17811
aI17822
aI17823
aI17832
aI17863
aI17873
aI17875
aI17888
aI17922
aI17942
aI17943
aI17948
aI17950
aI17959
aI17970
aI17975
aI17977
aI17989
aI17994
aI18003
aI18018
aI18060
aI18065
aI18073
aI18085
aI18105
aI18116
aI18117
aI18129
aI18130
aI18137
aI18140
aI18184
aI18186
aI18193
aI18202
aI18250
aI18278
aI18306
aI18327
aI18359
aI18366
aI18380
aI18383
aI18394
aI18395
aI18406
aI18434
aI18436
aI18437
aI18438
aI18441
aI18443
aI18444
aI18445
aI18459
aI18462
aI18463
aI18467
aI18490
aI18491
aI18497
aI18505
aI18509
aI18514
aI18515
aI18520
aI18540
aI18571
aI18576
aI18587
aI18591
aI18606
aI18611
aI18616
aI18617
aI18618
aI18619
aI18625
aI18632
aI18635
aI18637
aI18668
aI18671
aI18705
aI18733
aI18741
aI18743
aI18745
aI18747
aI18752
aI18753
aI18754
aI18760
aI18761
aI18774
aI18782
aI18793
aI18798
aI18848
aI18851
aI18856
aI18880
aI18881
aI18882
aI18883
aI18886
aI18911
aI18917
aI18954
aI18971
aI18980
aI18984
aI18990
aI19007
aI19008
aI19040
aI19054
aI19074
aI19075
aI19076
aI19081
aI19086
aI19091
aI19100
aI19119
aI19120
aI19129
aI19133
aI19139
aI19153
aI19164
aI19213
aI19215
aI19227
aI19228
aI19229
aI19230
aI19231
aI19232
aI19233
aI19241
aI19244
aI19246
aI19247
aI19253
aI19257
aI19264
aI19270
aI19275
aI19277
aI19280
aI19284
aI19290
aI19297
aI19302
aI19331
aI19348
aI19349
aI19365
aI19367
aI19370
aI19375
aI19376
aI19385
aI19391
aI19409
aI19410
aI19412
aI19414
aI19423
aI19426
aI19427
aI19438
aI19439
aI19440
aI19476
aI19479
aI19487
aI19488
aI19492
aI19494
aI19497
aI19516
aI19519
aI19526
aI19537
aI19591
aI19600
aI19607
aI19616
aI19618
aI19654
aI19665
aI19723
aI19728
aI19735
aI19736
aI19738
aI19745
aI19749
aI19750
aI19751
aI19769
aI19775
aI19784
aI19787
aI19790
aI19814
aI19815
aI19850
aI19864
aI19894
aI19896
aI19898
aI19899
aI19901
aI19904
aI19924
aI19926
aI19939
aI19943
aI19948
aI19971
aI19984
aI19986
aI19996
aI19997
aI20002
aI20005
aI20010
aI20021
aI20022
aI20030
aI20031
aI20040
aI20041
aI20042
aI20049
aI20070
aI20090
aI20112
aI20117
aI20118
aI20125
aI20129
aI20144
aI20154
aI20157
aI20172
aI20182
aI20197
aI20199
aI20208
aI20216
aI20218
aI20219
aI20229
aI20240
aI20263
aI20284
aI20291
aI20295
aI20297
aI20298
aI20307
aI20324
aI20327
aI20337
aI20351
aI20354
aI20355
aI20360
aI20367
aI20368
aI20384
aI20385
aI20399
aI20407
aI20408
aI20411
aI20424
aI20435
aI20437
aI20447
aI20451
aI20461
aI20463
aI20475
aI20479
aI20483
aI20484
aI20485
aI20497
aI20506
aI20534
aI20535
aI20536
aI20537
aI20538
aI20563
aI20564
aI20583
aI20589
aI20612
aI20613
aI20624
aI20625
aI20632
aI20640
aI20647
aI20652
aI20653
aI20662
aI20663
aI20664
aI20684
aI20700
aI20701
aI20705
aI20711
aI20717
aI20739
aI20741
aI20743
aI20746
aI20766
aI20780
aI20793
aI20805
aI20806
aI20811
aI20827
aI20830
aI20844
aI20870
aI20877
aI20883
aI20915
aI20926
aI20928
aI20933
aI20938
aI20943
aI20945
aI20946
aI20948
aI20950
aI20961
aI21004
aI21007
aI21009
aI21032
aI21045
aI21048
aI21060
aI21082
aI21098
aI21100
aI21104
aI21141
aI21142
aI21147
aI21170
aI21173
aI21199
aI21200
aI21202
aI21212
aI21252
aI21256
aI21257
aI21261
aI21269
aI21270
aI21277
aI21280
aI21285
aI21288
aI21291
aI21318
aI21328
aI21332
aI21333
aI21334
aI21343
aI21345
aI21353
aI21368
aI21369
aI21370
aI21383
aI21413
aI21417
aI21418
aI21421
aI21431
aI21433
aI21434
aI21435
aI21450
aI21451
aI21453
aI21467
aI21495
aI21497
aI21498
aI21510
aI21511
aI21512
aI21514
aI21515
aI21519
aI21526
aI21528
aI21529
aI21533
aI21535
aI21540
aI21541
aI21548
aI21549
aI21551
aI21552
aI21557
aI21558
aI21570
aI21578
aI21582
aI21591
aI21592
aI21608
aI21611
aI21620
aI21628
aI21638
aI21639
aI21640
aI21641
aI21647
aI21648
aI21654
aI21657
aI21658
aI21667
aI21677
aI21679
aI21680
aI21682
aI21683
aI21691
aI21693
aI21699
aI21707
aI21710
aI21711
aI21713
aI21714
aI21715
aI21716
aI21718
aI21740
aI21757
aI21763
aI21764
aI21765
aI21771
aI21780
aI21786
aI21794
aI21796
aI21801
aI21802
aI21805
aI21806
aI21811
aI21814
aI21836
aI21850
aI21852
aI21866
aI21870
aI21872
aI21878
aI21881
aI21886
aI21902
aI21904
aI21906
aI21908
aI21910
aI21911
aI21920
aI21925
aI21932
aI21940
aI21946
aI21948
aI21950
aI21958
aI21961
aI21964
aI21972
aI21975
aI21976
aI21978
aI21980
aI21981
aI21985
aI21987
aI22001
aI22029
aI22030
aI22031
aI22034
aI22048
aI22057
aI22061
aI22070
aI22072
aI22074
aI22075
aI22136
aI22139
aI22146
aI22149
aI22152
aI22172
aI22177
aI22178
aI22179
aI22180
aI22185
aI22189
aI22229
aI22275
aI22277
aI22278
aI22279
aI22280
aI22290
aI22300
aI22302
aI22306
aI22313
aI22316
aI22327
aI22343
aI22345
aI22360
aI22368
aI22371
aI22414
aI22431
aI22440
aI22441
aI22442
aI22444
aI22465
aI22472
aI22475
aI22532
aI22550
aI22566
aI22567
aI22585
aI22587
aI22590
aI22593
aI22626
aI22633
aI22650
aI22654
aI22655
aI22670
aI22690
aI22692
aI22693
aI22694
aI22696
aI22697
aI22713
aI22718
aI22737
aI22738
aI22761
aI22762
aI22763
aI22764
aI22782
aI22793
aI22797
aI22798
aI22801
aI22807
aI22814
aI22815
aI22822
aI22823
aI22824
aI22825
aI22826
aI22838
aI22839
aI22861
aI22863
aI22868
aI22882
aI22883
aI22890
aI22891
aI22897
aI22900
aI22904
aI22929
aI22957
aI22962
aI22963
aI22970
aI22974
aI22996
aI23005
aI23061
aI23091
aI23096
aI23097
aI23118
aI23119
aI23121
aI23125
aI23127
aI23128
aI23131
aI23145
aI23160
aI23161
aI23168
aI23169
aI23171
aI23175
aI23190
aI23192
aI23194
aI23195
aI23209
aI23218
aI23219
aI23222
aI23223
aI23224
aI23245
aI23290
aI23295
aI23321
aI23322
aI23331
aI23347
aI23350
aI23352
aI23371
aI23388
aI23435
aI23442
aI23443
aI23463
aI23478
aI23481
aI23482
aI23491
aI23500
aI23505
aI23506
aI23507
aI23510
aI23512
aI23517
aI23518
aI23520
aI23525
aI23533
aI23544
aI23554
aI23557
aI23563
aI23567
aI23569
aI23582
aI23597
aI23600
aI23615
aI23621
aI23625
aI23627
aI23633
aI23634
aI23636
aI23645
aI23649
aI23663
aI23664
aI23669
aI23670
aI23678
aI23704
aI23707
aI23736
aI23752
aI23785
aI23797
aI23803
aI23820
aI23832
aI23835
aI23845
aI23847
aI23855
aI23866
aI23871
aI23882
aI23883
aI23890
aI23892
aI23895
aI23896
aI23897
aI23902
aI23904
aI23918
aI23946
aI23956
aI23959
aI23985
aI23987
aI23991
aI23992
aI23993
aI24000
aI24022
aI24023
aI24030
aI24033
aI24045
aI24055
aI24058
aI24060
aI24079
aI24081
aI24095
aI24104
aI24115
aI24143
aI24147
aI24150
aI24158
aI24160
aI24164
aI24173
aI24178
aI24186
aI24187
aI24194
aI24214
aI24217
aI24233
aI24247
aI24269
aI24296
aI24329
aI24344
aI24346
aI24352
aI24362
aI24366
aI24367
aI24384
aI24385
aI24386
aI24396
aI24426
aI24432
aI24441
aI24442
aI24455
aI24458
aI24468
aI24469
aI24477
aI24482
aI24489
aI24499
aI24503
aI24518
aI24528
aI24544
aI24546
aI24558
aI24570
aI24572
aI24574
aI24601
aI24621
aI24631
aI24654
aI24655
aI24656
aI24672
aI24699
aI24708
aI24709
aI24732
aI24749
aI24750
aI24769
aI24771
aI24779
aI24800
aI24801
aI24808
aI24829
aI24833
aI24837
aI24839
aI24851
aI24853
aI24858
aI24859
aI24860
aI24865
aI24867
aI24879
aI24880
aI24881
aI24900
aI24933
aI24951
aI24953
aI24961
aI24970
aI24982
aI24983
aI24995
aI25003
aI25014
aI25043
aI25050
aI25051
aI25055
aI25058
aI25063
aI25065
aI25069
aI25070
aI25073
aI25074
aI25075
aI25094
aI25104
aI25110
aI25118
aI25119
aI25138
aI25139
aI25140
aI25143
aI25149
aI25164
aI25186
aI25187
aI25195
aI25198
aI25200
aI25220
aI25222
aI25232
aI25233
aI25234
aI25238
aI25239
aI25240
aI25264
aI25269
aI25274
aI25286
aI25314
aI25324
aI25327
aI25328
aI25336
aI25337
aI25347
aI25369
aI25376
aI25390
aI25407
aI25409
aI25441
aI25443
aI25454
aI25455
aI25478
aI25498
aI25512
aI25537
aI25538
aI25546
aI25547
aI25592
aI25594
aI25599
aI25623
aI25625
aI25633
aI25638
aI25665
aI25675
aI25676
aI25694
aI25706
aI25707
aI25712
aI25721
aI25751
aI25753
aI25766
aI25767
aI25768
aI25769
aI25776
aI25799
aI25812
aI25820
aI25822
aI25828
aI25834
aI25853
aI25868
aI25869
aI25877
aI25880
aI25928
aI25934
aI25948
aI25949
aI25952
aI25961
aI25965
aI25971
aI25980
aI25999
aI26026
aI26032
aI26036
aI26056
aI26057
aI26082
aI26083
aI26096
aI26105
aI26106
aI26111
aI26112
aI26113
aI26114
aI26115
aI26117
aI26118
aI26124
aI26127
aI26129
aI26131
aI26152
aI26154
aI26163
aI26168
aI26169
aI26170
aI26191
aI26194
aI26206
aI26208
aI26213
aI26215
aI26222
aI26241
aI26242
aI26243
aI26246
aI26271
aI26285
aI26292
aI26295
aI26296
aI26297
aI26299
aI26300
aI26301
aI26307
aI26312
aI26315
aI26316
aI26317
aI26318
aI26319
aI26323
aI26324
aI26329
aI26333
aI26336
aI26344
aI26348
aI26351
aI26364
aI26372
aI26373
aI26375
aI26379
aI26380
aI26381
aI26391
aI26392
aI26394
aI26395
aI26404
aI26415
aI26416
aI26425
aI26426
aI26444
aI26450
aI26451
aI26452
aI26461
aI26467
aI26468
aI26472
aI26496
aI26510
aI26511
aI26520
aI26533
aI26571
aI26606
aI26626
aI26651
aI26660
aI26661
aI26662
aI26663
aI26665
aI26682
aI26718
aI26726
aI26765
aI26766
aI26767
aI26773
aI26788
aI26789
aI26790
aI26791
aI26807
aI26837
aI26849
aI26881
aI26884
aI26888
aI26890
aI26900
aI26907
aI26931
aI26933
aI26939
aI26944
aI26945
aI26960
aI26976
aI26977
aI26981
aI26990
aI26993
aI26994
aI26995
aI26996
aI27016
aI27032
aI27034
aI27037
aI27086
aI27116
aI27121
aI27123
aI27128
aI27130
aI27131
aI27141
aI27144
aI27151
aI27179
aI27183
aI27191
aI27192
aI27203
aI27208
aI27219
aI27229
aI27236
aI27246
aI27247
aI27249
aI27250
aI27254
aI27257
aI27259
aI27269
aI27280
aI27281
aI27283
aI27284
aI27285
aI27297
aI27300
aI27302
aI27303
aI27304
aI27306
aI27320
aI27324
aI27327
aI27354
aI27362
aI27363
aI27375
aI27382
aI27383
aI27387
aI27388
aI27402
aI27417
aI27431
aI27446
aI27449
aI27463
aI27470
aI27478
aI27483
aI27484
aI27498
aI27503
aI27523
aI27529
aI27579
aI27582
aI27593
aI27620
aI27626
aI27630
aI27634
aI27638
aI27656
aI27663
aI27664
aI27672
aI27677
aI27679
aI27700
aI27703
aI27704
aI27708
aI27745
aI27754
aI27756
aI27773
aI27789
aI27791
aI27792
aI27794
aI27795
aI27799
aI27801
aI27817
aI27818
aI27820
aI27821
aI27822
aI27826
aI27828
aI27832
aI27833
aI27867
aI27877
aI27878
aI27881
aI27882
aI27890
aI27911
aI27916
aI27919
aI27923
aI27930
aI27936
aI27939
aI27959
aI27963
aI27969
aI27970
aI27972
aI27980
aI27982
aI27984
aI27985
aI27986
aI27987
aI27988
aI27989
aI27998
aI28010
aI28011
aI28013
aI28031
aI28035
aI28038
aI28039
aI28041
aI28045
aI28046
aI28050
aI28064
aI28082
aI28083
aI28084
aI28090
aI28091
aI28092
aI28105
aI28117
aI28124
aI28133
aI28164
aI28166
aI28168
aI28181
aI28182
aI28194
aI28229
aI28241
aI28242
aI28245
aI28250
aI28254
aI28257
aI28283
aI28337
aI28370
aI28371
aI28375
aI28377
aI28391
aI28410
aI28428
aI28429
aI28444
aI28461
aI28462
aI28499
aI28517
aI28526
aI28532
aI28551
aI28553
aI28555
aI28558
aI28560
aI28582
aI28583
aI28597
aI28620
aI28634
aI28636
aI28645
aI28683
aI28686
aI28701
aI28709
aI28717
aI28739
aI28748
aI28749
aI28757
aI28772
aI28781
aI28793
aI28811
aI28816
aI28829
aI28830
aI28834
aI28842
aI28845
aI28847
aI28850
aI28852
aI28854
aI28874
aI28885
aI28889
aI28890
aI28893
aI28896
aI28910
aI28914
aI28918
aI28929
aI28931
aI28935
aI28952
aI28958
aI28959
aI28965
aI28980
aI28986
aI29014
aI29016
aI29022
aI29032
aI29038
aI29089
aI29092
aI29094
aI29105
aI29106
aI29124
aI29144
aI29156
aI29177
aI29184
aI29185
aI29214
aI29225
aI29231
aI29238
aI29252
aI29255
aI29267
aI29272
aI29283
aI29287
aI29301
aI29326
aI29333
aI29344
aI29351
aI29352
aI29380
aI29419
aI29425
aI29432
aI29437
aI29444
aI29455
aI29456
aI29460
aI29462
aI29477
aI29491
aI29496
aI29503
aI29510
aI29542
aI29552
aI29560
aI29582
aI29585
aI29589
aI29608
aI29618
aI29619
aI29620
aI29626
aI29638
aI29644
aI29648
aI29654
aI29665
aI29677
aI29682
aI29687
aI29696
aI29719
aI29723
aI29731
aI29732
aI29734
aI29735
aI29740
aI29752
aI29760
aI29761
aI29762
aI29782
aI29818
aI29819
aI29820
aI29824
aI29847
aI29851
aI29853
aI29863
aI29865
aI29876
aI29892
aI29909
aI29910
aI29933
aI29938
aI29940
aI29956
aI29979
aI29982
aI29990
aI29991
aI29996
aI30001
aI30004
aI30006
aI30011
aI30021
aI30022
aI30026
aI30027
aI30042
aI30045
aI30047
aI30070
aI30072
aI30077
aI30098
aI30158
aI30163
aI30182
aI30205
aI30207
aI30209
aI30212
aI30213
aI30223
aI30235
aI30245
aI30266
aI30269
aI30278
aI30282
aI30323
aI30324
aI30326
aI30327
aI30335
aI30338
aI30340
aI30344
aI30345
aI30357
aI30377
aI30390
aI30398
aI30436
aI30457
aI30458
aI30461
aI30499
aI30504
aI30508
aI30510
aI30516
aI30537
aI30559
aI30560
aI30567
aI30570
aI30578
aI30583
aI30595
aI30597
aI30601
aI30615
aI30626
aI30639
aI30650
aI30662
aI30667
aI30668
aI30691
aI30693
aI30698
aI30710
aI30719
aI30756
aI30757
aI30766
aI30773
aI30777
aI30785
aI30786
aI30790
aI30807
aI30830
aI30834
aI30836
aI30840
aI30846
aI30851
aI30873
aI30908
aI30909
aI30964
aI30974
aI30982
aI31019
aI31021
aI31024
aI31025
aI31031
aI31036
aI31052
aI31067
aI31077
aI31083
aI31084
aI31085
aI31088
aI31115
aI31121
aI31158
aI31159
aI31166
aI31169
aI31180
aI31199
aI31208
aI31214
aI31217
aI31222
aI31235
aI31259
aI31280
aI31283
aI31285
aI31297
aI31304
aI31308
aI31313
aI31314
aI31318
aI31335
aI31344
aI31349
aI31350
aI31355
aI31356
aI31357
aI31369
aI31377
aI31389
aI31400
aI31422
aI31428
aI31437
aI31451
aI31454
aI31455
aI31462
aI31464
aI31468
aI31472
aI31474
aI31475
aI31478
aI31486
aI31521
aI31538
aI31549
aI31553
aI31557
aI31560
aI31579
aI31602
aI31605
aI31607
aI31624
aI31631
aI31720
aI31721
aI31729
aI31744
aI31790
aI31799
aI31803
aI31815
aI31819
aI31858
aI31861
aI31862
aI31863
aI31871
aI31873
aI31895
aI31902
aI31906
aI31907
aI31912
aI31942
aI31953
aI31958
aI31959
aI31972
aI31974
aI31990
aI31994
aI31995
aI32007
aI32010
aI32013
aI32015
aI32024
aI32041
aI32042
aI32047
aI32048
aI32049
aI32055
aI32062
aI32065
aI32066
aI32089
aI32090
aI32095
aI32105
aI32107
aI32109
aI32110
aI32115
aI32134
aI32144
aI32175
aI32176
aI32186
aI32187
aI32188
aI32192
aI32193
aI32195
aI32199
aI32202
aI32218
aI32234
aI32239
aI32243
aI32245
aI32246
aI32250
aI32251
aI32252
aI32255
aI32259
aI32263
aI32265
aI32306
aI32309
aI32314
aI32321
aI32324
aI32326
aI32328
aI32329
aI32330
aI32337
aI32346
aI32375
aI32381
aI32412
aI32417
aI32420
aI32439
aI32454
aI32459
aI32462
aI32466
aI32478
aI32486
aI32487
aI32493
aI32495
aI32518
aI32540
aI32542
aI32565
aI32581
aI32592
aI32593
aI32594
aI32595
aI32638
aI32677
aI32678
aI32684
aI32694
aI32698
aI32700
aI32737
aI32738
aI32739
aI32748
aI32761
aa.