(lp1
(lp2
a(lp3
a(lp4
a(lp5
a(lp6
a(lp7
a(lp8
I10197
aa(lp9
I6
aI27
aI28
aI33
aI71
aI133
aI135
aI139
aI141
aI142
aI156
aI200
aI223
aI256
aI270
aI291
aI530
aI532
aI543
aI573
aI686
aI726
aI814
aI872
aI895
aI903
aI930
aI1128
aI1194
aI1283
aI1312
aI1322
aI1372
aI1467
aI1505
aI1526
aI1539
aI1544
aI1548
aI1579
aI1583
aI1591
aI1592
aI1593
aI1657
aI1675
aI1703
aI1718
aI1741
aI1785
aI1823
aI1846
aI2129
aI2180
aI2181
aI2184
aI2226
aI2255
aI2258
aI2285
aI2288
aI2315
aI2354
aI2446
aI2487
aI2519
aI2543
aI2572
aI2618
aI2644
aI2645
aI2676
aI2782
aI3283
aI3413
aI3465
aI3482
aI3491
aI3546
aI3547
aI3720
aI3761
aI3823
aI3857
aI3906
aI3933
aI3992
aI3993
aI4001
aI4009
aI4010
aI4081
aI4117
aI4118
aI4128
aI4213
aI4246
aI4256
aI4341
aI4353
aI4367
aI4374
aI4391
aI4395
aI4406
aI4407
aI4447
aI4469
aI4484
aI4571
aI4653
aI4680
aI4745
aI4768
aI4769
aI4835
aI4961
aI4964
aI4992
aI5032
aI5052
aI5056
aI5057
aI5093
aI5097
aI5158
aI5200
aI5219
aI5222
aI5327
aI5365
aI5586
aI5598
aI5600
aI5608
aI5656
aI5663
aI5704
aI5705
aI5714
aI5727
aI5787
aI5805
aI5868
aI5877
aI6001
aI6003
aI6004
aI6027
aI6068
aI6084
aI6096
aI6156
aI6196
aI6225
aI6226
aI6376
aI6408
aI6441
aI6591
aI6691
aI6714
aI6717
aI6756
aI6816
aI6843
aI6847
aI6910
aI6940
aI6968
aI6971
aI7073
aI7074
aI7189
aI7203
aI7209
aI7213
aI7231
aI7246
aI7302
aI7371
aI7374
aI7470
aI7596
aI7605
aI7630
aI7635
aI7643
aI7713
aI7742
aI7826
aI7841
aI7914
aI7915
aI7918
aI7935
aI8042
aI8044
aI8046
aI8118
aI8154
aI8191
aI8246
aI8266
aI8377
aI8394
aI8400
aI8402
aI8403
aI8413
aI8503
aI8504
aI8522
aI8608
aI8618
aI8645
aI8648
aI8649
aI8651
aI8666
aI8732
aI8748
aI8808
aI8906
aI8916
aI8920
aI8932
aI8953
aI8982
aI9016
aI9100
aI9131
aI9147
aI9159
aI9177
aI9224
aI9261
aI9311
aI9343
aI9389
aI9415
aI9461
aI9513
aI9566
aI9571
aI9628
aI9632
aI9769
aI9771
aI9837
aI9919
aI9922
aI9957
aI9960
aI9999
aI10039
aI10046
aI10050
aI10077
aI10089
aI10090
aI10094
aI10112
aI10162
aI10181
aI10205
aI10216
aI10222
aI10238
aI10258
aI10264
aI10266
aI10323
aI10324
aI10325
aI10333
aI10352
aI10359
aI10386
aI10437
aI10513
aI10536
aI10538
aI10563
aI10570
aI10577
aI10578
aI10727
aI10755
aI10880
aI10895
aI10900
aI10916
aI10918
aI10942
aI10943
aI11028
aI11147
aI11232
aI11264
aI11356
aI11389
aI11392
aI11393
aI11443
aI11519
aI11530
aI11539
aI11564
aI11570
aI11572
aI11586
aI11614
aI11643
aI11698
aI11732
aI11829
aI11919
aI11948
aI11959
aI11960
aI12013
aI12028
aI12087
aI12152
aI12172
aI12189
aI12234
aI12289
aI12301
aI12312
aI12325
aI12326
aI12333
aI12350
aI12358
aI12396
aI12424
aI12429
aI12458
aI12460
aI12515
aI12529
aI12543
aI12565
aI12569
aI12602
aI12610
aI12696
aI12705
aI12792
aI12808
aI12830
aI12831
aI12906
aI12922
aI12928
aI12948
aI12949
aI13029
aI13076
aI13106
aI13127
aI13182
aI13184
aI13192
aI13316
aI13328
aI13367
aI13511
aI13542
aI13558
aI13717
aI13739
aI13744
aI13876
aI13906
aI13984
aI14020
aI14059
aI14136
aI14150
aI14254
aI14300
aI14301
aI14309
aI14312
aI14347
aI14375
aI14520
aI14550
aI14596
aI14635
aI14734
aI14754
aI14786
aI14807
aI14857
aI14863
aI14871
aI14883
aI14904
aI14933
aI14939
aI14976
aI15122
aI15245
aI15353
aI15397
aI15398
aI15399
aI15409
aI15499
aI15518
aI15528
aI15543
aI15545
aI15741
aI15770
aI15886
aI15897
aI15914
aI15982
aI16030
aI16031
aI16043
aI16139
aI16157
aI16180
aI16194
aI16256
aI16259
aI16264
aI16283
aI16302
aI16303
aI16343
aI16346
aI16347
aI16364
aI16657
aI16802
aI16997
aI17088
aI17090
aI17203
aI17236
aI17289
aI17290
aI17320
aI17327
aI17364
aI17365
aI17704
aI17705
aI17856
aI17994
aI18001
aI18002
aI18227
aI18248
aI18267
aI18374
aI18435
aI18510
aI18579
aI18581
aI18618
aI18621
aI18623
aI18635
aI18693
aI18741
aI18753
aI18821
aI18955
aI19051
aI19082
aI19243
aI19322
aI19510
aI19730
aI19857
aI20029
aI20107
aI20446
aI20459
aI20807
aI20866
aI20889
aI20908
aI20912
aI20925
aI20943
aI20957
aI20985
aI21169
aI21183
aI21294
aI21338
aI21476
aI21567
aI21642
aI21763
aI21806
aI21864
aI21871
aI21934
aI21989
aI22129
aI22135
aI22162
aI22166
aI22270
aI22299
aI22354
aI22367
aI22450
aI22595
aI22731
aI22758
aI22762
aI22787
aI22849
aI22867
aI22913
aI22959
aI22969
aI22971
aI22983
aI22987
aI23097
aI23336
aI23405
aI23474
aI23487
aI23494
aI23532
aI23533
aI23536
aI23598
aI23663
aI23727
aI23745
aI23871
aI23935
aI23970
aI23982
aI23991
aI24007
aI24050
aI24132
aI24162
aI24180
aI24187
aI24188
aI24265
aI24444
aI24514
aI24653
aI24662
aI25014
aI25145
aI25157
aI25174
aI25185
aI25268
aI25310
aI25328
aI25330
aI25334
aI25342
aI25382
aI25442
aI25495
aI25513
aI25516
aI25518
aI25589
aI25616
aI25693
aI25738
aI25780
aI25785
aI25802
aI25869
aI25874
aI25890
aI25900
aI25937
aI26017
aI26054
aI26131
aI26144
aI26159
aI26165
aI26210
aI26216
aI26228
aI26262
aI26288
aI26300
aI26336
aI26351
aI26360
aI26369
aI26510
aI26534
aI26549
aI26562
aI26677
aI26940
aI26974
aI27015
aI27044
aI27059
aI27076
aI27078
aI27092
aI27097
aI27098
aI27112
aI27226
aI27231
aI27273
aI27330
aI27340
aI27370
aI27389
aI27420
aI27555
aI27593
aI27598
aI27689
aI27884
aI27933
aI27936
aI28047
aI28080
aI28196
aI28237
aI28256
aI28279
aI28371
aI28373
aI28379
aI28461
aI28513
aI28553
aI28593
aI28614
aI28635
aI28676
aI28677
aI28829
aI28848
aI28850
aI28865
aI28891
aI28942
aI28963
aI28988
aI29024
aI29067
aI29069
aI29133
aI29193
aI29221
aI29286
aI29299
aI29300
aI29325
aI29359
aI29360
aI29373
aI29415
aI29430
aI29435
aI29452
aI29487
aI29488
aI29507
aI29570
aI29586
aI29589
aI29604
aI29616
aI29620
aI29637
aI29642
aI29652
aI29827
aI29984
aI29987
aI29997
aI30009
aI30095
aI30131
aI30143
aI30161
aI30162
aI30176
aI30211
aI30223
aI30226
aI30246
aI30262
aI30265
aI30272
aI30288
aI30291
aI30396
aI30515
aI30526
aI30536
aI30567
aI30580
aI30611
aI30734
aI30739
aI30760
aI30795
aI30819
aI30871
aI30891
aI30902
aI31058
aI31087
aI31088
aI31145
aI31167
aI31196
aI31215
aI31283
aI31284
aI31329
aI31395
aI31414
aI31490
aI31585
aI31592
aI31595
aI31618
aI31619
aI31665
aI31671
aI31674
aI31711
aI31776
aI31804
aI31806
aI31808
aI31888
aI31922
aI31934
aI31960
aI32015
aI32061
aI32111
aI32120
aI32129
aI32136
aI32172
aI32202
aI32227
aI32229
aI32273
aI32277
aI32278
aI32284
aI32324
aI32326
aI32396
aI32450
aI32481
aI32494
aI32516
aI32517
aI32751
aa.