(lp1
(lp2
I5586
aI5587
aI5714
aI5715
aI5842
aI5843
aI5970
aI5971
aI6098
aI6099
aa(lp3
I5588
aa(lp4
I5458
aI5459
aI5716
aI5841
aI5969
aI6097
aI6226
aI6354
aa(lp5
I5457
aI5585
aI5713
aI5844
aI6225
aI6227
aI6353
aI6355
aI6482
aI6483
aI6825
aI7461
aI7462
aI7589
aa(lp6
I5972
aI6481
aI6697
aI6952
aI6953
aI7081
aI7334
aI7590
aI7714
aI7715
aI7842
aI7843
aI8099
aI9279
aI9280
aI9281
aI9408
aI9409
aI9666
aI9667
aI9794
aI9795
aI9922
aI9923
aI10051
aI10178
aI10179
aI10306
aI10434
aI10563
aa(lp7
I5199
aI5326
aI5329
aI5330
aI5460
aI6100
aI6568
aI6569
aI6696
aI6698
aI6824
aI6826
aI7079
aI7080
aI7207
aI7208
aI7333
aI7335
aI7463
aI7588
aI7591
aI7716
aI7970
aI7971
aI9407
aI10050
aI10307
aI10435
aI10562
aI10690
aI10691
aI10818
aI10943
aI10944
aI11071
aI11072
aI21686
aI21687
aI28078
aa(lp8
I5069
aI5071
aI5072
aI5198
aI5200
aI5201
aI5203
aI5328
aI5331
aI6312
aI6352
aI6440
aI6567
aI6570
aI6590
aI6591
aI6609
aI6610
aI6611
aI6699
aI6718
aI6719
aI6720
aI6721
aI6951
aI7206
aI7209
aI7336
aI7337
aI7460
aI7844
aI7972
aI8098
aI8226
aI8227
aI8228
aI8356
aI8357
aI8358
aI8484
aI8485
aI8891
aI8892
aI9019
aI9022
aI9152
aI9410
aI9536
aI9537
aI9539
aI9668
aI9796
aI9924
aI10052
aI10180
aI10561
aI10689
aI10817
aI10819
aI11198
aI11324
aI11450
aI11452
aI11453
aI11574
aI21558
aI21559
aI21685
aI21813
aI21933
aI21936
aI22062
aI22190
aI22314
aI22442
aI22443
aI23325
aI23453
aI24088
aI24216
aI26918
aI26919
aI27046
aI27047
aI27048
aI27177
aI27305
aI27564
aI27691
aI27692
aa(lp9
I589
aI2182
aI4437
aI4678
aI4810
aI4813
aI4941
aI5015
aI5070
aI5075
aI5187
aI5196
aI5197
aI5202
aI5204
aI5316
aI5325
aI5327
aI5332
aI5596
aI5730
aI5846
aI5859
aI5976
aI6184
aI6224
aI6228
aI6356
aI6439
aI6441
aI6462
aI6463
aI6466
aI6467
aI6480
aI6516
aI6571
aI6589
aI6592
aI6593
aI6594
aI6595
aI6596
aI6597
aI6598
aI6606
aI6607
aI6695
aI6708
aI6716
aI6717
aI6722
aI6723
aI6724
aI6725
aI6726
aI6736
aI6738
aI6823
aI6827
aI6840
aI6841
aI6844
aI6845
aI6846
aI6847
aI6850
aI6950
aI6954
aI6967
aI6970
aI6971
aI6994
aI7078
aI7082
aI7094
aI7205
aI7235
aI7332
aI7338
aI7363
aI7500
aI7622
aI7623
aI7630
aI7717
aI7752
aI8097
aI8100
aI8106
aI8125
aI8229
aI8268
aI8355
aI8359
aI8361
aI8377
aI8486
aI8487
aI8488
aI8489
aI8494
aI8508
aI8513
aI8518
aI8552
aI8612
aI8613
aI8614
aI8615
aI8616
aI8617
aI8619
aI8764
aI8766
aI8767
aI8890
aI8893
aI8898
aI9018
aI9020
aI9023
aI9026
aI9148
aI9150
aI9151
aI9153
aI9154
aI9156
aI9282
aI9412
aI9414
aI9535
aI9538
aI9540
aI9665
aI9793
aI9921
aI9925
aI10053
aI10177
aI10305
aI10308
aI10433
aI10436
aI10564
aI10688
aI10816
aI10942
aI10945
aI10947
aI10954
aI10977
aI11070
aI11073
aI11075
aI11076
aI11196
aI11197
aI11199
aI11200
aI11201
aI11210
aI11214
aI11322
aI11325
aI11326
aI11575
aI11576
aI11577
aI11579
aI11580
aI11583
aI11701
aI11702
aI11703
aI11704
aI11710
aI11719
aI11802
aI11828
aI11830
aI11831
aI11832
aI11833
aI11835
aI11859
aI11860
aI11961
aI11962
aI11972
aI12062
aI12087
aI12088
aI12091
aI12198
aI12207
aI12209
aI12212
aI12219
aI12220
aI12227
aI12333
aI12334
aI12348
aI12471
aI12973
aI13542
aI15818
aI16134
aI16395
aI16409
aI16442
aI16473
aI16537
aI16645
aI16650
aI16654
aI16671
aI16776
aI16782
aI16828
aI16829
aI16880
aI16913
aI16919
aI16935
aI16938
aI17012
aI17052
aI17149
aI17185
aI17254
aI17332
aI17430
aI17683
aI17713
aI17754
aI17814
aI17837
aI17914
aI17946
aI18028
aI18072
aI18086
aI18178
aI18197
aI18221
aI18340
aI18466
aI18468
aI18476
aI18497
aI18562
aI18854
aI18945
aI18970
aI19095
aI19139
aI19177
aI19323
aI19324
aI19465
aI19718
aI19750
aI19812
aI19846
aI19978
aI20363
aI20364
aI20721
aI20751
aI20782
aI20795
aI20852
aI20875
aI20882
aI20907
aI20911
aI20916
aI20918
aI20980
aI21136
aI21161
aI21164
aI21295
aI21306
aI21418
aI21430
aI21431
aI21434
aI21436
aI21437
aI21450
aI21508
aI21541
aI21555
aI21556
aI21557
aI21560
aI21561
aI21562
aI21563
aI21576
aI21635
aI21667
aI21675
aI21683
aI21688
aI21704
aI21800
aI21802
aI21803
aI21897
aI21928
aI21929
aI21930
aI21931
aI21934
aI21935
aI21937
aI21940
aI22040
aI22060
aI22061
aI22179
aI22181
aI22183
aI22188
aI22189
aI22302
aI22303
aI22308
aI22312
aI22315
aI22316
aI22395
aI22429
aI22444
aI22524
aI22547
aI22562
aI22563
aI22564
aI22565
aI22572
aI22683
aI22685
aI22688
aI22690
aI22691
aI22796
aI22817
aI22818
aI22819
aI22922
aI22935
aI22940
aI22942
aI22945
aI23070
aI23071
aI23072
aI23085
aI23198
aI23214
aI23322
aI23417
aI23445
aI23450
aI23452
aI23545
aI23563
aI23566
aI23568
aI23569
aI23573
aI23579
aI23671
aI23673
aI23694
aI23697
aI23701
aI23702
aI23813
aI23820
aI23822
aI23823
aI23834
aI23835
aI23939
aI23959
aI23960
aI24074
aI24083
aI24185
aI24200
aI24212
aI24215
aI24328
aI24329
aI24330
aI24341
aI24343
aI24467
aI24469
aI24571
aI24595
aI24598
aI24713
aI24726
aI24823
aI24840
aI24849
aI24850
aI24854
aI24983
aI25091
aI25109
aI25110
aI25111
aI25112
aI25199
aI25238
aI25239
aI25364
aI25368
aI25450
aI25493
aI25496
aI25617
aI25618
aI25620
aI25753
aI25754
aI25857
aI25869
aI25870
aI25871
aI25881
aI25882
aI25883
aI25996
aI26002
aI26003
aI26007
aI26010
aI26011
aI26012
aI26131
aI26135
aI26138
aI26142
aI26145
aI26146
aI26147
aI26262
aI26269
aI26272
aI26273
aI26275
aI26379
aI26392
aI26399
aI26402
aI26404
aI26405
aI26506
aI26508
aI26509
aI26510
aI26511
aI26531
aI26535
aI26536
aI26610
aI26637
aI26638
aI26658
aI26662
aI26663
aI26766
aI26786
aI26790
aI26791
aI26792
aI26899
aI26910
aI26915
aI26916
aI26917
aI26920
aI27024
aI27028
aI27041
aI27042
aI27121
aI27123
aI27138
aI27165
aI27167
aI27174
aI27175
aI27176
aI27178
aI27290
aI27293
aI27306
aI27384
aI27397
aI27433
aI27434
aI27435
aI27554
aI27560
aI27563
aI27665
aI27685
aI27688
aI27740
aI27783
aI27809
aI27819
aI27820
aI27864
aI27911
aI27917
aI27948
aI27950
aI27951
aI27952
aI28021
aI28035
aI28077
aI28079
aI28080
aI28113
aI28114
aI28144
aI28205
aI28207
aI28208
aI28291
aI28305
aI28309
aI28310
aI28313
aI28435
aI28841
aI29052
aI29401
aI29470
aI29937
aI30196
aI30338
aI30443
aI30454
aI30587
aI30588
aI31603
aI31728
aI32030
aI32320
aI32321
aI32379
aI32446
aI32584
aI32723
aI32732
aa.