(lp1
(lp2
a(lp3
a(lp4
a(lp5
a(lp6
I5738
aI5866
aI5995
aI6250
aI10840
aI10968
aI10969
aI10970
aI11223
aI11476
aI11477
aI11604
aI27201
aI27587
aa(lp7
I5739
aI5867
aI5994
aI6122
aI6249
aI6378
aI6379
aI9816
aI9943
aI9944
aI10071
aI10072
aI10199
aI10200
aI10327
aI10455
aI10583
aI10711
aI10838
aI10839
aI10966
aI10967
aI11094
aI11095
aI11221
aI11222
aI11348
aI11349
aI24366
aI25262
aI27200
aI27202
aI27458
aI27459
aI27586
aI27588
aI27717
aa(lp8
I5482
aI5611
aI5868
aI5993
aI6121
aI6123
aI6251
aI6377
aI6634
aI6848
aI6849
aI6976
aI6977
aI7613
aI7614
aI7739
aI9429
aI9430
aI9815
aI10328
aI10456
aI10582
aI10584
aI10710
aI10712
aI10841
aI11093
aI11096
aI11220
aI11347
aI11475
aI11603
aI11605
aI22594
aI23475
aI24110
aI24238
aI25134
aI25135
aI25263
aI25389
aI25390
aI26033
aI26943
aI27069
aI27070
aI27071
aI27198
aI27199
aI27328
aI27329
aI27330
aI27331
aI27456
aI27457
aI27460
aI27584
aI27585
aI27714
aI27843
aI27845
aI27973
aI27974
aI27975
aI28231
aI28232
aI28233
aa(lp9
I204
aI1369
aI1884
aI2165
aI3339
aI4194
aI4205
aI4312
aI4341
aI4443
aI4453
aI4707
aI4708
aI4714
aI4721
aI4829
aI4970
aI5093
aI5094
aI5135
aI5212
aI5221
aI5222
aI5226
aI5340
aI5349
aI5350
aI5352
aI5354
aI5355
aI5476
aI5479
aI5480
aI5481
aI5483
aI5609
aI5610
aI5642
aI5737
aI5740
aI5865
aI5924
aI5996
aI6124
aI6263
aI6395
aI6504
aI6505
aI6506
aI6507
aI6591
aI6633
aI6635
aI6720
aI6721
aI6742
aI6743
aI6744
aI6761
aI6763
aI6783
aI6847
aI6876
aI6879
aI6886
aI6975
aI6978
aI6999
aI7016
aI7023
aI7057
aI7103
aI7104
aI7105
aI7106
aI7134
aI7164
aI7230
aI7231
aI7232
aI7233
aI7290
aI7357
aI7358
aI7359
aI7395
aI7423
aI7484
aI7485
aI7486
aI7496
aI7528
aI7529
aI7548
aI7622
aI7626
aI7646
aI7740
aI7742
aI7743
aI7755
aI7761
aI7781
aI7782
aI7783
aI7784
aI7785
aI7865
aI7866
aI7867
aI7883
aI7889
aI7905
aI7906
aI7908
aI7909
aI7911
aI7993
aI7994
aI7995
aI7996
aI8009
aI8017
aI8018
aI8034
aI8035
aI8120
aI8122
aI8150
aI8187
aI8188
aI8247
aI8248
aI8268
aI8270
aI8274
aI8280
aI8288
aI8378
aI8383
aI8393
aI8398
aI8400
aI8507
aI8508
aI8516
aI8519
aI8520
aI8525
aI8526
aI8529
aI8635
aI8636
aI8639
aI8648
aI8649
aI8656
aI8657
aI8658
aI8666
aI8668
aI8671
aI8672
aI8690
aI8764
aI8768
aI8771
aI8772
aI8784
aI8788
aI8796
aI8814
aI8904
aI8911
aI8913
aI8914
aI8924
aI8925
aI9040
aI9043
aI9045
aI9049
aI9052
aI9053
aI9172
aI9189
aI9191
aI9196
aI9302
aI9316
aI9320
aI9428
aI9432
aI9446
aI9557
aI9558
aI9561
aI9562
aI9565
aI9568
aI9687
aI9689
aI9694
aI9695
aI9818
aI9822
aI9878
aI9945
aI9958
aI10076
aI10202
aI10326
aI10454
aI10588
aI10591
aI10592
aI10713
aI10842
aI11097
aI11099
aI11224
aI11226
aI11350
aI11478
aI11729
aI11731
aI11734
aI11736
aI11855
aI11856
aI11860
aI11981
aI11982
aI11983
aI11986
aI11989
aI12041
aI12110
aI12111
aI12120
aI12238
aI12374
aI12375
aI12495
aI12502
aI12512
aI12625
aI12626
aI12743
aI12752
aI12760
aI13011
aI13012
aI13026
aI13274
aI13515
aI13811
aI13812
aI15634
aI16271
aI16569
aI16826
aI17186
aI17279
aI17330
aI17654
aI17963
aI18091
aI18177
aI18544
aI18689
aI18885
aI18947
aI19014
aI19015
aI19255
aI19256
aI19264
aI19848
aI20020
aI20033
aI20307
aI20627
aI20781
aI20889
aI20939
aI21056
aI21060
aI21064
aI21110
aI21190
aI21330
aI21457
aI21458
aI21529
aI21581
aI21588
aI21590
aI21700
aI21716
aI21717
aI21718
aI21788
aI21831
aI21832
aI21833
aI21837
aI21839
aI21840
aI21856
aI21899
aI21957
aI21960
aI21961
aI22080
aI22088
aI22089
aI22090
aI22091
aI22180
aI22181
aI22212
aI22213
aI22214
aI22293
aI22294
aI22340
aI22341
aI22342
aI22459
aI22465
aI22466
aI22467
aI22468
aI22583
aI22586
aI22595
aI22596
aI22706
aI22722
aI22724
aI22833
aI22834
aI22841
aI22842
aI22852
aI22928
aI22929
aI22969
aI22970
aI22979
aI23079
aI23091
aI23095
aI23096
aI23097
aI23187
aI23222
aI23224
aI23225
aI23237
aI23238
aI23318
aI23342
aI23344
aI23346
aI23351
aI23352
aI23365
aI23366
aI23474
aI23477
aI23603
aI23605
aI23712
aI23729
aI23730
aI23731
aI23732
aI23733
aI23854
aI23858
aI23859
aI23985
aI23987
aI24065
aI24111
aI24230
aI24232
aI24237
aI24239
aI24240
aI24344
aI24363
aI24365
aI24367
aI24368
aI24472
aI24481
aI24491
aI24492
aI24494
aI24579
aI24622
aI24750
aI24752
aI24853
aI24877
aI24878
aI24995
aI24999
aI25006
aI25007
aI25008
aI25124
aI25131
aI25132
aI25133
aI25136
aI25258
aI25259
aI25261
aI25264
aI25349
aI25384
aI25386
aI25391
aI25392
aI25419
aI25510
aI25511
aI25518
aI25519
aI25520
aI25645
aI25646
aI25729
aI25755
aI25768
aI25769
aI25773
aI25774
aI25775
aI25776
aI25820
aI25858
aI25872
aI25885
aI25906
aI26008
aI26014
aI26032
aI26161
aI26162
aI26163
aI26294
aI26297
aI26402
aI26421
aI26425
aI26515
aI26533
aI26551
aI26557
aI26663
aI26665
aI26682
aI26685
aI26687
aI26791
aI26796
aI26797
aI26813
aI26815
aI26925
aI26932
aI26938
aI26942
aI27058
aI27072
aI27189
aI27197
aI27283
aI27284
aI27453
aI27454
aI27455
aI27575
aI27579
aI27679
aI27709
aI27711
aI27712
aI27713
aI27715
aI27716
aI27789
aI27794
aI27814
aI27815
aI27842
aI27844
aI27846
aI27923
aI27941
aI27943
aI27969
aI27972
aI28091
aI28092
aI28104
aI28106
aI28145
aI28223
aI28226
aI28229
aI28234
aI28319
aI28323
aI28324
aI28341
aI28343
aI28353
aI28361
aI28461
aI28486
aI28588
aI28858
aI28986
aI28997
aI29245
aI29370
aI29593
aI29788
aI30020
aI31094
aI31618
aI31995
aI32254
aI32767
aa.