(lp1
(lp2
I24291
aI24417
aI24544
aI24545
aI24672
aI24673
aI24800
aI24801
aI24928
aI25056
aI25951
aI25952
aI26079
aI26080
aI26338
aI26339
aI27247
aI27375
aa(lp3
I23783
aI23910
aI24163
aI24929
aI25057
aI25183
aI25184
aI25312
aI25695
aI25824
aI26467
aI26730
aI27119
aI27374
aI27503
aI27760
aI27889
aI28406
aa(lp4
I23782
aI23911
aI24038
aI24164
aI24416
aI25185
aI25311
aI25313
aI25439
aI25440
aI25567
aI25568
aI25696
aI25823
aI26466
aI26468
aI26731
aI26858
aI26859
aI27118
aI27246
aI27761
aI27888
aI28018
aI28146
aI28405
aI28534
aa(lp5
I23784
aI24039
aI24165
aI24290
aI24292
aI24418
aI25055
aI25441
aI26209
aI26340
aI27120
aI27248
aI27376
aI27502
aI27504
aI27632
aI28145
aI28275
aI28276
aI28407
aI28535
aa(lp6
I12155
aI12156
aI12157
aI24162
aI24293
aI24927
aI25569
aI25697
aI26081
aI26208
aI26210
aI26337
aI26602
aI26603
aI26729
aI26857
aI26991
aI27631
aI27633
aI28017
aI28277
aI28533
aa(lp7
I7791
aI7792
aI8173
aI8300
aI8428
aI8555
aI8941
aI8942
aI12028
aI12029
aI22266
aI22267
aI22268
aI22395
aI23654
aI23655
aI23656
aI23912
aI24036
aI24037
aI24419
aI24546
aI24671
aI24799
aI25566
aI25694
aI25822
aI25825
aI25953
aI26601
aI26732
aI26860
aI26990
aI27759
aI27890
aI28016
aI28144
aI28147
aI28274
aa(lp8
I7410
aI7538
aI7664
aI7665
aI7793
aI7918
aI8046
aI8172
aI8174
aI8427
aI8556
aI8683
aI8811
aI8813
aI8814
aI8815
aI8943
aI9069
aI9208
aI9337
aI12027
aI12031
aI12154
aI22269
aI22394
aI22396
aI22773
aI23028
aI23156
aI23412
aI23526
aI23779
aI23781
aI23909
aI24288
aI24289
aI24543
aI24674
aI24802
aI24930
aI25058
aI25310
aI25438
aI25565
aI25854
aI25950
aI26207
aI26211
aI26465
aI26987
aI26989
aI26992
aI27630
aI27634
aI27758
aI27762
aI28019
aI28148
aI28273
aa(lp9
I513
aI713
aI1307
aI1338
aI1446
aI1496
aI1817
aI1940
aI2112
aI2282
aI2433
aI3081
aI3082
aI3149
aI3635
aI3984
aI4028
aI4330
aI4771
aI5190
aI5945
aI6765
aI6895
aI6896
aI7023
aI7024
aI7280
aI7282
aI7409
aI7411
aI7421
aI7536
aI7537
aI7539
aI7547
aI7663
aI7734
aI7794
aI7919
aI7920
aI7921
aI7976
aI8047
aI8176
aI8299
aI8301
aI8304
aI8312
aI8432
aI8433
aI8496
aI8554
aI8558
aI8560
aI8579
aI8682
aI8684
aI8685
aI8686
aI8746
aI8812
aI8816
aI8817
aI8944
aI8948
aI9070
aI9071
aI9073
aI9078
aI9159
aI9202
aI9207
aI9209
aI9336
aI9464
aI9465
aI9466
aI9778
aI10277
aI10672
aI10787
aI10981
aI11036
aI11064
aI11325
aI11903
aI12030
aI12158
aI12282
aI12285
aI12543
aI13181
aI13309
aI13310
aI13466
aI13535
aI13611
aI13744
aI13759
aI14236
aI14252
aI14254
aI14502
aI14893
aI15632
aI15738
aI15880
aI16110
aI16117
aI16240
aI16263
aI16477
aI16604
aI16605
aI16641
aI16701
aI17087
aI17496
aI17571
aI17682
aI17923
aI17954
aI18088
aI18142
aI18155
aI18454
aI18457
aI18722
aI18849
aI18879
aI18880
aI18977
aI19016
aI19079
aI19126
aI19132
aI19270
aI19392
aI19917
aI19920
aI19926
aI19965
aI20035
aI20100
aI20143
aI20144
aI20169
aI20210
aI20215
aI20297
aI20582
aI20673
aI20680
aI20687
aI20708
aI20729
aI20748
aI20963
aI20964
aI21067
aI21092
aI21195
aI21214
aI21235
aI21362
aI21365
aI21431
aI21490
aI21494
aI21532
aI21539
aI21622
aI21649
aI21694
aI21749
aI21752
aI21863
aI21870
aI21873
aI21886
aI21887
aI21908
aI21965
aI22001
aI22003
aI22004
aI22011
aI22012
aI22015
aI22084
aI22113
aI22139
aI22140
aI22141
aI22142
aI22143
aI22235
aI22240
aI22246
aI22259
aI22397
aI22494
aI22517
aI22569
aI22589
aI22593
aI22620
aI22623
aI22625
aI22643
aI22644
aI22645
aI22646
aI22714
aI22747
aI22748
aI22751
aI22758
aI22771
aI22772
aI22774
aI22845
aI22881
aI22890
aI22900
aI22901
aI22992
aI23013
aI23027
aI23122
aI23126
aI23141
aI23142
aI23155
aI23246
aI23247
aI23267
aI23268
aI23270
aI23273
aI23274
aI23275
aI23282
aI23283
aI23284
aI23285
aI23362
aI23368
aI23392
aI23398
aI23403
aI23411
aI23413
aI23499
aI23520
aI23522
aI23524
aI23527
aI23541
aI23632
aI23645
aI23647
aI23652
aI23653
aI23674
aI23753
aI23772
aI23774
aI23778
aI23780
aI23802
aI23882
aI23906
aI23907
aI23908
aI23981
aI23998
aI24030
aI24033
aI24034
aI24035
aI24040
aI24108
aI24143
aI24160
aI24161
aI24275
aI24277
aI24339
aI24413
aI24415
aI24463
aI24523
aI24526
aI24541
aI24542
aI24595
aI24651
aI24655
aI24665
aI24666
aI24668
aI24670
aI24783
aI24784
aI24797
aI24798
aI24926
aI25037
aI25050
aI25051
aI25168
aI25172
aI25178
aI25180
aI25181
aI25182
aI25186
aI25299
aI25307
aI25314
aI25373
aI25430
aI25435
aI25436
aI25437
aI25541
aI25559
aI25561
aI25598
aI25622
aI25651
aI25692
aI25693
aI25724
aI25725
aI25726
aI25821
aI25853
aI25890
aI25944
aI25989
aI25990
aI26037
aI26061
aI26072
aI26073
aI26074
aI26075
aI26078
aI26121
aI26205
aI26206
aI26212
aI26290
aI26316
aI26323
aI26324
aI26330
aI26335
aI26454
aI26464
aI26540
aI26590
aI26591
aI26595
aI26596
aI26597
aI26598
aI26687
aI26690
aI26691
aI26710
aI26712
aI26713
aI26719
aI26722
aI26723
aI26724
aI26726
aI26807
aI26846
aI26949
aI26971
aI26975
aI26985
aI26986
aI26988
aI27063
aI27072
aI27096
aI27098
aI27106
aI27111
aI27113
aI27115
aI27117
aI27177
aI27211
aI27221
aI27223
aI27226
aI27228
aI27238
aI27239
aI27242
aI27243
aI27244
aI27355
aI27361
aI27363
aI27368
aI27370
aI27373
aI27398
aI27416
aI27423
aI27460
aI27469
aI27492
aI27501
aI27527
aI27590
aI27627
aI27629
aI27742
aI27754
aI27755
aI27855
aI27883
aI27885
aI27886
aI27887
aI27923
aI27997
aI28015
aI28020
aI28107
aI28135
aI28137
aI28143
aI28383
aI28401
aI28402
aI28404
aI28512
aI28525
aI28530
aI28532
aI28571
aI28650
aI28661
aI28751
aI28777
aI28785
aI29015
aI29159
aI29165
aI29286
aI29373
aI29491
aI29527
aI29622
aI29788
aI29803
aI29927
aI29987
aI30050
aI30107
aI30176
aI30179
aI30298
aI30300
aI30433
aI30559
aI31208
aI31743
aI31853
aI31858
aI32445
aI32713
aa.