(lp1
(lp2
I4998
aI4999
aI5126
aI5127
aI5254
aI5255
aI5382
aI5383
aI5510
aI5511
aI5638
aI5639
aI5766
aI5767
aI5894
aI5895
aa(lp3
a(lp4
I4870
aI4871
aI5384
aa(lp5
I5128
aI5256
aI5512
aI5640
aI5765
aI5893
aa(lp6
I4742
aI4872
aI5000
aI5381
aI5509
aI5637
aa(lp7
I4609
aI4610
aI4611
aI4612
aI4738
aI4739
aI4740
aI4741
aI4869
aI4997
aI5125
aI5253
aI5768
aI5896
aI6022
aI6023
aa(lp8
I4483
aI4608
aI4613
aI4614
aI4615
aI4743
aI4868
aI6021
aI6024
aI22038
aI27500
aa(lp9
I59
aI60
aI128
aI173
aI187
aI188
aI204
aI257
aI431
aI514
aI608
aI643
aI671
aI679
aI852
aI939
aI984
aI1051
aI1171
aI1186
aI1201
aI1418
aI1612
aI1666
aI1795
aI1801
aI1802
aI1804
aI1816
aI1835
aI1845
aI1848
aI1849
aI1850
aI1867
aI1868
aI1870
aI1990
aI1994
aI2065
aI2103
aI2107
aI2140
aI2182
aI2197
aI2310
aI2312
aI2487
aI2488
aI2489
aI2519
aI2561
aI2661
aI2700
aI2823
aI2826
aI2894
aI2895
aI2901
aI2916
aI2963
aI2993
aI2994
aI3030
aI3105
aI3460
aI3467
aI3471
aI3493
aI3500
aI3625
aI3627
aI3686
aI3744
aI3842
aI3861
aI3862
aI3871
aI3895
aI3922
aI3948
aI3975
aI3992
aI4000
aI4055
aI4164
aI4235
aI4354
aI4355
aI4396
aI4398
aI4441
aI4442
aI4480
aI4481
aI4482
aI4484
aI4485
aI4487
aI4547
aI4568
aI4588
aI4616
aI4730
aI4736
aI4744
aI4790
aI4835
aI4873
aI4957
aI5004
aI5008
aI5061
aI5129
aI5171
aI5213
aI5215
aI5257
aI5299
aI5385
aI5390
aI5391
aI5393
aI5424
aI5442
aI5443
aI5449
aI5456
aI5461
aI5463
aI5466
aI5470
aI5529
aI5578
aI5587
aI5641
aI5725
aI5769
aI5773
aI5832
aI5833
aI5880
aI5892
aI5910
aI5917
aI5962
aI5980
aI6005
aI6017
aI6019
aI6020
aI6030
aI6138
aI6145
aI6147
aI6164
aI6166
aI6171
aI6174
aI6175
aI6215
aI6264
aI6299
aI6302
aI6343
aI6358
aI6382
aI6455
aI6457
aI6458
aI6491
aI6496
aI6502
aI6526
aI6530
aI6563
aI6664
aI6667
aI6673
aI6703
aI6704
aI6754
aI6756
aI6806
aI6826
aI6934
aI6941
aI7043
aI7091
aI7095
aI7098
aI7151
aI7154
aI7190
aI7193
aI7223
aI7232
aI7279
aI7326
aI7327
aI7348
aI7351
aI7371
aI7409
aI7410
aI7524
aI7546
aI7574
aI7792
aI8044
aI8045
aI8063
aI8136
aI8137
aI8194
aI8254
aI8264
aI8322
aI8383
aI8392
aI8449
aI8485
aI8523
aI8573
aI8655
aI8664
aI8676
aI8770
aI8784
aI8808
aI8878
aI8926
aI8927
aI8951
aI8984
aI8998
aI9060
aI9085
aI9213
aI9274
aI9322
aI9339
aI9342
aI9357
aI9450
aI9456
aI9465
aI9467
aI9468
aI9522
aI9530
aI9547
aI9548
aI9589
aI9601
aI9707
aI9823
aI9918
aI10043
aI10173
aI10218
aI10220
aI10239
aI10274
aI10287
aI10326
aI10375
aI10395
aI10563
aI10579
aI10688
aI10690
aI10691
aI10699
aI10860
aI10971
aI11008
aI11100
aI11142
aI11218
aI11241
aI11257
aI11261
aI11303
aI11311
aI11337
aI11338
aI11385
aI11391
aI11422
aI11431
aI11439
aI11440
aI11442
aI11454
aI11519
aI11564
aI11572
aI11604
aI11609
aI11643
aI11684
aI11711
aI11753
aI11765
aI11797
aI11822
aI11870
aI11880
aI12077
aI12147
aI12148
aI12161
aI12178
aI12242
aI12248
aI12249
aI12251
aI12274
aI12288
aI12301
aI12302
aI12306
aI12311
aI12319
aI12324
aI12382
aI12400
aI12401
aI12422
aI12425
aI12426
aI12431
aI12456
aI12480
aI12494
aI12495
aI12533
aI12594
aI12617
aI12619
aI12633
aI12639
aI12682
aI12727
aI12743
aI12747
aI12810
aI12832
aI12834
aI12874
aI12906
aI12938
aI12946
aI12993
aI13001
aI13082
aI13087
aI13111
aI13112
aI13126
aI13127
aI13129
aI13133
aI13135
aI13165
aI13185
aI13186
aI13237
aI13255
aI13336
aI13342
aI13353
aI13358
aI13361
aI13389
aI13497
aI13548
aI13624
aI13625
aI13632
aI13642
aI13645
aI13680
aI13715
aI13771
aI13785
aI13848
aI13851
aI13857
aI13881
aI13999
aI14011
aI14026
aI14031
aI14043
aI14057
aI14058
aI14064
aI14133
aI14234
aI14260
aI14265
aI14288
aI14374
aI14375
aI14378
aI14468
aI14506
aI14549
aI14675
aI14677
aI14703
aI14800
aI14886
aI14916
aI14930
aI14931
aI14934
aI14963
aI14964
aI14993
aI15003
aI15033
aI15123
aI15129
aI15131
aI15151
aI15197
aI15225
aI15245
aI15246
aI15250
aI15251
aI15273
aI15283
aI15326
aI15373
aI15402
aI15449
aI15466
aI15469
aI15470
aI15484
aI15586
aI15596
aI15597
aI15661
aI15670
aI15731
aI15744
aI15752
aI15754
aI15761
aI15787
aI15876
aI15893
aI15897
aI15923
aI15939
aI16009
aI16013
aI16020
aI16024
aI16137
aI16141
aI16142
aI16192
aI16273
aI16299
aI16449
aI16536
aI16537
aI16694
aI16791
aI16792
aI16828
aI17066
aI17326
aI17447
aI17578
aI17588
aI17768
aI17873
aI17874
aI17960
aI17985
aI17999
aI18123
aI18138
aI18155
aI18269
aI18312
aI18315
aI18388
aI18465
aI18587
aI18697
aI18766
aI18767
aI18768
aI18865
aI18866
aI19258
aI19533
aI19678
aI19758
aI19787
aI19805
aI19814
aI20018
aI20033
aI20046
aI20129
aI20160
aI20161
aI20162
aI20163
aI20187
aI20198
aI20242
aI20370
aI20461
aI20522
aI20523
aI20623
aI20639
aI20677
aI20786
aI20848
aI20928
aI20937
aI21005
aI21018
aI21034
aI21085
aI21189
aI21236
aI21320
aI21321
aI21434
aI21436
aI21786
aI21803
aI22035
aI22202
aI22337
aI22376
aI22453
aI22516
aI22621
aI22624
aI22677
aI22708
aI22777
aI22865
aI22889
aI22989
aI23015
aI23176
aI23265
aI23279
aI23280
aI23341
aI23365
aI23613
aI23914
aI24067
aI24125
aI24130
aI24231
aI24246
aI24258
aI24261
aI24292
aI24305
aI24307
aI24309
aI24395
aI24539
aI24559
aI24625
aI24641
aI24643
aI24645
aI24700
aI24721
aI24736
aI24748
aI24876
aI25037
aI25082
aI25126
aI25127
aI25139
aI25195
aI25267
aI25303
aI25332
aI25339
aI25356
aI25432
aI25464
aI25473
aI25553
aI25593
aI25779
aI25799
aI25925
aI25941
aI26011
aI26040
aI26074
aI26077
aI26078
aI26129
aI26167
aI26171
aI26242
aI26282
aI26299
aI26310
aI26311
aI26339
aI26341
aI26346
aI26371
aI26400
aI26437
aI26484
aI26500
aI26506
aI26512
aI26536
aI26546
aI26598
aI26600
aI26613
aI26674
aI26682
aI26728
aI26763
aI26816
aI26831
aI26903
aI26908
aI26984
aI26985
aI27120
aI27215
aI27217
aI27234
aI27235
aI27237
aI27280
aI27300
aI27317
aI27371
aI27373
aI27396
aI27397
aI27410
aI27420
aI27428
aI27449
aI27475
aI27476
aI27534
aI27624
aI27664
aI27670
aI27792
aI27973
aI28138
aI28245
aI28279
aI28304
aI28341
aI28379
aI28453
aI28497
aI28653
aI28821
aI28949
aI28951
aI28954
aI28958
aI28959
aI28969
aI29081
aI29085
aI29100
aI29109
aI29119
aI29134
aI29152
aI29157
aI29262
aI29295
aI29300
aI29329
aI29337
aI29341
aI29373
aI29386
aI29392
aI29417
aI29444
aI29604
aI29631
aI29842
aI30014
aI30084
aI30129
aI30189
aI30202
aI30222
aI30248
aI30253
aI30254
aI30284
aI30312
aI30323
aI30324
aI30406
aI30464
aI30482
aI30490
aI30500
aI30504
aI30524
aI30526
aI30568
aI30615
aI30616
aI30641
aI30679
aI30750
aI30797
aI30868
aI30873
aI30875
aI30876
aI30878
aI30920
aI30925
aI30927
aI30994
aI30997
aI31028
aI31053
aI31129
aI31142
aI31402
aI31404
aI31443
aI31486
aI31563
aI32022
aI32030
aI32031
aI32048
aI32049
aI32065
aI32141
aI32248
aI32365
aI32424
aI32492
aI32515
aI32570
aI32592
aI32665
aI32715
aI32724
aI32741
aI32762
aI32763
aa.