(lp1
(lp2
a(lp3
a(lp4
a(lp5
a(lp6
I10370
aa(lp7
I9857
aI9985
aI9986
aI10113
aI10114
aI10241
aI10242
aI10369
aa(lp8
I5138
aI5394
aI9345
aI9473
aI9474
aI9475
aI9601
aI9602
aI9603
aI9729
aI9730
aI9858
aI9987
aI9990
aI10371
aI13674
aI16306
aa(lp9
I38
aI66
aI131
aI165
aI168
aI169
aI189
aI260
aI274
aI345
aI434
aI458
aI518
aI521
aI523
aI537
aI555
aI573
aI852
aI910
aI938
aI1026
aI1087
aI1214
aI1294
aI1308
aI1310
aI1311
aI1349
aI1605
aI1692
aI1722
aI1729
aI1811
aI1846
aI1851
aI1866
aI1889
aI1923
aI1924
aI1940
aI1943
aI1946
aI1979
aI1991
aI2050
aI2051
aI2052
aI2053
aI2067
aI2081
aI2091
aI2122
aI2127
aI2248
aI2261
aI2309
aI2376
aI2377
aI2388
aI2442
aI2461
aI2502
aI2512
aI2514
aI2522
aI2523
aI2532
aI2567
aI2574
aI2608
aI2630
aI2642
aI2643
aI2727
aI2752
aI2830
aI2847
aI2900
aI2919
aI2920
aI2930
aI2938
aI2945
aI2950
aI3002
aI3015
aI3017
aI3023
aI3026
aI3029
aI3038
aI3146
aI3202
aI3252
aI3287
aI3334
aI3335
aI3336
aI3388
aI3398
aI3406
aI3440
aI3462
aI3472
aI3493
aI3595
aI3599
aI3614
aI3633
aI3640
aI3648
aI3662
aI3680
aI3714
aI3779
aI3812
aI3850
aI3944
aI4052
aI4060
aI4072
aI4116
aI4121
aI4147
aI4149
aI4213
aI4215
aI4233
aI4240
aI4245
aI4246
aI4247
aI4249
aI4253
aI4262
aI4266
aI4289
aI4354
aI4374
aI4381
aI4383
aI4432
aI4441
aI4442
aI4490
aI4494
aI4497
aI4500
aI4507
aI4521
aI4529
aI4545
aI4547
aI4617
aI4620
aI4624
aI4628
aI4632
aI4636
aI4650
aI4663
aI4664
aI4667
aI4677
aI4714
aI4717
aI4721
aI4722
aI4736
aI4739
aI4750
aI4752
aI4815
aI4824
aI4826
aI4827
aI4837
aI4838
aI4863
aI4881
aI4882
aI4886
aI4887
aI4895
aI4930
aI4945
aI4949
aI4967
aI5009
aI5010
aI5011
aI5012
aI5014
aI5015
aI5016
aI5023
aI5025
aI5035
aI5167
aI5169
aI5172
aI5265
aI5266
aI5312
aI5395
aI5400
aI5448
aI5453
aI5522
aI5523
aI5534
aI5535
aI5537
aI5539
aI5541
aI5577
aI5591
aI5592
aI5649
aI5651
aI5695
aI5721
aI5730
aI5731
aI5778
aI5833
aI5875
aI5876
aI5879
aI5907
aI5920
aI5932
aI5957
aI5965
aI5967
aI6020
aI6035
aI6045
aI6047
aI6138
aI6143
aI6146
aI6147
aI6161
aI6178
aI6239
aI6267
aI6273
aI6274
aI6280
aI6281
aI6282
aI6283
aI6284
aI6289
aI6307
aI6346
aI6355
aI6358
aI6402
aI6403
aI6434
aI6435
aI6452
aI6453
aI6454
aI6460
aI6462
aI6468
aI6469
aI6474
aI6488
aI6509
aI6535
aI6536
aI6538
aI6539
aI6562
aI6651
aI6655
aI6665
aI6666
aI6705
aI6762
aI6768
aI6786
aI6793
aI6818
aI6820
aI6828
aI6844
aI6888
aI6895
aI6981
aI6982
aI7003
aI7020
aI7041
aI7087
aI7089
aI7156
aI7205
aI7228
aI7231
aI7313
aI7323
aI7325
aI7340
aI7359
aI7366
aI7386
aI7436
aI7569
aI7583
aI7588
aI7614
aI7643
aI7644
aI7713
aI7714
aI7727
aI7740
aI7748
aI7796
aI7841
aI7845
aI7973
aI7979
aI7992
aI8011
aI8050
aI8051
aI8110
aI8111
aI8131
aI8225
aI8229
aI8230
aI8238
aI8265
aI8306
aI8314
aI8366
aI8426
aI8427
aI8434
aI8641
aI8663
aI8689
aI8692
aI8734
aI8735
aI8736
aI8768
aI8774
aI8802
aI8822
aI8895
aI8913
aI8937
aI8960
aI8961
aI8996
aI9051
aI9089
aI9091
aI9092
aI9102
aI9103
aI9105
aI9124
aI9156
aI9158
aI9162
aI9191
aI9206
aI9208
aI9217
aI9218
aI9219
aI9240
aI9252
aI9260
aI9267
aI9275
aI9333
aI9344
aI9346
aI9347
aI9352
aI9425
aI9460
aI9461
aI9470
aI9472
aI9524
aI9526
aI9558
aI9587
aI9592
aI9600
aI9606
aI9652
aI9659
aI9660
aI9661
aI9683
aI9692
aI9701
aI9704
aI9714
aI9716
aI9720
aI9725
aI9728
aI9731
aI9734
aI9748
aI9775
aI9777
aI9778
aI9808
aI9809
aI9842
aI9854
aI9856
aI9859
aI9870
aI9889
aI9892
aI9910
aI9911
aI9920
aI9931
aI9960
aI9971
aI9984
aI9991
aI9993
aI10021
aI10048
aI10049
aI10050
aI10058
aI10073
aI10109
aI10112
aI10115
aI10118
aI10132
aI10157
aI10164
aI10176
aI10185
aI10214
aI10221
aI10223
aI10227
aI10233
aI10243
aI10289
aI10312
aI10360
aI10363
aI10368
aI10428
aI10497
aI10498
aI10499
aI10571
aI10574
aI10578
aI10623
aI10625
aI10627
aI10682
aI10741
aI10752
aI10753
aI10756
aI10773
aI10788
aI10803
aI10808
aI10823
aI10847
aI10859
aI10864
aI10879
aI10905
aI10941
aI11018
aI11019
aI11020
aI11026
aI11057
aI11058
aI11068
aI11099
aI11155
aI11168
aI11240
aI11242
aI11252
aI11268
aI11279
aI11280
aI11300
aI11311
aI11312
aI11317
aI11336
aI11338
aI11373
aI11376
aI11390
aI11420
aI11441
aI11445
aI11453
aI11464
aI11494
aI11501
aI11502
aI11525
aI11546
aI11558
aI11560
aI11608
aI11620
aI11621
aI11653
aI11654
aI11657
aI11702
aI11713
aI11785
aI11788
aI11801
aI11820
aI11835
aI11847
aI11863
aI11877
aI11897
aI11933
aI11940
aI11958
aI12001
aI12011
aI12051
aI12070
aI12083
aI12138
aI12175
aI12185
aI12186
aI12228
aI12249
aI12272
aI12278
aI12288
aI12289
aI12293
aI12314
aI12325
aI12327
aI12359
aI12438
aI12440
aI12452
aI12455
aI12474
aI12486
aI12487
aI12491
aI12507
aI12514
aI12515
aI12563
aI12564
aI12565
aI12571
aI12584
aI12588
aI12632
aI12646
aI12661
aI12695
aI12703
aI12704
aI12712
aI12720
aI12732
aI12737
aI12748
aI12789
aI12801
aI12814
aI12838
aI12839
aI12840
aI12850
aI12860
aI12932
aI12937
aI12944
aI12949
aI12959
aI12963
aI12966
aI12968
aI12979
aI12980
aI13026
aI13058
aI13060
aI13064
aI13066
aI13072
aI13094
aI13095
aI13096
aI13097
aI13108
aI13117
aI13135
aI13176
aI13190
aI13224
aI13233
aI13241
aI13244
aI13253
aI13270
aI13278
aI13286
aI13287
aI13306
aI13320
aI13327
aI13343
aI13364
aI13367
aI13374
aI13376
aI13381
aI13384
aI13385
aI13448
aI13449
aI13453
aI13455
aI13514
aI13516
aI13528
aI13530
aI13550
aI13625
aI13642
aI13647
aI13657
aI13658
aI13667
aI13671
aI13686
aI13716
aI13718
aI13762
aI13813
aI13842
aI13843
aI13848
aI13867
aI13872
aI13873
aI13875
aI13891
aI13895
aI13908
aI13931
aI13976
aI13986
aI14002
aI14009
aI14033
aI14034
aI14046
aI14068
aI14098
aI14099
aI14106
aI14111
aI14118
aI14120
aI14142
aI14155
aI14162
aI14173
aI14275
aI14286
aI14290
aI14299
aI14324
aI14360
aI14377
aI14399
aI14485
aI14574
aI14595
aI14600
aI14601
aI14629
aI14676
aI14686
aI14709
aI14741
aI14747
aI14837
aI14865
aI14867
aI14870
aI14873
aI14874
aI14885
aI14887
aI14896
aI14899
aI14910
aI14918
aI14919
aI14921
aI14923
aI14924
aI14935
aI14959
aI14998
aI15015
aI15027
aI15040
aI15043
aI15086
aI15095
aI15096
aI15121
aI15139
aI15141
aI15148
aI15149
aI15161
aI15198
aI15199
aI15204
aI15214
aI15216
aI15217
aI15220
aI15228
aI15229
aI15232
aI15233
aI15247
aI15271
aI15283
aI15308
aI15313
aI15358
aI15365
aI15369
aI15453
aI15468
aI15486
aI15497
aI15498
aI15613
aI15614
aI15617
aI15622
aI15626
aI15637
aI15638
aI15664
aI15666
aI15675
aI15684
aI15709
aI15716
aI15717
aI15730
aI15731
aI15733
aI15745
aI15763
aI15788
aI15864
aI15872
aI15879
aI15881
aI15883
aI15899
aI15920
aI15941
aI16009
aI16033
aI16055
aI16070
aI16072
aI16117
aI16118
aI16119
aI16191
aI16194
aI16239
aI16254
aI16258
aI16260
aI16261
aI16262
aI16264
aI16266
aI16269
aI16270
aI16303
aI16315
aI16351
aI16365
aI16452
aI16952
aI17447
aI17478
aI17545
aI17604
aI17666
aI17753
aI17826
aI17847
aI17856
aI17857
aI18059
aI18242
aI18516
aI18621
aI18698
aI18817
aI18875
aI19140
aI19161
aI19209
aI19416
aI19566
aI19668
aI19768
aI20232
aI20511
aI20571
aI20643
aI20700
aI20707
aI20769
aI20782
aI20810
aI20857
aI20940
aI21127
aI21344
aI21463
aI21464
aI21543
aI21576
aI21579
aI21582
aI21676
aI21741
aI21799
aI22059
aI22074
aI22123
aI22225
aI22226
aI22324
aI22616
aI22618
aI22649
aI22765
aI22768
aI22777
aI22932
aI23483
aI23614
aI23633
aI23656
aI23872
aI23975
aI24184
aI24232
aI24684
aI24812
aI25143
aI25336
aI25339
aI25341
aI25531
aI25740
aI25968
aI26069
aI26362
aI26390
aI26490
aI26532
aI26544
aI26667
aI26817
aI26834
aI26963
aI27049
aI27074
aI27118
aI27145
aI27298
aI27394
aI27415
aI27420
aI27487
aI27629
aI27738
aI27866
aI27948
aI28123
aI28125
aI28309
aI28310
aI28340
aI28565
aI28702
aI28830
aI28964
aI28987
aI29074
aI29075
aI29083
aI29109
aI29205
aI29286
aI29393
aI29541
aI29595
aI29601
aI29798
aI29844
aI29857
aI29881
aI29882
aI29909
aI30010
aI30072
aI30095
aI30157
aI30322
aI30353
aI30367
aI30392
aI30496
aI30597
aI30735
aI30835
aI30900
aI30963
aI30987
aI31050
aI31146
aI31149
aI31187
aI31299
aI31554
aI31736
aI31747
aI31765
aI31811
aI31860
aI31865
aI31885
aI32014
aI32268
aI32271
aI32513
aI32527
aI32658
aa.