(lp1
(lp2
a(lp3
a(lp4
a(lp5
a(lp6
a(lp7
a(lp8
I6439
aI26761
aa(lp9
I314
aI641
aI642
aI643
aI705
aI801
aI904
aI1026
aI1064
aI1232
aI1602
aI1612
aI1676
aI1698
aI1794
aI1872
aI1923
aI1937
aI1962
aI1967
aI2000
aI2053
aI2181
aI2204
aI2314
aI2336
aI2455
aI2482
aI2529
aI2530
aI2563
aI2569
aI2867
aI2912
aI2945
aI2996
aI3044
aI3073
aI3078
aI3080
aI3081
aI3331
aI3352
aI3417
aI3459
aI3741
aI3821
aI3994
aI4019
aI4128
aI4235
aI4256
aI4258
aI4265
aI4285
aI4379
aI4396
aI4412
aI4452
aI4520
aI4547
aI4638
aI4672
aI4673
aI4785
aI5183
aI5185
aI5242
aI5283
aI5297
aI5346
aI5394
aI5596
aI5717
aI5779
aI5844
aI5845
aI5862
aI5929
aI5969
aI6025
aI6084
aI6085
aI6145
aI6193
aI6248
aI6323
aI6462
aI6486
aI6503
aI6513
aI6574
aI6577
aI6578
aI6590
aI6719
aI6878
aI6967
aI6978
aI6982
aI7000
aI7194
aI7206
aI7539
aI7542
aI7612
aI7672
aI7677
aI7709
aI7854
aI7981
aI8008
aI8190
aI8243
aI8262
aI8364
aI8427
aI8617
aI8735
aI8796
aI8822
aI8874
aI8884
aI8885
aI8916
aI8920
aI8984
aI8995
aI9008
aI9115
aI9133
aI9150
aI9207
aI9208
aI9214
aI9260
aI9312
aI9342
aI9388
aI9389
aI9421
aI9423
aI9470
aI9478
aI9518
aI9552
aI9561
aI9597
aI9632
aI9680
aI9696
aI9697
aI9722
aI9727
aI9751
aI9804
aI9838
aI9864
aI9963
aI10000
aI10089
aI10259
aI10368
aI10387
aI10485
aI10518
aI10548
aI10566
aI10599
aI10600
aI10606
aI10674
aI10687
aI10824
aI10845
aI10896
aI10898
aI10913
aI10915
aI10951
aI10968
aI11003
aI11150
aI11253
aI11270
aI11273
aI11298
aI11299
aI11354
aI11407
aI11426
aI11481
aI11482
aI11633
aI11652
aI11693
aI11927
aI11957
aI12042
aI12106
aI12145
aI12236
aI12464
aI12545
aI12550
aI12556
aI12569
aI12590
aI12661
aI12693
aI12843
aI12935
aI12938
aI13067
aI13079
aI13081
aI13085
aI13126
aI13227
aI13232
aI13233
aI13260
aI13266
aI13367
aI13504
aI13616
aI13677
aI13727
aI13745
aI13746
aI13750
aI13751
aI13785
aI13839
aI13862
aI13865
aI13869
aI13898
aI13927
aI13930
aI13937
aI13955
aI13967
aI13968
aI14038
aI14136
aI14245
aI14250
aI14275
aI14277
aI14291
aI14325
aI14337
aI14465
aI14471
aI14517
aI14523
aI14593
aI14620
aI14625
aI14626
aI14643
aI14678
aI14696
aI14728
aI14743
aI14874
aI14927
aI14966
aI15001
aI15028
aI15118
aI15247
aI15260
aI15349
aI15375
aI15409
aI15499
aI15526
aI15527
aI15602
aI15637
aI15786
aI15832
aI16015
aI16039
aI16077
aI16126
aI16275
aI16313
aI16340
aI16393
aI16512
aI16544
aI16657
aI16901
aI16902
aI16915
aI17052
aI17083
aI17232
aI17332
aI17414
aI17418
aI17540
aI17545
aI17548
aI17668
aI17698
aI17699
aI17794
aI17822
aI17828
aI17862
aI17983
aI18094
aI18115
aI18142
aI18246
aI18338
aI18374
aI18453
aI18458
aI18488
aI18511
aI18609
aI18621
aI18690
aI18722
aI18744
aI18745
aI18749
aI18837
aI18838
aI18871
aI18946
aI19084
aI19157
aI19214
aI19229
aI19285
aI19414
aI19472
aI19506
aI19598
aI19599
aI19630
aI19702
aI19729
aI19856
aI19865
aI19887
aI19898
aI19904
aI19970
aI20013
aI20030
aI20031
aI20055
aI20058
aI20062
aI20113
aI20150
aI20190
aI20242
aI20261
aI20281
aI20519
aI20520
aI20526
aI20566
aI20758
aI20805
aI20878
aI20897
aI21078
aI21084
aI21155
aI21194
aI21201
aI21209
aI21249
aI21320
aI21329
aI21410
aI21419
aI21588
aI21598
aI21611
aI21676
aI21704
aI21705
aI21706
aI21738
aI21739
aI21745
aI21835
aI21845
aI21855
aI21865
aI21868
aI21875
aI21905
aI21915
aI21927
aI22044
aI22052
aI22091
aI22106
aI22255
aI22267
aI22290
aI22401
aI22402
aI22403
aI22464
aI22501
aI22558
aI22559
aI22560
aI22580
aI22629
aI22661
aI22687
aI22693
aI22757
aI22771
aI22778
aI22812
aI22818
aI22891
aI22907
aI22909
aI22913
aI22927
aI22928
aI22971
aI22985
aI23022
aI23066
aI23067
aI23070
aI23097
aI23141
aI23146
aI23147
aI23215
aI23219
aI23226
aI23320
aI23601
aI23613
aI23614
aI23641
aI23678
aI23727
aI23743
aI23770
aI23852
aI23881
aI23885
aI23982
aI24176
aI24182
aI24445
aI24648
aI24687
aI24796
aI24815
aI24833
aI24943
aI24948
aI24979
aI25013
aI25129
aI25171
aI25189
aI25244
aI25347
aI25382
aI25406
aI25549
aI25651
aI25761
aI25777
aI25873
aI25908
aI25927
aI25930
aI26026
aI26041
aI26120
aI26171
aI26181
aI26182
aI26186
aI26195
aI26207
aI26218
aI26228
aI26262
aI26264
aI26321
aI26322
aI26339
aI26341
aI26356
aI26357
aI26378
aI26406
aI26408
aI26421
aI26427
aI26465
aI26487
aI26489
aI26497
aI26525
aI26534
aI26556
aI26561
aI26563
aI26589
aI26632
aI26646
aI26674
aI26679
aI26689
aI26704
aI26711
aI26723
aI26774
aI26816
aI26821
aI26838
aI26955
aI26973
aI26992
aI27135
aI27146
aI27177
aI27180
aI27212
aI27243
aI27290
aI27340
aI27343
aI27365
aI27394
aI27419
aI27464
aI27479
aI27524
aI27541
aI27551
aI27616
aI27617
aI27685
aI27731
aI27829
aI27885
aI27904
aI27932
aI27953
aI27963
aI27988
aI27991
aI27993
aI27998
aI27999
aI28074
aI28140
aI28254
aI28291
aI28315
aI28334
aI28394
aI28481
aI28495
aI28509
aI28544
aI28567
aI28590
aI28603
aI28663
aI28691
aI28692
aI28693
aI28714
aI28716
aI28740
aI28789
aI28821
aI28832
aI28834
aI28851
aI28907
aI28932
aI28971
aI28990
aI28996
aI29008
aI29093
aI29095
aI29105
aI29111
aI29117
aI29119
aI29121
aI29136
aI29138
aI29139
aI29145
aI29146
aI29153
aI29175
aI29185
aI29212
aI29274
aI29338
aI29341
aI29359
aI29423
aI29436
aI29440
aI29461
aI29479
aI29481
aI29486
aI29490
aI29506
aI29512
aI29556
aI29588
aI29634
aI29737
aI29741
aI29742
aI29774
aI29810
aI29848
aI29862
aI29869
aI29870
aI29899
aI29904
aI29934
aI29971
aI29974
aI30028
aI30067
aI30125
aI30228
aI30309
aI30341
aI30394
aI30448
aI30490
aI30492
aI30505
aI30623
aI30698
aI30715
aI30729
aI30735
aI30770
aI30857
aI30865
aI30869
aI30870
aI30872
aI30914
aI30928
aI30952
aI30987
aI31013
aI31115
aI31141
aI31188
aI31394
aI31409
aI31475
aI31507
aI31538
aI31578
aI31623
aI31665
aI31669
aI31671
aI31672
aI31702
aI31739
aI31763
aI31797
aI31817
aI31875
aI31882
aI31915
aI31924
aI31925
aI32009
aI32093
aI32094
aI32137
aI32177
aI32195
aI32196
aI32237
aI32307
aI32308
aI32396
aI32403
aI32404
aI32405
aI32406
aI32440
aI32449
aI32450
aI32505
aI32513
aI32515
aI32523
aI32602
aI32613
aI32622
aI32651
aI32691
aI32699
aI32709
aI32740
aa.