(lp1
(lp2
a(lp3
a(lp4
a(lp5
a(lp6
a(lp7
a(lp8
I11140
aa(lp9
I0
aI24
aI46
aI52
aI267
aI296
aI395
aI516
aI521
aI552
aI714
aI768
aI817
aI900
aI1152
aI1157
aI1409
aI1433
aI1453
aI1487
aI1568
aI1569
aI1570
aI1580
aI1599
aI1600
aI1609
aI1698
aI1721
aI1726
aI1802
aI1845
aI1846
aI1847
aI1869
aI1885
aI1995
aI1997
aI1999
aI2185
aI2250
aI2400
aI2498
aI2520
aI2521
aI2756
aI2862
aI3090
aI3132
aI3203
aI3396
aI3416
aI3473
aI3489
aI3586
aI3743
aI3791
aI3805
aI3851
aI3905
aI4056
aI4188
aI4206
aI4207
aI4246
aI4264
aI4270
aI4334
aI4360
aI4543
aI4546
aI4732
aI4738
aI4779
aI4792
aI4900
aI4922
aI4924
aI5017
aI5082
aI5091
aI5136
aI5137
aI5159
aI5172
aI5286
aI5309
aI5310
aI5350
aI5461
aI5505
aI5580
aI5613
aI5840
aI5878
aI5921
aI5924
aI5930
aI5941
aI5971
aI6001
aI6002
aI6005
aI6006
aI6018
aI6032
aI6228
aI6343
aI6356
aI6364
aI6370
aI6390
aI6445
aI6499
aI6525
aI6564
aI6576
aI6577
aI6646
aI6698
aI6703
aI6704
aI6705
aI6748
aI6774
aI6811
aI6824
aI6855
aI6893
aI6956
aI6963
aI6965
aI7020
aI7022
aI7088
aI7102
aI7155
aI7214
aI7219
aI7238
aI7400
aI7423
aI7449
aI7463
aI7497
aI7523
aI7525
aI7536
aI7540
aI7606
aI7716
aI7745
aI7749
aI7765
aI7806
aI7807
aI7915
aI7967
aI8004
aI8006
aI8042
aI8043
aI8100
aI8228
aI8229
aI8447
aI8559
aI8568
aI8610
aI8621
aI8625
aI8633
aI8640
aI8641
aI8654
aI8971
aI9024
aI9046
aI9052
aI9142
aI9219
aI9280
aI9300
aI9352
aI9396
aI9406
aI9461
aI9524
aI9661
aI9682
aI9887
aI9888
aI9921
aI10033
aI10045
aI10083
aI10090
aI10095
aI10163
aI10336
aI10337
aI10377
aI10394
aI10435
aI10439
aI10464
aI10465
aI10466
aI10530
aI10601
aI10620
aI10688
aI10692
aI10701
aI10724
aI10735
aI10794
aI10863
aI10894
aI10933
aI11069
aI11126
aI11141
aI11197
aI11217
aI11219
aI11264
aI11284
aI11370
aI11392
aI11395
aI11540
aI11571
aI11593
aI11742
aI11784
aI11889
aI11984
aI12000
aI12035
aI12073
aI12163
aI12188
aI12206
aI12209
aI12223
aI12247
aI12292
aI12359
aI12364
aI12420
aI12477
aI12492
aI12545
aI12685
aI12686
aI12710
aI12729
aI12735
aI12737
aI12790
aI12799
aI12807
aI12821
aI12822
aI12830
aI12843
aI12848
aI12865
aI12866
aI12868
aI12869
aI12874
aI12952
aI12959
aI12960
aI12982
aI13035
aI13074
aI13091
aI13108
aI13201
aI13274
aI13357
aI13422
aI13452
aI13473
aI13474
aI13482
aI13485
aI13526
aI13544
aI13623
aI13683
aI13718
aI13800
aI13839
aI13845
aI13847
aI13888
aI13900
aI13901
aI13904
aI13907
aI13947
aI13963
aI14028
aI14029
aI14030
aI14102
aI14158
aI14191
aI14195
aI14210
aI14223
aI14265
aI14279
aI14344
aI14404
aI14441
aI14475
aI14476
aI14515
aI14541
aI14570
aI14594
aI14601
aI14729
aI14753
aI14787
aI14860
aI14878
aI14907
aI14917
aI14933
aI15092
aI15222
aI15235
aI15236
aI15238
aI15246
aI15247
aI15259
aI15318
aI15427
aI15497
aI15515
aI15596
aI15607
aI15732
aI15769
aI15882
aI15886
aI15921
aI15992
aI16007
aI16066
aI16135
aI16153
aI16160
aI16181
aI16188
aI16200
aI16327
aI16361
aI16403
aI16455
aI16641
aI16920
aI17059
aI17076
aI17196
aI17206
aI17207
aI17235
aI17364
aI17433
aI17443
aI17464
aI17547
aI17570
aI17639
aI17672
aI17750
aI17969
aI18048
aI18101
aI18126
aI18128
aI18206
aI18207
aI18242
aI18249
aI18309
aI18331
aI18359
aI18437
aI18483
aI18484
aI18511
aI18595
aI18718
aI18739
aI18840
aI18845
aI18951
aI18999
aI19030
aI19031
aI19122
aI19136
aI19205
aI19285
aI19332
aI19333
aI19334
aI19347
aI19505
aI19508
aI19597
aI19739
aI19741
aI19933
aI19973
aI19983
aI20002
aI20017
aI20040
aI20056
aI20062
aI20137
aI20156
aI20226
aI20229
aI20237
aI20238
aI20249
aI20330
aI20404
aI20441
aI20444
aI20753
aI20864
aI20869
aI20908
aI20911
aI20916
aI20920
aI20921
aI20978
aI21056
aI21151
aI21344
aI21546
aI21562
aI21568
aI21569
aI21583
aI21591
aI21612
aI21633
aI21668
aI21724
aI21742
aI21785
aI21804
aI21862
aI21986
aI22007
aI22012
aI22045
aI22080
aI22116
aI22213
aI22253
aI22298
aI22321
aI22322
aI22380
aI22434
aI22470
aI22532
aI22578
aI22628
aI22633
aI22635
aI22706
aI22708
aI22837
aI22944
aI22966
aI22970
aI22983
aI22986
aI23159
aI23331
aI23388
aI23396
aI23408
aI23409
aI23596
aI23663
aI23741
aI24054
aI24193
aI24206
aI24367
aI24392
aI24432
aI24653
aI24810
aI24852
aI24854
aI24999
aI25119
aI25120
aI25139
aI25140
aI25185
aI25207
aI25271
aI25272
aI25283
aI25299
aI25342
aI25388
aI25400
aI25518
aI25535
aI25552
aI25560
aI25592
aI25593
aI25599
aI25618
aI25658
aI25801
aI25803
aI25976
aI26018
aI26090
aI26197
aI26243
aI26244
aI26246
aI26283
aI26292
aI26347
aI26498
aI26518
aI26524
aI26561
aI26646
aI26670
aI26743
aI26759
aI26812
aI26920
aI26982
aI26997
aI27010
aI27012
aI27056
aI27097
aI27111
aI27113
aI27117
aI27250
aI27261
aI27285
aI27286
aI27288
aI27304
aI27410
aI27411
aI27414
aI27415
aI27487
aI27541
aI27543
aI27606
aI27611
aI27613
aI27665
aI27866
aI27870
aI27898
aI27951
aI28084
aI28117
aI28194
aI28237
aI28266
aI28267
aI28300
aI28315
aI28395
aI28439
aI28637
aI28682
aI28684
aI28761
aI28766
aI28778
aI28808
aI28812
aI28849
aI28853
aI28860
aI28878
aI28894
aI28938
aI28939
aI28953
aI28961
aI28974
aI28978
aI29003
aI29027
aI29089
aI29133
aI29172
aI29247
aI29369
aI29465
aI29466
aI29469
aI29509
aI29582
aI29603
aI29605
aI29607
aI29629
aI29630
aI29669
aI29678
aI29765
aI29878
aI29883
aI29889
aI29893
aI29895
aI29900
aI30056
aI30094
aI30222
aI30225
aI30226
aI30234
aI30344
aI30482
aI30500
aI30518
aI30535
aI30624
aI30743
aI30783
aI30811
aI30870
aI30871
aI30876
aI30911
aI30952
aI30980
aI31003
aI31004
aI31005
aI31050
aI31055
aI31059
aI31060
aI31108
aI31152
aI31154
aI31174
aI31185
aI31194
aI31280
aI31341
aI31363
aI31377
aI31409
aI31426
aI31431
aI31490
aI31491
aI31505
aI31554
aI31673
aI31726
aI31737
aI31759
aI31893
aI32012
aI32016
aI32047
aI32048
aI32050
aI32139
aI32149
aI32189
aI32240
aI32244
aI32297
aI32332
aI32361
aI32370
aI32404
aI32475
aI32497
aI32524
aI32574
aI32639
aI32751
aI32753
aa.