(lp1
(lp2
I19002
aI19367
aI19392
aI19393
aI20384
aI21354
aI23066
aI23222
aI23260
aI23676
aI23985
aI24503
aI25907
aI26306
aI26555
aI26639
aI26849
aI26865
aI27690
aI31047
aI31417
aI31889
aa(lp3
a(lp4
a(lp5
a(lp6
a(lp7
a(lp8
a(lp9
a.