(lp1
(lp2
I6646
aI6655
aI6774
aI6901
aI7155
aI7156
aI7283
aI7284
aI7411
aI7412
aI7537
aI7538
aI7665
aI7666
aI7793
aI7794
aI7923
aI8053
aI8054
aI8055
aI8183
aI8187
aI8188
aI19614
aI22378
aI22387
aI22390
aI22521
aI22522
aI22649
aI22650
aI22735
aI22777
aI22778
aI22905
aI22906
aI23022
aI23024
aI23025
aI23152
aI23153
aI23279
aI23388
aI23405
aI23406
aI23407
aI23532
aI23533
aI23534
aI23660
aI23661
aI23768
aI23787
aI23788
aI23914
aI23915
aI23916
aI24043
aI24044
aI24171
aI24172
aI24299
aI24300
aI24427
aI24428
aI24555
aI24556
aI24683
aI24684
aI24811
aI24812
aI24813
aI24939
aI24940
aI24941
aI25068
aI25070
aI25163
aI25198
aI25199
aI25200
aI25327
aI25328
aI25332
aI25333
aI25335
aI25336
aI25463
aI25464
aI25465
aI25592
aI25593
aI25720
aI25721
aI25848
aI25849
aI25850
aI25922
aI25976
aI25977
aI25978
aI26106
aI26107
aI26234
aI26235
aI26236
aI26364
aI26365
aI26366
aI26492
aI26493
aI26494
aI27054
aa(lp3
I7283
aI7284
aI22906
aI23534
aI24171
aI24172
aI24299
aI24300
aI24427
aI24428
aI24555
aI24556
aI24684
aI24812
aI24940
aI25199
aI25200
aI25592
aI25593
aI25720
aI25721
aI26106
aI26107
aI26234
aI26235
aI26365
aI26493
aI26494
aa(lp4
I24300
aI24428
aI24556
aI24684
aI24812
aI26106
aI26107
aI26234
aI26235
aI26365
aa(lp5
a(lp6
a(lp7
a(lp8
a(lp9
a.