(lp1
(lp2
I6270
aI6395
aI6633
aI6642
aI6643
aI6644
aI6646
aI6761
aI6888
aI7271
aI7398
aI7525
aI7526
aI7781
aI7782
aI7910
aI8042
aI8171
aI8175
aI8313
aI8315
aI8442
aI8444
aI8830
aI8957
aI8958
aI9203
aI9342
aI9470
aI9597
aI9598
aI9723
aI9724
aI9725
aI9851
aI9852
aI9853
aI9977
aI10230
aI10231
aI10358
aI10359
aI10486
aI10487
aI22004
aI22129
aI22507
aI22509
aI22634
aI22637
aI23264
aI23648
aI23775
aI23902
aI24031
aI24151
aI24284
aI24287
aI24414
aI24542
aI24543
aI24670
aI24671
aI24798
aI24799
aI25187
aI25314
aI25315
aI25321
aI25450
aI25452
aI25579
aI25589
aI25590
aI25708
aI25837
aI25965
aI25966
aI26093
aI26094
aI26221
aI26222
aI26351
aI26352
aI26479
aI26480
aI26739
aa(lp3
I9723
aI9977
aI24542
aI24543
aI24671
aI26094
aI26222
aI26480
aa(lp4
a(lp5
a(lp6
a(lp7
a(lp8
a(lp9
a.