(lp1
(lp2
I2182
aI2948
aI18127
aI18387
aI18516
aI19116
aI19514
aI21558
aI21611
aI21942
aI22372
aI23858
aI24125
aI24148
aI25534
aI25914
aI26481
aI26640
aI26740
aI27001
aI27322
aI27324
aI27447
aI27645
aI28375
aI28630
aI28706
aI30921
aI31297
aa(lp3
a(lp4
a(lp5
a(lp6
a(lp7
a(lp8
a(lp9
a.