(lp1
(lp2
I22069
aI22451
aI22452
aI22579
aI22580
aI22707
aI22708
aI22836
aI23332
aI23333
aI23460
aI23714
aI23968
aI24095
aI24096
aI24223
aI24224
aI24351
aI24352
aI24479
aI24607
aI24735
aI25503
aI25504
aI25631
aI25632
aI25890
aI26019
aI26671
aI26672
aI26673
aI26799
aI26800
aI26801
aI26930
aI26931
aI27058
aI27059
aI27444
aI27573
aI27702
aI27830
aI28089
aI28090
aa(lp3
I22197
aI22323
aI22324
aI22827
aI22964
aI23080
aI23207
aI23334
aI23461
aI23586
aI23969
aI24478
aI24480
aI24608
aI24863
aI24990
aI24991
aI25375
aI25502
aI25891
aI26018
aI26282
aI26283
aI26543
aI26544
aI26670
aI26802
aI27187
aI27316
aI27445
aI27572
aI27701
aa(lp4
I11209
aI11589
aI11841
aI21584
aI21821
aI22699
aI22835
aI22952
aI22953
aI23462
aI23587
aI23715
aI23842
aI23967
aI24094
aI24097
aI24222
aI24606
aI24734
aI24736
aI24862
aI24864
aI24992
aI25118
aI25119
aI25246
aI25247
aI25374
aI25376
aI25630
aI25760
aI25889
aI26410
aI26411
aI26542
aI26674
aI26798
aI26803
aI26929
aI27186
aI27574
aI27829
aI27961
aI28091
aI28218
aI28219
aa(lp5
I7342
aI9287
aI10186
aI10316
aI10700
aI10828
aI11208
aI11461
aI11462
aI11590
aI11839
aI21712
aI21820
aI21949
aI22196
aI22325
aI22700
aI22826
aI22828
aI22954
aI22963
aI23079
aI23081
aI23841
aI23843
aI23966
aI24225
aI24350
aI25120
aI25248
aI25759
aI26017
aI26545
aI26675
aI26927
aI26928
aI27057
aI27315
aI27317
aI27828
aa(lp6
I6705
aI6833
aI6834
aI7087
aI7214
aI7215
aI7343
aI7723
aI7724
aI9415
aI9672
aI9673
aI9674
aI9800
aI9801
aI10314
aI10315
aI10443
aI10444
aI10571
aI10572
aI10827
aI10954
aI10955
aI11207
aI11333
aI11334
aI11335
aI11588
aI11713
aI11840
aI21583
aI21711
aI21948
aI22068
aI22070
aI22195
aI22450
aI22571
aI22698
aI23093
aI23204
aI23205
aI23206
aI23588
aI23713
aI24353
aI25761
aI26281
aI26412
aI26926
aI27188
aI27443
aI27700
aI27831
aI27962
aa(lp7
I5464
aI5465
aI5593
aI5594
aI5721
aI5722
aI5849
aI5977
aI6105
aI6232
aI6233
aI6361
aI6362
aI6448
aI6449
aI6489
aI6576
aI6577
aI6616
aI6617
aI6706
aI6726
aI6960
aI6961
aI6962
aI7086
aI7088
aI7216
aI7341
aI7725
aI8363
aI8364
aI8493
aI8494
aI8621
aI8622
aI8896
aI8897
aI8898
aI9024
aI9025
aI9026
aI9157
aI9158
aI9159
aI9286
aI9543
aI9545
aI9802
aI9928
aI9929
aI9930
aI10056
aI10057
aI10058
aI10184
aI10185
aI10187
aI10188
aI10313
aI10317
aI10442
aI10445
aI10573
aI10699
aI10956
aI11081
aI11082
aI11210
aI11336
aI11337
aI11463
aI11712
aI11714
aI11842
aI21456
aI21693
aI21819
aI21942
aI21943
aI21947
aI22067
aI22071
aI22198
aI22570
aI22578
aI23092
aI23208
aI23459
aI23585
aI24481
aI24609
aI24988
aI25117
aI26149
aI26409
aI27185
aI27314
aI27703
aI27832
aI27958
aI27960
aI28217
aa(lp8
I5206
aI5209
aI5334
aI5466
aI5592
aI5720
aI5723
aI5848
aI5850
aI5851
aI5976
aI5978
aI6104
aI6234
aI6318
aI6320
aI6360
aI6488
aI6598
aI6599
aI6615
aI6727
aI6728
aI6832
aI6853
aI6854
aI7089
aI7213
aI7344
aI7469
aI7596
aI7597
aI7722
aI7850
aI7851
aI7978
aI8009
aI8104
aI8105
aI8106
aI8234
aI8362
aI8365
aI8366
aI8492
aI8620
aI8623
aI8759
aI8760
aI8888
aI8889
aI8900
aI9027
aI9028
aI9414
aI9544
aI9546
aI10312
aI10440
aI10441
aI10698
aI10701
aI10826
aI10829
aI11080
aI11083
aI11586
aI11587
aI11711
aI11715
aI11838
aI11843
aI21446
aI21455
aI21457
aI21565
aI21571
aI21585
aI21691
aI21692
aI21694
aI21695
aI21696
aI21697
aI21699
aI21713
aI21814
aI21822
aI21939
aI21941
aI22199
aI22322
aI22453
aI22572
aI22837
aI22951
aI22955
aI22965
aI23078
aI23091
aI23094
aI23095
aI23209
aI23221
aI23223
aI23331
aI23335
aI23356
aI23458
aI23463
aI23584
aI23589
aI23590
aI23711
aI23838
aI23839
aI23840
aI24605
aI24733
aI24737
aI24860
aI24861
aI24989
aI25116
aI25245
aI25277
aI25278
aI25372
aI25373
aI25629
aI25633
aI25758
aI26147
aI26148
aI26541
aI26546
aI26797
aI27055
aI27056
aI27441
aI27442
aI27446
aI27704
aI27959
aI28088
aa(lp9
I1
aI51
aI129
aI190
aI522
aI802
aI819
aI1370
aI2207
aI2793
aI3047
aI3561
aI3729
aI3790
aI3792
aI4246
aI4681
aI4685
aI4686
aI4811
aI4821
aI4950
aI4951
aI4955
aI5077
aI5078
aI5082
aI5197
aI5205
aI5207
aI5208
aI5324
aI5333
aI5335
aI5336
aI5337
aI5338
aI5389
aI5390
aI5463
aI5467
aI5595
aI5979
aI5980
aI5981
aI5989
aI6106
aI6107
aI6190
aI6191
aI6235
aI6319
aI6321
aI6368
aI6447
aI6450
aI6487
aI6490
aI6491
aI6495
aI6496
aI6518
aI6575
aI6578
aI6600
aI6601
aI6605
aI6606
aI6611
aI6618
aI6619
aI6704
aI6724
aI6725
aI6729
aI6730
aI6736
aI6741
aI6742
aI6744
aI6746
aI6748
aI6841
aI6842
aI6846
aI6847
aI6848
aI6851
aI6855
aI6856
aI6857
aI6863
aI6874
aI6959
aI6969
aI6970
aI6974
aI6975
aI6976
aI6977
aI6996
aI7002
aI7085
aI7090
aI7102
aI7103
aI7115
aI7117
aI7118
aI7126
aI7136
aI7217
aI7228
aI7233
aI7235
aI7242
aI7245
aI7254
aI7256
aI7260
aI7345
aI7359
aI7362
aI7370
aI7379
aI7381
aI7382
aI7384
aI7387
aI7388
aI7391
aI7468
aI7470
aI7492
aI7498
aI7501
aI7502
aI7509
aI7516
aI7595
aI7598
aI7599
aI7618
aI7638
aI7639
aI7684
aI7852
aI7869
aI7870
aI7892
aI7977
aI7979
aI7980
aI8003
aI8005
aI8007
aI8025
aI8030
aI8031
aI8107
aI8108
aI8117
aI8132
aI8133
aI8146
aI8147
aI8148
aI8233
aI8235
aI8236
aI8274
aI8275
aI8367
aI8399
aI8400
aI8401
aI8402
aI8491
aI8509
aI8515
aI8516
aI8517
aI8528
aI8530
aI8531
aI8624
aI8629
aI8634
aI8647
aI8648
aI8649
aI8650
aI8656
aI8751
aI8752
aI8758
aI8761
aI8767
aI8768
aI8769
aI8770
aI8777
aI8781
aI8887
aI8890
aI8895
aI8899
aI8903
aI8905
aI8916
aI8939
aI9016
aI9023
aI9031
aI9033
aI9154
aI9155
aI9156
aI9161
aI9162
aI9285
aI9288
aI9289
aI9292
aI9293
aI9295
aI9325
aI9413
aI9416
aI9418
aI9421
aI9550
aI9675
aI9676
aI9678
aI9679
aI9803
aI9805
aI9806
aI9808
aI9809
aI9931
aI10059
aI10060
aI10061
aI10190
aI10325
aI10446
aI10570
aI10702
aI10952
aI10953
aI10960
aI10961
aI10962
aI11079
aI11084
aI11087
aI11090
aI11092
aI11250
aI11332
aI11338
aI11343
aI11348
aI11382
aI11460
aI11464
aI11465
aI11468
aI11470
aI11476
aI11591
aI11592
aI11598
aI11710
aI11717
aI11855
aI11860
aI11966
aI11967
aI11968
aI11969
aI11977
aI11979
aI12100
aI12101
aI12107
aI12108
aI12216
aI12224
aI12225
aI12226
aI12229
aI12353
aI12355
aI12361
aI12364
aI12368
aI12474
aI12492
aI12613
aI12873
aI12874
aI13141
aI13269
aI13273
aI13642
aI14251
aI16420
aI16534
aI16540
aI16787
aI16800
aI16828
aI17207
aI17208
aI17700
aI18673
aI18698
aI18734
aI18825
aI18849
aI18850
aI18861
aI19239
aI19368
aI19975
aI20228
aI20563
aI21097
aI21131
aI21146
aI21298
aI21314
aI21393
aI21426
aI21430
aI21440
aI21442
aI21443
aI21444
aI21445
aI21505
aI21563
aI21566
aI21567
aI21568
aI21570
aI21572
aI21573
aI21574
aI21582
aI21683
aI21689
aI21690
aI21698
aI21700
aI21701
aI21702
aI21710
aI21805
aI21812
aI21816
aI21817
aI21818
aI21938
aI21940
aI21944
aI21945
aI21946
aI21950
aI22054
aI22062
aI22064
aI22065
aI22072
aI22165
aI22182
aI22190
aI22193
aI22194
aI22311
aI22312
aI22319
aI22439
aI22449
aI22564
aI22566
aI22567
aI22581
aI22697
aI22706
aI22709
aI22795
aI22821
aI22823
aI22824
aI22825
aI22922
aI22940
aI22943
aI22944
aI22950
aI22956
aI23076
aI23077
aI23082
aI23096
aI23203
aI23222
aI23329
aI23330
aI23348
aI23349
aI23350
aI23355
aI23582
aI23583
aI23710
aI23712
aI23810
aI23812
aI23832
aI23837
aI23964
aI23965
aI24093
aI24221
aI24331
aI24346
aI24348
aI24458
aI24476
aI24477
aI24604
aI24714
aI24732
aI24859
aI24865
aI24987
aI24993
aI25106
aI25112
aI25115
aI25150
aI25234
aI25237
aI25244
aI25366
aI25370
aI25371
aI25405
aI25406
aI25498
aI25499
aI25500
aI25501
aI25505
aI25583
aI25613
aI25627
aI25755
aI25756
aI25757
aI25833
aI25857
aI25885
aI25886
aI25887
aI25888
aI25986
aI26007
aI26011
aI26014
aI26015
aI26016
aI26145
aI26146
aI26150
aI26151
aI26153
aI26154
aI26265
aI26284
aI26405
aI26406
aI26502
aI26509
aI26531
aI26534
aI26535
aI26536
aI26537
aI26540
aI26547
aI26662
aI26664
aI26665
aI26666
aI26669
aI26790
aI26791
aI26793
aI26795
aI26906
aI26923
aI26924
aI26925
aI27043
aI27053
aI27054
aI27161
aI27167
aI27169
aI27182
aI27183
aI27184
aI27189
aI27272
aI27274
aI27302
aI27303
aI27307
aI27313
aI27318
aI27421
aI27422
aI27432
aI27435
aI27440
aI27522
aI27524
aI27564
aI27565
aI27566
aI27570
aI27571
aI27575
aI27692
aI27699
aI27820
aI27825
aI27827
aI27952
aI27957
aI27963
aI28051
aI28085
aI28087
aI28183
aI28213
aI28216
aI28220
aI28291
aI28322
aI28591
aI30314
aI30573
aI31101
aa.