(lp1
(lp2
I5309
aI5437
aI5438
aI5565
aI5566
aI5693
aI5694
aI5821
aI5822
aI5949
aI5950
aI6077
aI6078
aI6204
aI6205
aI6332
aI6333
aI7313
aI7441
aI9131
aI9132
aI9517
aI9518
aI9645
aI9646
aI9773
aI9774
aI9901
aI9902
aI10029
aI10030
aI10157
aI10158
aI10285
aI10286
aI10413
aI10414
aI10541
aI10542
aI10669
aI10670
aI10796
aI10923
aI11177
aa(lp3
I5310
aI6076
aI6206
aI6334
aI6930
aI6931
aI7058
aI7312
aI7440
aI7694
aI7821
aI7822
aI7949
aI9259
aI9260
aI10924
aI11050
aI11176
aI11555
aI21536
aa(lp4
I5181
aI5308
aI6803
aI7059
aI7567
aI7693
aI7695
aI7950
aI9388
aI10922
aI11051
aI11304
aI11554
aI21537
aI21664
aI21913
aa(lp5
I5182
aI5436
aI5564
aI5567
aI5692
aI5820
aI5948
aI6548
aI6676
aI6802
aI6804
aI7060
aI7184
aI7185
aI7565
aI7566
aI7823
aI8079
aI9130
aI9389
aI9903
aI10031
aI10159
aI10668
aI10795
aI10797
aI11303
aI11305
aI21300
aI21301
aI21665
aI21786
aI21912
aI22040
aI22041
aI24195
aI24323
aI25863
aa(lp6
I5050
aI5051
aI5439
aI5695
aI5823
aI6420
aI6443
aI6460
aI6461
aI6571
aI6678
aI6932
aI7186
aI7820
aI7948
aI7951
aI8078
aI8208
aI8209
aI8336
aI8337
aI9003
aI9004
aI9258
aI9261
aI9519
aI9647
aI9775
aI10287
aI10415
aI10540
aI11052
aI11175
aI11428
aI11432
aI11556
aI11682
aI11683
aI21408
aI21409
aI21428
aI21538
aI21787
aI22167
aI22168
aI22295
aI22923
aI23811
aI23939
aI24067
aI25219
aI25347
aI27415
aI27416
aI27543
aI27544
aI27803
aa(lp7
I4921
aI4922
aI5049
aI5052
aI5180
aI5951
aI6162
aI6163
aI6166
aI6290
aI6291
aI6293
aI6294
aI6419
aI6421
aI6422
aI6442
aI6444
aI6445
aI6547
aI6549
aI6550
aI6570
aI6572
aI6573
aI6675
aI6677
aI6679
aI7314
aI7564
aI7692
aI8077
aI8467
aI8741
aI8742
aI8743
aI8869
aI8870
aI8871
aI8872
aI9133
aI9387
aI9390
aI10156
aI10284
aI10412
aI10543
aI10671
aI11048
aI11049
aI11178
aI11426
aI11427
aI11433
aI11684
aI21299
aI21410
aI21427
aI21429
aI21666
aI21784
aI21785
aI21788
aI22415
aI22416
aI22423
aI22543
aI22668
aI22669
aI22670
aI22671
aI22795
aI22808
aI23049
aI23050
aI23304
aI23558
aI23684
aI23685
aI24451
aI24579
aI24707
aI24834
aI25091
aI25475
aI25606
aI25735
aI25864
aI26127
aI26255
aI26256
aI26257
aI27028
aI27029
aI27286
aa(lp8
I4923
aI5053
aI5054
aI5177
aI5179
aI5183
aI5311
aI6035
aI6079
aI6164
aI6165
aI6292
aI6418
aI6441
aI6446
aI6459
aI6546
aI6565
aI6568
aI6569
aI6674
aI6691
aI6692
aI6700
aI6805
aI6806
aI7188
aI7442
aI7568
aI7569
aI8080
aI8207
aI8210
aI8211
aI8335
aI8338
aI8339
aI8465
aI8466
aI8468
aI8615
aI8732
aI8744
aI8873
aI9002
aI9005
aI9516
aI9644
aI9772
aI9900
aI10028
aI10794
aI10798
aI11300
aI11429
aI11430
aI11431
aI11434
aI18657
aI21149
aI21172
aI21285
aI21286
aI21287
aI21288
aI21289
aI21290
aI21411
aI21412
aI21418
aI21535
aI21655
aI21658
aI21663
aI21791
aI21911
aI22039
aI22169
aI22292
aI22296
aI22413
aI22414
aI22417
aI22424
aI22540
aI22541
aI22542
aI22552
aI22680
aI22796
aI22921
aI22922
aI22937
aI23048
aI23176
aI23303
aI23430
aI23431
aI23556
aI23557
aI23683
aI23686
aI23812
aI23813
aI24066
aI24322
aI24450
aI24578
aI24705
aI24706
aI24835
aI24961
aI24962
aI24963
aI25090
aI25472
aI25473
aI25476
aI25477
aI25604
aI25607
aI25734
aI25862
aI25993
aI26128
aI26387
aI26513
aI26515
aI26771
aI26899
aI26900
aI27026
aI27156
aI27157
aI27158
aI27285
aI27412
aI27413
aI27414
aI27542
aI27671
aI27672
aI27800
aI27802
aI27930
aI27931
aI27932
aI28060
aI28061
aa(lp9
I709
aI4919
aI4920
aI4924
aI4925
aI4926
aI5047
aI5048
aI5055
aI5178
aI5312
aI5696
aI6034
aI6036
aI6203
aI6276
aI6315
aI6316
aI6331
aI6440
aI6447
aI6448
aI6449
aI6453
aI6462
aI6551
aI6559
aI6563
aI6564
aI6566
aI6567
aI6583
aI6690
aI6693
aI6696
aI6697
aI6698
aI6699
aI6701
aI6807
aI6820
aI7057
aI7183
aI7187
aI7193
aI7311
aI7439
aI7696
aI8076
aI8212
aI8340
aI8464
aI8603
aI8604
aI8613
aI8614
aI8733
aI8734
aI8745
aI8874
aI8999
aI9001
aI9262
aI9386
aI9776
aI10160
aI10288
aI10460
aI11053
aI11301
aI11302
aI11306
aI11312
aI11558
aI11686
aI12425
aI12701
aI13412
aI14913
aI16071
aI16394
aI16410
aI16411
aI16427
aI16428
aI16435
aI16444
aI16456
aI16461
aI16462
aI16464
aI16468
aI16485
aI16497
aI16499
aI16566
aI16572
aI16584
aI16589
aI16592
aI16598
aI16604
aI16609
aI16614
aI16616
aI16617
aI16634
aI16692
aI16695
aI16733
aI16740
aI16742
aI16756
aI16757
aI16762
aI16763
aI16777
aI16778
aI16779
aI16783
aI16805
aI16861
aI16871
aI16882
aI16884
aI16921
aI16922
aI16928
aI16937
aI16983
aI16984
aI16985
aI16986
aI17006
aI17011
aI17014
aI17026
aI17049
aI17114
aI17141
aI17142
aI17149
aI17150
aI17162
aI17177
aI17241
aI17253
aI17260
aI17270
aI17271
aI17289
aI17296
aI17298
aI17351
aI17357
aI17370
aI17371
aI17372
aI17373
aI17384
aI17388
aI17389
aI17390
aI17396
aI17398
aI17400
aI17408
aI17417
aI17441
aI17473
aI17488
aI17520
aI17529
aI17530
aI17536
aI17545
aI17546
aI17575
aI17609
aI17616
aI17658
aI17672
aI17674
aI17690
aI17707
aI17715
aI17724
aI17750
aI17757
aI17762
aI17763
aI17782
aI17800
aI17845
aI17847
aI17911
aI17920
aI17923
aI17925
aI17926
aI17960
aI17961
aI17977
aI17980
aI17982
aI17993
aI18000
aI18006
aI18019
aI18020
aI18022
aI18029
aI18030
aI18031
aI18032
aI18040
aI18042
aI18047
aI18054
aI18055
aI18056
aI18060
aI18098
aI18100
aI18127
aI18132
aI18134
aI18178
aI18180
aI18184
aI18202
aI18221
aI18229
aI18247
aI18248
aI18260
aI18262
aI18279
aI18286
aI18294
aI18303
aI18311
aI18314
aI18315
aI18344
aI18381
aI18388
aI18407
aI18408
aI18410
aI18411
aI18415
aI18421
aI18422
aI18464
aI18488
aI18516
aI18522
aI18532
aI18535
aI18545
aI18547
aI18566
aI18567
aI18616
aI18646
aI18650
aI18653
aI18661
aI18663
aI18666
aI18667
aI18673
aI18676
aI18698
aI18699
aI18701
aI18702
aI18750
aI18752
aI18757
aI18777
aI18778
aI18781
aI18793
aI18800
aI18802
aI18807
aI18826
aI18908
aI18909
aI18929
aI18930
aI18989
aI18999
aI19000
aI19047
aI19065
aI19066
aI19079
aI19092
aI19093
aI19102
aI19163
aI19166
aI19167
aI19168
aI19177
aI19181
aI19190
aI19194
aI19199
aI19226
aI19237
aI19254
aI19255
aI19285
aI19289
aI19292
aI19308
aI19310
aI19338
aI19373
aI19383
aI19384
aI19413
aI19417
aI19420
aI19422
aI19434
aI19435
aI19436
aI19437
aI19454
aI19474
aI19475
aI19500
aI19501
aI19509
aI19522
aI19540
aI19554
aI19570
aI19574
aI19596
aI19603
aI19604
aI19605
aI19628
aI19629
aI19631
aI19633
aI19634
aI19636
aI19643
aI19672
aI19682
aI19687
aI19695
aI19712
aI19717
aI19725
aI19727
aI19732
aI19734
aI19738
aI19746
aI19747
aI19761
aI19806
aI19819
aI19829
aI19831
aI19833
aI19856
aI19865
aI19867
aI19873
aI19896
aI19901
aI19948
aI19950
aI19952
aI19957
aI19969
aI19988
aI19990
aI19991
aI20011
aI20028
aI20057
aI20080
aI20082
aI20084
aI20096
aI20099
aI20118
aI20121
aI20123
aI20131
aI20143
aI20144
aI20145
aI20146
aI20147
aI20148
aI20151
aI20211
aI20213
aI20218
aI20237
aI20238
aI20249
aI20254
aI20255
aI20258
aI20261
aI20267
aI20268
aI20273
aI20274
aI20275
aI20317
aI20320
aI20323
aI20326
aI20338
aI20340
aI20341
aI20344
aI20345
aI20346
aI20353
aI20364
aI20369
aI20372
aI20373
aI20374
aI20378
aI20401
aI20451
aI20478
aI20479
aI20501
aI20502
aI20541
aI20546
aI20547
aI20576
aI20592
aI20597
aI20603
aI20604
aI20605
aI20628
aI20630
aI20631
aI20633
aI20726
aI20755
aI20757
aI20761
aI20800
aI20834
aI20843
aI20846
aI20862
aI20864
aI20884
aI20886
aI20889
aI20905
aI20909
aI20982
aI21004
aI21009
aI21012
aI21013
aI21014
aI21015
aI21017
aI21025
aI21028
aI21030
aI21031
aI21033
aI21034
aI21061
aI21097
aI21100
aI21101
aI21118
aI21119
aI21121
aI21126
aI21135
aI21138
aI21140
aI21142
aI21146
aI21147
aI21150
aI21151
aI21152
aI21157
aI21158
aI21159
aI21160
aI21162
aI21169
aI21170
aI21171
aI21173
aI21209
aI21211
aI21217
aI21227
aI21230
aI21231
aI21237
aI21238
aI21239
aI21254
aI21265
aI21266
aI21267
aI21268
aI21273
aI21274
aI21276
aI21277
aI21278
aI21281
aI21282
aI21283
aI21284
aI21291
aI21321
aI21347
aI21348
aI21350
aI21368
aI21369
aI21388
aI21405
aI21407
aI21413
aI21414
aI21415
aI21416
aI21442
aI21449
aI21472
aI21478
aI21497
aI21514
aI21516
aI21527
aI21530
aI21531
aI21532
aI21534
aI21592
aI21600
aI21601
aI21615
aI21621
aI21644
aI21653
aI21660
aI21661
aI21662
aI21703
aI21724
aI21742
aI21743
aI21749
aI21756
aI21757
aI21758
aI21765
aI21766
aI21772
aI21773
aI21780
aI21783
aI21789
aI21790
aI21792
aI21793
aI21842
aI21854
aI21873
aI21908
aI21909
aI21910
aI21914
aI21979
aI21985
aI21987
aI21992
aI22000
aI22002
aI22005
aI22010
aI22016
aI22022
aI22024
aI22034
aI22035
aI22042
aI22116
aI22118
aI22121
aI22162
aI22166
aI22252
aI22272
aI22274
aI22283
aI22286
aI22287
aI22288
aI22294
aI22342
aI22347
aI22381
aI22385
aI22410
aI22412
aI22468
aI22469
aI22474
aI22476
aI22477
aI22478
aI22502
aI22539
aI22544
aI22545
aI22551
aI22553
aI22600
aI22609
aI22672
aI22673
aI22681
aI22727
aI22789
aI22793
aI22794
aI22797
aI22798
aI22807
aI22809
aI22861
aI22893
aI22916
aI22917
aI23000
aI23047
aI23051
aI23066
aI23116
aI23123
aI23131
aI23132
aI23134
aI23142
aI23146
aI23151
aI23152
aI23170
aI23171
aI23174
aI23175
aI23177
aI23193
aI23195
aI23261
aI23265
aI23280
aI23296
aI23302
aI23305
aI23319
aI23338
aI23342
aI23367
aI23388
aI23396
aI23397
aI23403
aI23428
aI23429
aI23432
aI23521
aI23554
aI23555
aI23633
aI23650
aI23660
aI23676
aI23677
aI23678
aI23680
aI23681
aI23682
aI23704
aI23720
aI23767
aI23768
aI23769
aI23773
aI23778
aI23783
aI23789
aI23792
aI23794
aI23804
aI23805
aI23808
aI23829
aI23839
aI23882
aI23899
aI23902
aI23911
aI23917
aI23924
aI23931
aI23932
aI23936
aI23967
aI23970
aI23979
aI24024
aI24036
aI24043
aI24045
aI24048
aI24050
aI24059
aI24133
aI24136
aI24152
aI24158
aI24167
aI24175
aI24178
aI24191
aI24192
aI24193
aI24194
aI24217
aI24297
aI24300
aI24320
aI24321
aI24349
aI24388
aI24401
aI24404
aI24419
aI24421
aI24448
aI24475
aI24509
aI24510
aI24529
aI24531
aI24534
aI24602
aI24603
aI24662
aI24668
aI24669
aI24691
aI24704
aI24731
aI24736
aI24739
aI24760
aI24782
aI24796
aI24797
aI24799
aI24805
aI24807
aI24827
aI24829
aI24833
aI24863
aI24864
aI24895
aI24905
aI24921
aI24923
aI24926
aI24940
aI24952
aI25013
aI25021
aI25051
aI25055
aI25089
aI25121
aI25122
aI25123
aI25132
aI25142
aI25145
aI25183
aI25185
aI25201
aI25203
aI25218
aI25306
aI25307
aI25344
aI25345
aI25346
aI25462
aI25463
aI25464
aI25466
aI25474
aI25478
aI25541
aI25554
aI25559
aI25572
aI25590
aI25591
aI25594
aI25595
aI25596
aI25605
aI25669
aI25716
aI25722
aI25725
aI25733
aI25736
aI25797
aI25808
aI25810
aI25839
aI25853
aI25856
aI25859
aI25962
aI25978
aI25986
aI25989
aI25992
aI25994
aI25995
aI25996
aI25997
aI25998
aI26067
aI26117
aI26121
aI26122
aI26123
aI26125
aI26126
aI26193
aI26196
aI26205
aI26221
aI26223
aI26238
aI26244
aI26250
aI26252
aI26328
aI26331
aI26332
aI26339
aI26340
aI26348
aI26362
aI26371
aI26372
aI26376
aI26377
aI26378
aI26381
aI26382
aI26383
aI26386
aI26445
aI26470
aI26480
aI26503
aI26504
aI26505
aI26510
aI26511
aI26512
aI26514
aI26577
aI26600
aI26601
aI26605
aI26606
aI26617
aI26625
aI26638
aI26641
aI26642
aI26643
aI26684
aI26728
aI26729
aI26730
aI26741
aI26763
aI26769
aI26770
aI26898
aI26965
aI26978
aI26982
aI26983
aI26984
aI26988
aI27003
aI27004
aI27016
aI27027
aI27030
aI27113
aI27138
aI27155
aI27200
aI27255
aI27264
aI27265
aI27270
aI27276
aI27277
aI27278
aI27279
aI27283
aI27284
aI27287
aI27322
aI27367
aI27372
aI27383
aI27386
aI27400
aI27401
aI27405
aI27407
aI27411
aI27417
aI27482
aI27492
aI27500
aI27503
aI27526
aI27527
aI27529
aI27532
aI27534
aI27535
aI27540
aI27545
aI27588
aI27606
aI27615
aI27616
aI27624
aI27630
aI27636
aI27661
aI27668
aI27673
aI27674
aI27675
aI27711
aI27712
aI27789
aI27801
aI27804
aI27827
aI27839
aI27919
aI27929
aI27933
aI27975
aI28009
aI28010
aI28011
aI28062
aI28096
aI28155
aI28156
aI28160
aI28177
aI28184
aI28228
aI28254
aI28278
aI28283
aI28296
aI28309
aI28345
aI28371
aI28391
aI28416
aI28455
aI28459
aI28472
aI28473
aI28500
aI28519
aI28520
aI28650
aI28665
aI28682
aI28688
aI28718
aI28759
aI28779
aI28792
aI28803
aI28846
aI28880
aI28901
aI28918
aI28919
aI28931
aI28934
aI28989
aI29059
aI29066
aI29068
aI29117
aI29172
aI29176
aI29177
aI29219
aI29272
aI29284
aI29323
aI29328
aI29432
aI29443
aI29537
aI29541
aI29555
aI29564
aI29574
aI29715
aI29853
aI29912
aI29955
aI29964
aI29976
aI30033
aI30038
aI30040
aI30199
aI30202
aI30205
aI30209
aI30215
aI30237
aI30305
aI30312
aI30330
aI30341
aI30344
aI30368
aI30391
aI30419
aI30459
aI30463
aI30482
aI30538
aI30557
aI30575
aI30583
aI30609
aI30655
aI30694
aI30695
aI30704
aI30712
aI30718
aI30722
aI30833
aI30839
aI30841
aI30847
aI30868
aI30874
aI30936
aI30947
aI30964
aI30967
aI30975
aI31005
aI31077
aI31089
aI31097
aI31113
aI31166
aI31171
aI31175
aI31216
aI31225
aI31228
aI31289
aI31350
aI31369
aI31416
aI31419
aI31461
aI31477
aI31547
aI31569
aI31591
aI31606
aI31613
aI31617
aI31622
aI31626
aI31637
aI31645
aI31691
aI31705
aI31715
aI31720
aI31798
aI31807
aI31810
aI31811
aI31815
aI31826
aI31827
aI31831
aI31845
aI31849
aI31870
aI31876
aI31884
aI31893
aI31919
aI31920
aI31936
aI31942
aI31943
aI31954
aI31955
aI31990
aI31994
aI31998
aI32001
aI32053
aI32070
aI32133
aI32164
aI32195
aI32196
aI32206
aI32208
aI32209
aI32233
aI32293
aI32313
aI32319
aI32490
aI32496
aI32576
aI32600
aI32624
aI32667
aI32697
aI32725
aI32765
aa.