(lp1
(lp2
a(lp3
a(lp4
a(lp5
a(lp6
a(lp7
a(lp8
I7472
aI10994
aI20552
aa(lp9
I0
aI1
aI54
aI128
aI179
aI191
aI199
aI301
aI384
aI389
aI437
aI663
aI764
aI852
aI855
aI901
aI1087
aI1164
aI1224
aI1226
aI1227
aI1239
aI1257
aI1284
aI1291
aI1330
aI1367
aI1480
aI1485
aI1557
aI1558
aI1583
aI1731
aI1798
aI1991
aI2074
aI2104
aI2138
aI2157
aI2181
aI2182
aI2238
aI2456
aI2458
aI2515
aI2634
aI2756
aI2818
aI2867
aI2918
aI2996
aI3027
aI3093
aI3094
aI3118
aI3122
aI3123
aI3293
aI3501
aI3544
aI3553
aI3594
aI3596
aI3612
aI3688
aI3692
aI3733
aI3748
aI3754
aI3781
aI3799
aI3900
aI3934
aI4363
aI4382
aI4394
aI4395
aI4439
aI4494
aI4510
aI4546
aI4559
aI4650
aI4668
aI4675
aI4679
aI4742
aI4758
aI4767
aI4768
aI4777
aI4818
aI4828
aI4864
aI4865
aI5065
aI5195
aI5298
aI5412
aI5463
aI5479
aI5505
aI5531
aI5600
aI5625
aI5708
aI5719
aI5738
aI5739
aI5757
aI5851
aI5939
aI5965
aI6027
aI6080
aI6130
aI6167
aI6215
aI6233
aI6246
aI6319
aI6343
aI6427
aI6432
aI6447
aI6475
aI6502
aI6508
aI6543
aI6574
aI6598
aI6600
aI6604
aI6613
aI6623
aI6630
aI6643
aI6644
aI6646
aI6751
aI6825
aI6845
aI6859
aI6899
aI6976
aI7155
aI7156
aI7325
aI7342
aI7422
aI7431
aI7451
aI7453
aI7454
aI7455
aI7470
aI7471
aI7550
aI7551
aI7589
aI7597
aI7625
aI8040
aI8111
aI8296
aI8366
aI8393
aI8409
aI8478
aI8494
aI8514
aI8568
aI8576
aI8605
aI8642
aI8651
aI8672
aI8676
aI8692
aI8702
aI8900
aI8989
aI9041
aI9045
aI9104
aI9188
aI9277
aI9335
aI9342
aI9351
aI9368
aI9376
aI9463
aI9469
aI9543
aI9648
aI9684
aI9715
aI9851
aI9857
aI9883
aI9918
aI9925
aI9960
aI9961
aI10121
aI10123
aI10146
aI10156
aI10216
aI10229
aI10259
aI10260
aI10265
aI10272
aI10273
aI10274
aI10302
aI10360
aI10365
aI10387
aI10390
aI10397
aI10401
aI10435
aI10475
aI10538
aI10542
aI10571
aI10575
aI10576
aI10582
aI10665
aI10666
aI10704
aI10768
aI10807
aI10814
aI10817
aI10832
aI10836
aI10840
aI10843
aI10874
aI10883
aI10963
aI10986
aI10987
aI11000
aI11081
aI11095
aI11183
aI11222
aI11276
aI11351
aI11359
aI11365
aI11486
aI11487
aI11538
aI11551
aI11563
aI11570
aI11651
aI11699
aI11732
aI12075
aI12084
aI12100
aI12127
aI12160
aI12217
aI12220
aI12266
aI12288
aI12289
aI12300
aI12306
aI12316
aI12343
aI12348
aI12353
aI12377
aI12384
aI12405
aI12433
aI12435
aI12444
aI12445
aI12452
aI12456
aI12486
aI12487
aI12512
aI12562
aI12569
aI12713
aI12723
aI12769
aI12779
aI12801
aI12866
aI12868
aI12896
aI12919
aI12954
aI13002
aI13007
aI13098
aI13139
aI13257
aI13325
aI13338
aI13354
aI13453
aI13456
aI13494
aI13509
aI13520
aI13542
aI13555
aI13578
aI13616
aI13628
aI13696
aI13722
aI13827
aI13898
aI13988
aI14106
aI14114
aI14120
aI14155
aI14170
aI14178
aI14183
aI14196
aI14224
aI14236
aI14348
aI14352
aI14398
aI14480
aI14484
aI14554
aI14607
aI14681
aI14769
aI14808
aI14815
aI14826
aI14858
aI14874
aI14875
aI14885
aI14887
aI14890
aI14910
aI14958
aI15026
aI15044
aI15057
aI15118
aI15141
aI15146
aI15188
aI15192
aI15202
aI15223
aI15224
aI15230
aI15241
aI15246
aI15249
aI15354
aI15356
aI15549
aI15685
aI15757
aI15774
aI15815
aI15832
aI15851
aI15902
aI15990
aI16015
aI16018
aI16019
aI16020
aI16025
aI16041
aI16118
aI16228
aI16271
aI16278
aI16296
aI16319
aI16394
aI16674
aI16703
aI17065
aI17084
aI17205
aI17208
aI17231
aI17307
aI17381
aI17458
aI17673
aI17834
aI17880
aI17973
aI17977
aI17984
aI17985
aI18101
aI18105
aI18120
aI18228
aI18356
aI18579
aI18593
aI18741
aI18762
aI19224
aI19335
aI19347
aI19544
aI19604
aI19669
aI19670
aI19684
aI19729
aI19730
aI19786
aI19796
aI19803
aI19804
aI20025
aI20290
aI20403
aI20416
aI20432
aI20445
aI20509
aI20529
aI20553
aI20570
aI20609
aI20611
aI20616
aI20680
aI20858
aI20865
aI21012
aI21042
aI21260
aI21263
aI21286
aI21292
aI21308
aI21317
aI21333
aI21344
aI21457
aI21472
aI21495
aI21496
aI21633
aI21670
aI21708
aI21723
aI21726
aI21772
aI22035
aI22067
aI22086
aI22169
aI22177
aI22234
aI22242
aI22269
aI22291
aI22304
aI22316
aI22356
aI22368
aI22370
aI22373
aI22381
aI22399
aI22408
aI22417
aI22459
aI22481
aI22497
aI22513
aI22531
aI22549
aI22643
aI22657
aI22740
aI22773
aI22852
aI22865
aI22900
aI23047
aI23052
aI23058
aI23059
aI23093
aI23143
aI23146
aI23185
aI23351
aI23352
aI23358
aI23391
aI23401
aI23402
aI23404
aI23486
aI23616
aI23649
aI23664
aI23724
aI23796
aI23874
aI23879
aI24021
aI24048
aI24054
aI24180
aI24313
aI24385
aI24487
aI24521
aI24571
aI24643
aI24768
aI24771
aI24803
aI24964
aI25039
aI25087
aI25146
aI25176
aI25263
aI25265
aI25303
aI25383
aI25473
aI25505
aI25508
aI25570
aI25594
aI25705
aI25793
aI25835
aI25846
aI25907
aI25919
aI25963
aI25985
aI26035
aI26038
aI26062
aI26074
aI26087
aI26110
aI26120
aI26370
aI26419
aI26480
aI26490
aI26595
aI26641
aI26642
aI26727
aI26802
aI26822
aI26834
aI26933
aI26988
aI27060
aI27114
aI27153
aI27282
aI27403
aI27472
aI27473
aI27521
aI27602
aI27640
aI27770
aI27918
aI27930
aI28010
aI28011
aI28119
aI28120
aI28181
aI28183
aI28193
aI28292
aI28293
aI28347
aI28354
aI28365
aI28391
aI28438
aI28448
aI28552
aI28573
aI28593
aI28637
aI28687
aI28832
aI28916
aI28985
aI28991
aI29036
aI29057
aI29123
aI29138
aI29209
aI29223
aI29227
aI29259
aI29270
aI29316
aI29317
aI29322
aI29323
aI29379
aI29465
aI29467
aI29470
aI29471
aI29473
aI29490
aI29499
aI29597
aI29627
aI29628
aI29679
aI29702
aI29748
aI29797
aI29805
aI29842
aI29852
aI29994
aI30095
aI30112
aI30131
aI30133
aI30143
aI30153
aI30184
aI30223
aI30242
aI30272
aI30278
aI30324
aI30438
aI30453
aI30475
aI30483
aI30487
aI30519
aI30520
aI30601
aI30617
aI30668
aI30674
aI30761
aI30789
aI30903
aI30904
aI30944
aI30997
aI31002
aI31031
aI31032
aI31057
aI31060
aI31073
aI31085
aI31087
aI31101
aI31121
aI31131
aI31150
aI31161
aI31234
aI31280
aI31322
aI31339
aI31417
aI31488
aI31495
aI31496
aI31497
aI31532
aI31620
aI31621
aI31639
aI31649
aI31670
aI31790
aI31881
aI31893
aI31894
aI31915
aI31918
aI31967
aI31983
aI31991
aI32055
aI32248
aI32323
aI32380
aI32381
aI32518
aI32626
aI32640
aI32650
aI32705
aI32706
aI32718
aI32722
aI32723
aI32734
aa.