(lp1
(lp2
I1569
aI5568
aI6081
aI6562
aI6576
aI7199
aI7200
aI7326
aI7452
aI7453
aI7577
aI7580
aI7705
aI7838
aI8356
aI8628
aI8629
aI9908
aI9909
aI10033
aI10415
aI21929
aI21931
aI22178
aI22182
aI22185
aI22435
aI22438
aI22439
aI22566
aI22567
aI22696
aI22819
aI23069
aI23323
aI23839
aI25114
aI25378
aI25379
aI25646
aI25774
aI25892
aI26020
aI26276
aI26277
aI26406
aI26407
aI26408
aI26534
aI26535
aa(lp3
a(lp4
a(lp5
a(lp6
a(lp7
a(lp8
a(lp9
a.