(lp1
(lp2
I23919
aI24553
aI24554
aI24681
aI24682
aI24809
aI24937
aI25065
aI25193
aI25448
aI25576
aI25704
aI25832
aI25960
aI25961
aI26088
aI26089
aI27255
aI27383
aI27384
aa(lp3
I23538
aI23920
aI24555
aI24810
aI24938
aI25066
aI25320
aI25321
aI25449
aI26348
aI26476
aI27127
aI27128
aI27256
aI27511
aI27769
aI27897
aa(lp4
I23539
aI24047
aI24048
aI24173
aI24300
aI24301
aI25192
aI25194
aI25322
aI25577
aI25705
aI25833
aI26217
aI26347
aI26475
aI27512
aI28283
aI28284
aI28415
aI28543
aa(lp5
I23038
aI23039
aI23166
aI23540
aI23665
aI23666
aI24428
aI24683
aI24811
aI25064
aI25450
aI26346
aI26740
aI27641
aI27770
aI27898
aI28026
aI28155
aI28414
aI28542
aa(lp6
I22911
aI23167
aI23285
aI23294
aI23295
aI23422
aI23423
aI23667
aI23792
aI23793
aI23794
aI24046
aI24172
aI24174
aI24426
aI25578
aI26216
aI26218
aI26474
aI26739
aI26867
aI26868
aI27640
aI28025
aI28154
aI28285
aa(lp7
I7801
aI8950
aI22910
aI23165
aI23286
aI23410
aI23411
aI23412
aI23413
aI23537
aI23550
aI23551
aI23668
aI23791
aI23795
aI24425
aI24427
aI24429
aI24936
aI24939
aI25575
aI25703
aI25706
aI25831
aI25834
aI25962
aI26087
aI26477
aI26738
aI26866
aI26999
aI27639
aI27768
aI27896
aI28027
aI28153
aI28156
aI28282
aI28413
aI28541
aa(lp8
I6777
aI7034
aI7035
aI7163
aI7291
aI7292
aI7419
aI7420
aI7546
aI7673
aI7674
aI7800
aI7802
aI7927
aI7928
aI8055
aI8183
aI8436
aI8564
aI8691
aI8692
aI8819
aI8820
aI9078
aI9080
aI22655
aI22783
aI22909
aI23037
aI23157
aI23158
aI23282
aI23414
aI23664
aI23796
aI23918
aI23921
aI24049
aI24299
aI24302
aI24680
aI24808
aI25067
aI25195
aI25319
aI25323
aI25447
aI25451
aI25702
aI25958
aI25959
aI26090
aI26349
aI26604
aI26605
aI26606
aI26607
aI26865
aI26994
aI26995
aI26996
aI27000
aI27129
aI27254
aI27257
aI27382
aI27385
aI27642
aI27767
aI28024
aI28157
aI28281
aI28671
aa(lp9
I1027
aI1157
aI3604
aI3607
aI5184
aI6776
aI6904
aI6906
aI6907
aI6908
aI7036
aI7058
aI7162
aI7164
aI7290
aI7418
aI7421
aI7547
aI7548
aI7549
aI7672
aI7929
aI8054
aI8056
aI8116
aI8181
aI8182
aI8184
aI8191
aI8245
aI8308
aI8309
aI8310
aI8350
aI8380
aI8395
aI8437
aI8438
aI8563
aI8566
aI8635
aI8821
aI8822
aI8823
aI8951
aI8952
aI9079
aI9208
aI9748
aI10315
aI12196
aI12489
aI14245
aI14612
aI14619
aI14973
aI15404
aI15889
aI15940
aI15996
aI16431
aI16559
aI16560
aI16625
aI16638
aI16880
aI17137
aI17577
aI17754
aI17854
aI18125
aI18217
aI18486
aI18514
aI18658
aI18871
aI19045
aI19046
aI19127
aI19187
aI19188
aI19313
aI19335
aI19441
aI19442
aI19443
aI19675
aI19838
aI19923
aI19965
aI20076
aI20522
aI20587
aI20640
aI20647
aI20694
aI20820
aI20975
aI20976
aI21070
aI21079
aI21080
aI21102
aI21110
aI21229
aI21364
aI21415
aI21445
aI21495
aI21559
aI21573
aI21610
aI21622
aI21647
aI21738
aI21813
aI21972
aI21998
aI22001
aI22011
aI22059
aI22084
aI22125
aI22214
aI22230
aI22257
aI22382
aI22391
aI22397
aI22398
aI22399
aI22406
aI22443
aI22505
aI22506
aI22507
aI22515
aI22523
aI22524
aI22525
aI22652
aI22653
aI22765
aI22781
aI22782
aI22887
aI22888
aI22903
aI22906
aI22907
aI23013
aI23016
aI23017
aI23018
aI23019
aI23030
aI23138
aI23139
aI23140
aI23154
aI23155
aI23156
aI23271
aI23284
aI23287
aI23293
aI23396
aI23406
aI23415
aI23421
aI23520
aI23521
aI23533
aI23534
aI23536
aI23549
aI23572
aI23663
aI23678
aI23679
aI23763
aI23764
aI23767
aI23784
aI23790
aI23917
aI24045
aI24101
aI24169
aI24171
aI24259
aI24298
aI24422
aI24424
aI24430
aI24551
aI24552
aI24642
aI24669
aI24679
aI24807
aI24912
aI24932
aI24934
aI24935
aI25052
aI25062
aI25182
aI25183
aI25190
aI25191
aI25318
aI25382
aI25439
aI25446
aI25531
aI25568
aI25574
aI25579
aI25737
aI25815
aI25823
aI25830
aI25863
aI25906
aI25914
aI25941
aI25949
aI25957
aI26034
aI26065
aI26067
aI26068
aI26215
aI26219
aI26343
aI26344
aI26433
aI26434
aI26457
aI26459
aI26463
aI26473
aI26592
aI26598
aI26599
aI26602
aI26603
aI26608
aI26610
aI26668
aI26702
aI26714
aI26726
aI26727
aI26734
aI26735
aI26736
aI26737
aI26823
aI26854
aI26855
aI26861
aI26869
aI26983
aI26985
aI26993
aI26997
aI26998
aI27105
aI27111
aI27114
aI27115
aI27126
aI27143
aI27217
aI27231
aI27340
aI27347
aI27364
aI27365
aI27368
aI27378
aI27404
aI27417
aI27420
aI27464
aI27465
aI27479
aI27497
aI27500
aI27508
aI27509
aI27510
aI27513
aI27590
aI27593
aI27607
aI27621
aI27626
aI27638
aI27720
aI27728
aI27735
aI27736
aI27756
aI27761
aI27766
aI27856
aI27863
aI27864
aI27874
aI27889
aI27894
aI27982
aI28001
aI28004
aI28023
aI28028
aI28115
aI28132
aI28149
aI28152
aI28245
aI28246
aI28248
aI28260
aI28267
aI28276
aI28280
aI28388
aI28409
aI28410
aI28411
aI28412
aI28527
aI28539
aI28540
aI28655
aI28660
aI28662
aI28669
aI28670
aI28763
aI28922
aI28923
aI29023
aI29041
aI29162
aI29163
aI29173
aI29175
aI29275
aI29407
aI29428
aI29539
aI29548
aI29638
aI30131
aI30179
aI30308
aI30319
aI30693
aI30947
aI31349
aI32392
aI32515
aa.