(lp1
(lp2
I24807
aI25062
aI25190
aI25958
aI26086
aI27253
aI27766
aI27894
aa(lp3
I23917
aI24297
aI24551
aI24679
aI24806
aI24934
aI24935
aI25063
aI25318
aI25446
aI25701
aI25829
aI25830
aI26085
aI27125
aI27381
aI27638
aI28411
aa(lp4
I23536
aI23663
aI23916
aI24044
aI24552
aI24678
aI25191
aI25319
aI25447
aI25573
aI25574
aI25702
aI25957
aI25959
aI26087
aI27509
aI27895
aI28024
aI28152
aI28281
aI28412
aa(lp5
I23535
aI24045
aI24169
aI24170
aI24171
aI24298
aI24550
aI24680
aI25445
aI25575
aI25703
aI25831
aI26472
aI27124
aI27126
aI27252
aI27254
aI27380
aI27382
aI27510
aI27767
aI28539
aI28540
aa(lp6
I22654
aI23292
aI23664
aI24299
aI24423
aI24424
aI24808
aI25317
aI26214
aI26215
aI26344
aI26345
aI26473
aI26736
aI26864
aI26996
aI27508
aI28023
aI28280
aI28282
aa(lp7
I22653
aI22782
aI22908
aI22909
aI23035
aI23036
aI23164
aI23291
aI23408
aI23409
aI23419
aI23420
aI23662
aI23789
aI23790
aI23791
aI24043
aI24425
aI25189
aI26213
aI26343
aI26737
aI26863
aI26865
aI26997
aI27379
aI27507
aI27637
aI27639
aI27768
aI27896
aI28022
aI28150
aI28151
aI28153
aI28410
aI28413
aI28538
aI28541
aa(lp8
I6775
aI7289
aI7543
aI7798
aI8179
aI8180
aI8561
aI8689
aI8947
aI8948
aI22525
aI22526
aI22527
aI22781
aI23034
aI23163
aI23283
aI23407
aI23410
aI23534
aI23537
aI23547
aI23548
aI23549
aI23661
aI23678
aI23788
aI23792
aI23915
aI23918
aI24042
aI24046
aI24296
aI24422
aI24805
aI24936
aI25061
aI25572
aI26471
aI26602
aI26735
aI26995
aI26998
aI27123
aI27251
aI27636
aI27764
aI27765
aI28154
aI28279
aa(lp9
I1608
aI3602
aI4264
aI4549
aI6774
aI6901
aI6903
aI6904
aI6905
aI7032
aI7033
aI7160
aI7161
aI7288
aI7319
aI7416
aI7417
aI7418
aI7449
aI7544
aI7545
aI7589
aI7669
aI7670
aI7671
aI7797
aI7924
aI7925
aI7926
aI8052
aI8053
aI8061
aI8177
aI8178
aI8181
aI8306
aI8307
aI8308
aI8436
aI8690
aI8708
aI8818
aI8819
aI8820
aI8950
aI9075
aI9076
aI9077
aI9078
aI9215
aI9342
aI9343
aI9471
aI9606
aI11136
aI11733
aI11905
aI12217
aI12416
aI12552
aI12568
aI12695
aI12739
aI13054
aI13055
aI13180
aI13309
aI14550
aI14603
aI14767
aI15224
aI15502
aI16273
aI16548
aI16738
aI16803
aI16823
aI16851
aI16868
aI16869
aI17255
aI17709
aI17780
aI18035
aI18253
aI18772
aI19131
aI19172
aI19209
aI19251
aI19265
aI19392
aI19704
aI19728
aI19816
aI19955
aI19964
aI19966
aI19996
aI20013
aI20019
aI20027
aI20054
aI20091
aI20095
aI20111
aI20204
aI20221
aI20269
aI20306
aI20308
aI20329
aI20437
aI20457
aI20458
aI20461
aI20462
aI20469
aI20590
aI20712
aI20822
aI20840
aI20841
aI20844
aI20911
aI20942
aI20945
aI20948
aI20970
aI21101
aI21117
aI21207
aI21224
aI21225
aI21283
aI21284
aI21293
aI21323
aI21335
aI21438
aI21481
aI21491
aI21543
aI21576
aI21580
aI21606
aI21619
aI21630
aI21706
aI21707
aI21852
aI21883
aI21993
aI22134
aI22249
aI22277
aI22396
aI22479
aI22501
aI22522
aI22524
aI22637
aI22638
aI22649
aI22655
aI22718
aI22739
aI22761
aI22764
aI22776
aI22885
aI22886
aI22904
aI22905
aI22906
aI22907
aI23023
aI23024
aI23037
aI23141
aI23143
aI23149
aI23150
aI23151
aI23154
aI23155
aI23162
aI23282
aI23284
aI23290
aI23384
aI23389
aI23392
aI23405
aI23411
aI23412
aI23418
aI23442
aI23515
aI23516
aI23519
aI23524
aI23532
aI23550
aI23620
aI23645
aI23654
aI23660
aI23665
aI23677
aI23775
aI23793
aI23804
aI23805
aI23806
aI23896
aI23914
aI23934
aI23977
aI23990
aI24019
aI24021
aI24026
aI24037
aI24038
aI24039
aI24040
aI24041
aI24168
aI24172
aI24195
aI24240
aI24277
aI24280
aI24284
aI24291
aI24294
aI24295
aI24410
aI24426
aI24427
aI24533
aI24535
aI24548
aI24549
aI24674
aI24675
aI24676
aI24794
aI24795
aI24802
aI24803
aI24804
aI24871
aI24913
aI24914
aI24915
aI24917
aI24919
aI24923
aI24932
aI24933
aI25010
aI25040
aI25064
aI25186
aI25187
aI25188
aI25314
aI25315
aI25444
aI25570
aI25571
aI25675
aI25691
aI25699
aI25700
aI25805
aI25814
aI25826
aI26037
aI26071
aI26080
aI26082
aI26083
aI26084
aI26127
aI26132
aI26172
aI26197
aI26200
aI26201
aI26209
aI26211
aI26216
aI26301
aI26325
aI26326
aI26330
aI26335
aI26339
aI26432
aI26458
aI26466
aI26474
aI26591
aI26599
aI26601
aI26603
aI26606
aI26607
aI26608
aI26730
aI26816
aI26853
aI26858
aI26862
aI26866
aI26982
aI26991
aI26992
aI26994
aI27101
aI27107
aI27109
aI27110
aI27113
aI27116
aI27205
aI27233
aI27236
aI27245
aI27246
aI27247
aI27249
aI27250
aI27373
aI27374
aI27375
aI27470
aI27502
aI27506
aI27545
aI27617
aI27630
aI27634
aI27635
aI27640
aI27732
aI27744
aI27754
aI27760
aI27762
aI27763
aI27855
aI27858
aI27871
aI27888
aI27890
aI27891
aI27892
aI27893
aI27991
aI28014
aI28016
aI28019
aI28020
aI28021
aI28077
aI28123
aI28131
aI28147
aI28149
aI28239
aI28259
aI28275
aI28278
aI28372
aI28395
aI28401
aI28403
aI28408
aI28409
aI28500
aI28504
aI28524
aI28530
aI28534
aI28537
aI28625
aI28628
aI28790
aI28842
aI28918
aI29149
aI29298
aI29559
aI29572
aI29591
aI29659
aI29668
aI29669
aI29794
aI29911
aI29921
aI29966
aI30130
aI30189
aI30241
aI30386
aI30492
aI30547
aI30633
aI30766
aI30824
aI30894
aI31018
aI31735
aI31996
aI32277
aI32345
aI32346
aI32627
aa.