(lp1
(lp2
I5594
aI6361
aI6489
aI7086
aI7087
aI7214
aI7342
aI7596
aI8104
aI8105
aI9285
aI9286
aI9287
aI9413
aI9414
aI9415
aI9543
aI9672
aI9673
aI9674
aI9800
aI9801
aI9928
aI9929
aI10056
aI10057
aI10184
aI10185
aI10311
aI10312
aI10313
aI10439
aI10440
aI10441
aI10567
aI10568
aI10569
aI10695
aI10696
aI10697
aI10823
aI10824
aI10825
aI11077
aI11078
aI11205
aI11206
aI11330
aI11331
aI11458
aI11459
aI11709
aI11837
aI21820
aI21821
aI22069
aI22197
aI22323
aI22324
aI22451
aI22452
aI22579
aI22580
aI22707
aI22708
aI22836
aI22964
aI23332
aI23333
aI23460
aI23714
aI23967
aI23968
aI23969
aI24095
aI24096
aI24223
aI24224
aI24351
aI24479
aI24480
aI24607
aI24735
aI24990
aI25503
aI25631
aI25632
aI25760
aI26018
aI26282
aI26410
aI26411
aI26670
aI26671
aI26798
aI26799
aI26926
aI26927
aI26928
aI27054
aI27055
aI27056
aI27183
aI27184
aI27441
aI27570
aI27698
aI27699
aI27827
aI28086
aI28087
aI28088
aa(lp3
I5464
aI6233
aI6360
aI6487
aI6488
aI6705
aI6833
aI7213
aI7215
aI7468
aI7723
aI7724
aI7977
aI9158
aI9802
aI9930
aI10183
aI10952
aI11204
aI11587
aI11710
aI11836
aI21584
aI22195
aI22196
aI22826
aI22827
aI22835
aI22952
aI22953
aI22963
aI23079
aI23080
aI23205
aI23206
aI23207
aI23334
aI23461
aI23586
aI23715
aI23841
aI24222
aI24350
aI24352
aI24478
aI24608
aI24734
aI24863
aI25118
aI25246
aI25375
aI25502
aI25759
aI25889
aI25890
aI26017
aI26019
aI26283
aI26542
aI26672
aI26800
aI27182
aI27313
aI27569
aI27571
aI27826
aI27958
aI28215
aa(lp4
I5465
aI5722
aI5978
aI6105
aI6232
aI6359
aI6576
aI6616
aI6617
aI6704
aI6832
aI6834
aI6960
aI6961
aI7341
aI7343
aI7467
aI7595
aI7849
aI7850
aI7976
aI8233
aI8234
aI8492
aI8493
aI8896
aI8897
aI9024
aI9025
aI9026
aI9157
aI9545
aI9799
aI9927
aI10055
aI10058
aI10186
aI10442
aI10570
aI10950
aI10951
aI11332
aI11460
aI11586
aI11708
aI11838
aI21583
aI21712
aI21948
aI22067
aI22068
aI22699
aI23462
aI23587
aI23713
aI23842
aI23966
aI24094
aI24606
aI24736
aI24862
aI24864
aI24991
aI25374
aI25504
aI25630
aI25891
aI26281
aI26543
aI27697
aI28214
aI28216
aa(lp5
I5466
aI5593
aI5849
aI5850
aI5977
aI6231
aI6234
aI6362
aI6448
aI6577
aI6615
aI6726
aI6959
aI7085
aI7088
aI7597
aI7722
aI7978
aI8106
aI8232
aI8494
aI8622
aI8898
aI9159
aI9542
aI9544
aI9671
aI10314
aI10698
aI10949
aI10953
aI11076
aI11585
aI21456
aI21693
aI21711
aI21819
aI21949
aI22450
aI22571
aI22578
aI22698
aI22700
aI22828
aI22951
aI22954
aI23078
aI23081
aI23092
aI23204
aI23585
aI23843
aI24097
aI24225
aI24992
aI25117
aI25119
aI25247
aI25376
aI26544
aI27185
aI27312
aI27440
aI27442
aI27825
aI27959
aI27960
aa(lp6
I5205
aI5206
aI5333
aI5334
aI5335
aI5336
aI5337
aI5463
aI5592
aI5721
aI5976
aI6104
aI6106
aI6449
aI6490
aI6599
aI6706
aI6727
aI6728
aI6962
aI7216
aI7469
aI7725
aI7848
aI8363
aI8364
aI8491
aI8620
aI8621
aI8889
aI9027
aI9541
aI10826
aI11583
aI21691
aI21692
aI21694
aI21941
aI21942
aI21943
aI21947
aI22070
aI22322
aI22325
aI22570
aI22825
aI22950
aI23093
aI23588
aI23840
aI24353
aI24989
aI25120
aI25758
aI25761
aI26409
aI27311
aI27957
aa(lp7
I5079
aI5204
aI5207
aI5208
aI5209
aI5210
aI5338
aI5595
aI5720
aI5723
aI5848
aI6318
aI6447
aI6575
aI6598
aI6600
aI6703
aI6724
aI6725
aI6853
aI6958
aI7344
aI7466
aI7594
aI7851
aI7852
aI7979
aI8361
aI8362
aI8365
aI8887
aI8888
aI8899
aI9028
aI9156
aI10948
aI11079
aI11202
aI11203
aI11582
aI11584
aI11588
aI11711
aI11712
aI11839
aI21455
aI21457
aI21564
aI21566
aI21585
aI21695
aI21697
aI21940
aI22071
aI22198
aI22572
aI22697
aI22824
aI23077
aI23091
aI23208
aI23221
aI23222
aI23331
aI23335
aI23458
aI23459
aI23712
aI23838
aI23839
aI24481
aI24609
aI24733
aI24861
aI24988
aI25116
aI25244
aI25245
aI25248
aI25373
aI26148
aI26149
aI26412
aI27310
aI27314
aI27438
aI27439
aI27443
aI27828
aI27956
aa(lp8
I5075
aI5076
aI5077
aI5078
aI5082
aI5197
aI5332
aI5851
aI6103
aI6107
aI6319
aI6320
aI6446
aI6597
aI6601
aI6618
aI6729
aI6745
aI6831
aI6846
aI6848
aI6851
aI6852
aI6854
aI6855
aI6856
aI6969
aI6974
aI6975
aI7090
aI7340
aI7470
aI7598
aI7720
aI7721
aI7980
aI8103
aI8360
aI8366
aI8490
aI8495
aI8623
aI8759
aI8760
aI8768
aI8769
aI8900
aI9023
aI9154
aI9155
aI9416
aI9546
aI9803
aI11080
aI11207
aI11333
aI11334
aI11457
aI11580
aI11581
aI11713
aI11835
aI11840
aI21444
aI21445
aI21446
aI21565
aI21567
aI21569
aI21572
aI21573
aI21696
aI21698
aI21700
aI21701
aI21713
aI21822
aI21939
aI21944
aI22066
aI22194
aI22199
aI22568
aI22696
aI22706
aI22955
aI23076
aI23094
aI23095
aI23209
aI23223
aI23329
aI23330
aI23463
aI23584
aI23589
aI23590
aI23711
aI24093
aI24349
aI24477
aI24604
aI24605
aI24732
aI24737
aI24860
aI25243
aI25371
aI25372
aI25501
aI25628
aI25629
aI25633
aI25757
aI25886
aI25887
aI25888
aI26016
aI26146
aI26147
aI26150
aI26538
aI26539
aI26541
aI26669
aI26925
aI27053
aI27315
aI27568
aI27824
aI27954
aI27955
aI28085
aI28217
aa(lp9
I701
aI851
aI2333
aI2362
aI2828
aI4053
aI4207
aI4212
aI4552
aI4553
aI4558
aI4817
aI4948
aI4952
aI5080
aI5081
aI5083
aI5203
aI5212
aI5324
aI5325
aI5339
aI5340
aI5462
aI5467
aI5727
aI5975
aI5979
aI6190
aI6191
aI6192
aI6235
aI6321
aI6492
aI6495
aI6573
aI6574
aI6578
aI6596
aI6602
aI6603
aI6604
aI6606
aI6610
aI6612
aI6613
aI6614
aI6723
aI6730
aI6731
aI6741
aI6742
aI6743
aI6744
aI6746
aI6841
aI6842
aI6847
aI6849
aI6850
aI6860
aI6864
aI6871
aI6872
aI6957
aI6970
aI6976
aI6983
aI6984
aI6988
aI6998
aI6999
aI7089
aI7104
aI7229
aI7233
aI7248
aI7345
aI7364
aI7471
aI7516
aI7518
aI7599
aI7635
aI7637
aI7638
aI7727
aI7750
aI7756
aI7853
aI7975
aI8008
aI8067
aI8107
aI8141
aI8145
aI8146
aI8235
aI8236
aI8266
aI8273
aI8274
aI8367
aI8394
aI8401
aI8402
aI8464
aI8520
aI8521
aI8522
aI8523
aI8524
aI8526
aI8618
aI8619
aI8624
aI8625
aI8632
aI8637
aI8642
aI8643
aI8644
aI8645
aI8649
aI8652
aI8655
aI8658
aI8750
aI8751
aI8752
aI8753
aI8754
aI8756
aI8757
aI8758
aI8761
aI8770
aI8773
aI8775
aI8780
aI8782
aI8785
aI8787
aI8890
aI8895
aI8901
aI8902
aI8903
aI9017
aI9029
aI9030
aI9031
aI9151
aI9152
aI9153
aI9160
aI9161
aI9162
aI9169
aI9288
aI9289
aI9290
aI9317
aI9417
aI9428
aI9429
aI9432
aI9550
aI9675
aI9676
aI9804
aI9931
aI9933
aI10059
aI10060
aI10187
aI10188
aI10315
aI10443
aI10446
aI10451
aI10577
aI10700
aI10822
aI10954
aI10960
aI11081
aI11092
aI11208
aI11209
aI11213
aI11329
aI11347
aI11462
aI11470
aI11592
aI11714
aI11716
aI11720
aI11722
aI11841
aI11847
aI11961
aI11964
aI11965
aI11971
aI11974
aI11977
aI11981
aI11998
aI11999
aI12104
aI12105
aI12215
aI12224
aI12225
aI12230
aI12870
aI13001
aI13042
aI13043
aI15236
aI15497
aI15893
aI16179
aI16385
aI16402
aI16452
aI16459
aI16543
aI16772
aI16816
aI16818
aI16830
aI16909
aI16998
aI17065
aI17368
aI17513
aI17579
aI17626
aI17680
aI17710
aI17752
aI17821
aI18467
aI18584
aI18595
aI18617
aI18712
aI18726
aI18727
aI18860
aI18887
aI18923
aI19078
aI19321
aI19592
aI20101
aI20203
aI20754
aI20802
aI20910
aI21013
aI21052
aI21125
aI21134
aI21178
aI21303
aI21304
aI21315
aI21316
aI21317
aI21383
aI21386
aI21425
aI21428
aI21440
aI21441
aI21442
aI21443
aI21520
aI21563
aI21568
aI21570
aI21571
aI21574
aI21648
aI21679
aI21685
aI21699
aI21710
aI21767
aI21770
aI21813
aI21818
aI21895
aI21935
aI21937
aI21938
aI21945
aI21946
aI21950
aI22065
aI22072
aI22147
aI22182
aI22310
aI22311
aI22316
aI22317
aI22320
aI22397
aI22443
aI22449
aI22453
aI22564
aI22569
aI22581
aI22673
aI22693
aI22709
aI22814
aI22821
aI22823
aI22837
aI22933
aI22948
aI22949
aI22956
aI22965
aI23031
aI23046
aI23066
aI23074
aI23075
aI23082
aI23096
aI23159
aI23198
aI23199
aI23203
aI23220
aI23325
aI23326
aI23348
aI23349
aI23350
aI23356
aI23442
aI23455
aI23456
aI23457
aI23576
aI23580
aI23581
aI23582
aI23583
aI23698
aI23708
aI23709
aI23832
aI23951
aI23958
aI23965
aI24090
aI24092
aI24216
aI24217
aI24221
aI24345
aI24348
aI24466
aI24474
aI24476
aI24853
aI24859
aI24865
aI24987
aI24993
aI25109
aI25115
aI25150
aI25235
aI25239
aI25275
aI25277
aI25278
aI25348
aI25349
aI25370
aI25405
aI25406
aI25479
aI25500
aI25627
aI25744
aI25754
aI25755
aI25756
aI25873
aI25884
aI25885
aI26006
aI26013
aI26014
aI26015
aI26144
aI26145
aI26151
aI26153
aI26247
aI26249
aI26268
aI26280
aI26284
aI26345
aI26375
aI26399
aI26400
aI26401
aI26536
aI26537
aI26540
aI26545
aI26645
aI26665
aI26668
aI26673
aI26773
aI26796
aI26797
aI26801
aI26898
aI26911
aI26915
aI26922
aI26929
aI27036
aI27037
aI27039
aI27047
aI27048
aI27051
aI27052
aI27057
aI27168
aI27169
aI27175
aI27181
aI27186
aI27305
aI27306
aI27421
aI27433
aI27434
aI27562
aI27563
aI27564
aI27567
aI27609
aI27653
aI27666
aI27691
aI27695
aI27696
aI27700
aI27780
aI27794
aI27811
aI27823
aI27829
aI27890
aI27894
aI27951
aI28046
aI28050
aI28081
aI28084
aI28089
aI28115
aI28195
aI28213
aI28316
aI28317
aI28704
aI29797
aI29949
aI30066
aI30197
aI30227
aI30336
aI30439
aI30578
aI30719
aI30827
aI30896
aI31223
aI31558
aI32253
aI32370
aI32576
aI32578
aI32672
aa.