(lp1
(lp2
I22164
aI22165
aI22166
aI22292
aI22293
aI22294
aI22421
aI22422
aI22550
aI22678
aI23555
aI23683
aI23809
aI23810
aI23937
aI23938
aI24065
aI24193
aI24321
aI24449
aI24577
aI25217
aI25345
aI25346
aI25732
aI25733
aI26385
aI26513
aI26514
aI26641
aI26642
aI26769
aI26770
aI26897
aI26898
aI27027
aI27155
aI27284
aI27414
aI27543
aI27544
aI27932
aI27933
aa(lp3
I22549
aI22677
aI22793
aI22794
aI22806
aI22921
aI23175
aI23427
aI23428
aI23429
aI24066
aI24194
aI24322
aI24705
aI24833
aI25089
aI25218
aI25474
aI25604
aI25605
aI26124
aI26125
aI26126
aI26386
aI26899
aI27285
aI27412
aI27415
aI27542
aI27804
aI27805
aa(lp4
I10794
aI11177
aI11303
aI11305
aI21534
aI22039
aI22420
aI22540
aI22541
aI22805
aI23047
aI23048
aI23174
aI23302
aI23556
aI23557
aI24450
aI24578
aI24706
aI24961
aI25473
aI25862
aI26643
aI26771
aI27156
aI27283
aI27413
aI27416
aI27672
aa(lp5
I9644
aI10412
aI10667
aI11049
aI11050
aI11176
aI11302
aI11304
aI11428
aI11429
aI11430
aI11431
aI11432
aI11556
aI11682
aI11683
aI21297
aI21425
aI21426
aI21533
aI21535
aI21661
aI21662
aI21663
aI21784
aI21911
aI22038
aI22542
aI22668
aI22922
aI23176
aI23303
aI23684
aI23685
aI24834
aI24962
aI25090
aI25475
aI25603
aI25860
aI25861
aI26387
aI26515
aI27026
aI27157
aI27540
aI27541
aI27545
aI27670
aI27671
aI27803
aa(lp6
I6546
aI6547
aI6675
aI6929
aI7056
aI7057
aI7311
aI7439
aI9387
aI9515
aI9516
aI9643
aI10028
aI10283
aI10284
aI10539
aI10540
aI10666
aI10668
aI10921
aI10922
aI11051
aI11174
aI11175
aI11178
aI11301
aI11433
aI21298
aI21783
aI21785
aI21909
aI21910
aI21912
aI22036
aI22037
aI22412
aI22413
aI22667
aI22669
aI22670
aI22795
aI23301
aI24832
aI25731
aI25734
aI25859
aI25996
aI26253
aI26254
aI27025
aI27286
aI27673
aI27675
aI27931
aI27934
aI28061
aa(lp7
I5307
aI5435
aI5563
aI5691
aI5819
aI5946
aI5947
aI6075
aI6202
aI6330
aI6331
aI6418
aI6674
aI6928
aI7183
aI8335
aI8738
aI8739
aI9000
aI9001
aI9002
aI9129
aI9386
aI9388
aI9772
aI9899
aI9900
aI10027
aI10155
aI10156
aI10411
aI10793
aI10795
aI11048
aI11052
aI11173
aI11300
aI11306
aI11434
aI11555
aI11557
aI11684
aI21405
aI21407
aI21660
aI21782
aI21908
aI22040
aI22411
aI22414
aI22539
aI22666
aI22807
aI22920
aI23046
aI23049
aI23300
aI23304
aI23426
aI23430
aI23554
aI23682
aI23808
aI23811
aI23936
aI24192
aI24320
aI24448
aI24576
aI24704
aI24960
aI25088
aI25216
aI25606
aI25997
aI26123
aI26252
aI26512
aI27028
aI27154
aI27417
aI27674
aI27676
aI27802
aI28060
aa(lp8
I4918
aI5046
aI5047
aI5048
aI5049
aI5179
aI5306
aI5308
aI5434
aI5562
aI5690
aI5818
aI5948
aI6031
aI6033
aI6074
aI6076
aI6162
aI6163
aI6203
aI6204
aI6290
aI6291
aI6419
aI6441
aI6442
aI6457
aI6458
aI6459
aI6568
aI6569
aI6570
aI6676
aI6801
aI6802
aI6803
aI7055
aI7184
aI7185
aI7565
aI7566
aI7692
aI7820
aI7947
aI7948
aI8076
aI8078
aI8207
aI8209
aI8336
aI8337
aI8463
aI8603
aI8611
aI8612
aI8740
aI8868
aI8870
aI8871
aI8999
aI9128
aI9130
aI9258
aI9259
aI9260
aI9514
aI9642
aI9645
aI9771
aI9773
aI9901
aI10157
aI10285
aI10538
aI10796
aI10920
aI10923
aI10924
aI11047
aI11554
aI11558
aI11686
aI17497
aI21286
aI21287
aI21406
aI21408
aI21409
aI21410
aI21532
aI21781
aI21786
aI22167
aI22295
aI22423
aI22538
aI22548
aI22551
aI22665
aI22676
aI22679
aI22791
aI22792
aI22934
aI22935
aI23173
aI23299
aI23425
aI23681
aI24064
aI25120
aI25344
aI25600
aI25601
aI25728
aI25987
aI25992
aI25995
aI25998
aI26255
aI26256
aI26384
aI26511
aI26640
aI26768
aI27029
aI27153
aI27158
aI27281
aI27411
aI27539
aI27546
aI27668
aI27669
aI27677
aI27801
aI27806
aI28062
aa(lp9
I1
aI2837
aI4789
aI4791
aI4916
aI4919
aI4920
aI4921
aI4922
aI4923
aI5051
aI5052
aI5175
aI5176
aI5177
aI5178
aI5180
aI5309
aI5436
aI5564
aI5692
aI5820
aI5821
aI6032
aI6034
aI6313
aI6314
aI6317
aI6318
aI6329
aI6332
aI6440
aI6443
aI6445
aI6447
aI6448
aI6452
aI6454
aI6548
aI6560
aI6561
aI6562
aI6563
aI6564
aI6565
aI6566
aI6567
aI6571
aI6580
aI6582
aI6583
aI6683
aI6684
aI6688
aI6689
aI6692
aI6696
aI6698
aI6704
aI6800
aI6804
aI6811
aI6817
aI6858
aI7094
aI7438
aI7564
aI7567
aI7693
aI7694
aI7818
aI7819
aI7946
aI8077
aI8205
aI8206
aI8208
aI8334
aI8464
aI8465
aI8467
aI8600
aI8601
aI8602
aI8610
aI8613
aI8730
aI8731
aI8741
aI8742
aI8743
aI8866
aI8867
aI8869
aI8872
aI8997
aI8998
aI9003
aI9257
aI9517
aI9770
aI9898
aI10026
aI10029
aI10154
aI10282
aI10410
aI10413
aI10541
aI10669
aI10792
aI10919
aI11046
aI11426
aI11427
aI11559
aI11681
aI11685
aI11687
aI12512
aI12558
aI13146
aI15932
aI16393
aI16397
aI16398
aI16401
aI16429
aI16431
aI16456
aI16457
aI16463
aI16466
aI16483
aI16484
aI16485
aI16497
aI16520
aI16585
aI16593
aI16594
aI16608
aI16611
aI16627
aI16635
aI16636
aI16647
aI16659
aI16685
aI16745
aI16753
aI16755
aI16756
aI16788
aI16805
aI16806
aI16807
aI16827
aI16838
aI16853
aI16871
aI16872
aI16875
aI16884
aI16890
aI16899
aI16916
aI16932
aI16958
aI16964
aI16967
aI16982
aI16984
aI16999
aI17000
aI17018
aI17021
aI17069
aI17112
aI17114
aI17120
aI17130
aI17131
aI17132
aI17133
aI17141
aI17150
aI17151
aI17160
aI17179
aI17184
aI17186
aI17192
aI17233
aI17241
aI17245
aI17246
aI17247
aI17257
aI17260
aI17267
aI17268
aI17280
aI17295
aI17296
aI17297
aI17324
aI17344
aI17345
aI17355
aI17356
aI17362
aI17369
aI17370
aI17373
aI17375
aI17376
aI17378
aI17384
aI17388
aI17389
aI17395
aI17396
aI17397
aI17412
aI17414
aI17415
aI17450
aI17478
aI17484
aI17496
aI17498
aI17499
aI17503
aI17504
aI17517
aI17518
aI17526
aI17527
aI17542
aI17545
aI17549
aI17550
aI17604
aI17618
aI17627
aI17628
aI17632
aI17635
aI17646
aI17656
aI17669
aI17690
aI17693
aI17714
aI17716
aI17732
aI17733
aI17735
aI17739
aI17756
aI17758
aI17761
aI17770
aI17774
aI17778
aI17780
aI17781
aI17782
aI17784
aI17785
aI17822
aI17824
aI17847
aI17848
aI17863
aI17864
aI17865
aI17897
aI17900
aI17903
aI17909
aI17913
aI17914
aI17926
aI17943
aI17955
aI17976
aI17982
aI17983
aI18021
aI18026
aI18027
aI18028
aI18033
aI18034
aI18043
aI18071
aI18097
aI18111
aI18112
aI18119
aI18134
aI18135
aI18165
aI18173
aI18174
aI18175
aI18232
aI18259
aI18260
aI18264
aI18287
aI18290
aI18297
aI18298
aI18358
aI18415
aI18419
aI18420
aI18432
aI18438
aI18441
aI18443
aI18460
aI18514
aI18521
aI18522
aI18534
aI18537
aI18539
aI18544
aI18545
aI18546
aI18548
aI18566
aI18596
aI18597
aI18598
aI18615
aI18641
aI18653
aI18662
aI18664
aI18667
aI18700
aI18717
aI18719
aI18720
aI18728
aI18738
aI18752
aI18753
aI18766
aI18776
aI18780
aI18784
aI18788
aI18790
aI18791
aI18792
aI18794
aI18795
aI18805
aI18809
aI18825
aI18828
aI18848
aI18868
aI18870
aI18871
aI18906
aI18911
aI18917
aI18919
aI18920
aI18922
aI18923
aI18930
aI18937
aI18950
aI18999
aI19029
aI19049
aI19066
aI19080
aI19083
aI19087
aI19158
aI19162
aI19164
aI19193
aI19198
aI19213
aI19235
aI19236
aI19292
aI19296
aI19308
aI19342
aI19343
aI19347
aI19366
aI19379
aI19381
aI19382
aI19420
aI19422
aI19437
aI19445
aI19450
aI19455
aI19463
aI19471
aI19472
aI19481
aI19484
aI19508
aI19511
aI19547
aI19550
aI19565
aI19592
aI19600
aI19604
aI19607
aI19614
aI19619
aI19636
aI19662
aI19678
aI19691
aI19733
aI19735
aI19737
aI19739
aI19750
aI19765
aI19816
aI19825
aI19831
aI19835
aI19856
aI19868
aI19886
aI19888
aI19936
aI19950
aI19952
aI19984
aI20063
aI20064
aI20080
aI20093
aI20119
aI20132
aI20144
aI20165
aI20186
aI20193
aI20204
aI20215
aI20218
aI20239
aI20244
aI20248
aI20260
aI20261
aI20268
aI20271
aI20317
aI20325
aI20341
aI20345
aI20346
aI20353
aI20372
aI20373
aI20379
aI20394
aI20446
aI20449
aI20450
aI20468
aI20470
aI20499
aI20501
aI20507
aI20518
aI20563
aI20571
aI20580
aI20590
aI20606
aI20625
aI20628
aI20629
aI20646
aI20669
aI20715
aI20718
aI20756
aI20757
aI20758
aI20763
aI20782
aI20793
aI20825
aI20826
aI20842
aI20881
aI20882
aI20885
aI20886
aI20932
aI20959
aI20963
aI20968
aI20986
aI20992
aI21004
aI21026
aI21028
aI21060
aI21082
aI21098
aI21108
aI21112
aI21119
aI21141
aI21142
aI21158
aI21159
aI21162
aI21169
aI21170
aI21210
aI21212
aI21227
aI21228
aI21237
aI21244
aI21245
aI21258
aI21268
aI21269
aI21270
aI21278
aI21279
aI21281
aI21283
aI21285
aI21296
aI21299
aI21313
aI21338
aI21339
aI21340
aI21360
aI21361
aI21362
aI21363
aI21365
aI21368
aI21387
aI21393
aI21397
aI21404
aI21413
aI21424
aI21427
aI21442
aI21474
aI21475
aI21476
aI21477
aI21490
aI21492
aI21494
aI21497
aI21503
aI21524
aI21529
aI21530
aI21554
aI21618
aI21621
aI21622
aI21624
aI21626
aI21638
aI21644
aI21655
aI21656
aI21657
aI21658
aI21659
aI21707
aI21735
aI21743
aI21754
aI21756
aI21768
aI21772
aI21774
aI21779
aI21780
aI21788
aI21860
aI21870
aI21883
aI21898
aI21899
aI21900
aI21913
aI21954
aI21956
aI21988
aI21999
aI22003
aI22033
aI22034
aI22035
aI22112
aI22128
aI22137
aI22138
aI22148
aI22255
aI22256
aI22279
aI22280
aI22283
aI22284
aI22285
aI22286
aI22291
aI22356
aI22362
aI22385
aI22393
aI22409
aI22468
aI22477
aI22484
aI22534
aI22537
aI22612
aI22619
aI22621
aI22659
aI22661
aI22662
aI22664
aI22718
aI22721
aI22733
aI22746
aI22747
aI22755
aI22756
aI22762
aI22769
aI22788
aI22789
aI22790
aI22804
aI22854
aI22856
aI22860
aI22865
aI22866
aI22897
aI22918
aI22919
aI22923
aI22933
aI22936
aI22937
aI23043
aI23044
aI23045
aI23050
aI23061
aI23062
aI23063
aI23064
aI23149
aI23169
aI23171
aI23172
aI23190
aI23191
aI23192
aI23197
aI23198
aI23281
aI23296
aI23368
aI23369
aI23370
aI23375
aI23389
aI23411
aI23424
aI23445
aI23458
aI23459
aI23493
aI23495
aI23510
aI23526
aI23552
aI23553
aI23558
aI23579
aI23596
aI23628
aI23632
aI23654
aI23680
aI23686
aI23748
aI23773
aI23782
aI23787
aI23789
aI23790
aI23794
aI23828
aI23829
aI23831
aI23833
aI23879
aI23895
aI23910
aI23932
aI23939
aI23970
aI23972
aI23979
aI23995
aI23997
aI24021
aI24026
aI24038
aI24044
aI24045
aI24046
aI24048
aI24067
aI24136
aI24180
aI24220
aI24257
aI24273
aI24274
aI24289
aI24291
aI24296
aI24300
aI24349
aI24351
aI24398
aI24401
aI24402
aI24406
aI24420
aI24428
aI24468
aI24510
aI24528
aI24537
aI24538
aI24542
aI24548
aI24551
aI24556
aI24604
aI24632
aI24634
aI24652
aI24667
aI24670
aI24673
aI24678
aI24684
aI24702
aI24723
aI24732
aI24746
aI24760
aI24762
aI24789
aI24794
aI24802
aI24806
aI24815
aI24830
aI24862
aI24889
aI24901
aI24907
aI24909
aI24910
aI24913
aI24914
aI24916
aI24929
aI24930
aI24931
aI24990
aI24992
aI25025
aI25037
aI25043
aI25048
aI25051
aI25057
aI25087
aI25119
aI25121
aI25130
aI25160
aI25164
aI25166
aI25169
aI25171
aI25178
aI25219
aI25273
aI25281
aI25295
aI25298
aI25302
aI25328
aI25336
aI25347
aI25430
aI25445
aI25466
aI25467
aI25468
aI25472
aI25521
aI25539
aI25540
aI25555
aI25598
aI25602
aI25670
aI25690
aI25691
aI25711
aI25715
aI25723
aI25729
aI25796
aI25797
aI25811
aI25817
aI25819
aI25845
aI25853
aI25856
aI25863
aI25928
aI25929
aI25951
aI25961
aI25963
aI25979
aI25980
aI25982
aI25990
aI25991
aI25993
aI25994
aI26050
aI26053
aI26059
aI26098
aI26101
aI26115
aI26120
aI26122
aI26199
aI26206
aI26209
aI26210
aI26233
aI26245
aI26248
aI26250
aI26251
aI26338
aI26348
aI26362
aI26366
aI26367
aI26376
aI26380
aI26381
aI26382
aI26383
aI26432
aI26444
aI26459
aI26465
aI26466
aI26467
aI26470
aI26483
aI26484
aI26489
aI26493
aI26494
aI26495
aI26599
aI26601
aI26604
aI26611
aI26617
aI26619
aI26623
aI26639
aI26685
aI26758
aI26767
aI26870
aI26872
aI26881
aI26896
aI26948
aI26969
aI26996
aI27013
aI27023
aI27024
aI27030
aI27114
aI27141
aI27149
aI27150
aI27244
aI27250
aI27264
aI27266
aI27267
aI27272
aI27274
aI27277
aI27279
aI27280
aI27282
aI27287
aI27327
aI27341
aI27352
aI27353
aI27367
aI27368
aI27371
aI27379
aI27383
aI27395
aI27396
aI27397
aI27409
aI27410
aI27450
aI27462
aI27477
aI27508
aI27526
aI27536
aI27537
aI27538
aI27589
aI27625
aI27660
aI27678
aI27741
aI27756
aI27776
aI27784
aI27787
aI27791
aI27794
aI27796
aI27797
aI27799
aI27800
aI27834
aI27835
aI27841
aI27880
aI27885
aI27901
aI27922
aI27925
aI27929
aI27930
aI27990
aI28010
aI28012
aI28033
aI28036
aI28045
aI28052
aI28053
aI28054
aI28059
aI28063
aI28095
aI28105
aI28108
aI28121
aI28123
aI28138
aI28139
aI28154
aI28160
aI28176
aI28177
aI28190
aI28218
aI28222
aI28233
aI28241
aI28242
aI28243
aI28246
aI28247
aI28250
aI28266
aI28281
aI28286
aI28287
aI28288
aI28308
aI28311
aI28354
aI28377
aI28401
aI28424
aI28474
aI28495
aI28497
aI28530
aI28537
aI28538
aI28539
aI28541
aI28544
aI28549
aI28559
aI28598
aI28635
aI28649
aI28662
aI28665
aI28727
aI28736
aI28737
aI28738
aI28757
aI28781
aI28783
aI28789
aI28790
aI28846
aI28864
aI28865
aI28990
aI28993
aI29010
aI29035
aI29038
aI29060
aI29061
aI29126
aI29153
aI29165
aI29167
aI29174
aI29193
aI29205
aI29206
aI29277
aI29279
aI29301
aI29302
aI29311
aI29317
aI29326
aI29419
aI29430
aI29451
aI29453
aI29534
aI29566
aI29572
aI29573
aI29585
aI29687
aI29693
aI29695
aI29778
aI29815
aI29818
aI29820
aI29834
aI30039
aI30057
aI30062
aI30070
aI30072
aI30073
aI30080
aI30178
aI30179
aI30238
aI30239
aI30300
aI30302
aI30303
aI30327
aI30359
aI30365
aI30401
aI30403
aI30493
aI30577
aI30600
aI30640
aI30673
aI30682
aI30716
aI30719
aI30731
aI30751
aI30793
aI30810
aI30839
aI30840
aI30853
aI30858
aI30859
aI30871
aI30907
aI30921
aI30967
aI30969
aI31090
aI31095
aI31097
aI31102
aI31111
aI31122
aI31173
aI31184
aI31186
aI31226
aI31250
aI31271
aI31292
aI31295
aI31298
aI31323
aI31334
aI31348
aI31356
aI31379
aI31388
aI31418
aI31424
aI31425
aI31432
aI31439
aI31445
aI31450
aI31456
aI31477
aI31509
aI31510
aI31523
aI31545
aI31548
aI31583
aI31592
aI31594
aI31605
aI31610
aI31611
aI31612
aI31623
aI31640
aI31648
aI31682
aI31711
aI31740
aI31745
aI31804
aI31823
aI31825
aI31868
aI31870
aI31873
aI31892
aI31913
aI31949
aI31953
aI31956
aI31972
aI31974
aI31998
aI32033
aI32036
aI32049
aI32052
aI32070
aI32200
aI32210
aI32240
aI32241
aI32253
aI32349
aI32399
aI32421
aI32424
aI32426
aI32427
aI32441
aI32452
aI32513
aI32547
aI32548
aI32553
aI32557
aI32585
aI32596
aI32600
aI32602
aI32603
aI32604
aI32608
aI32635
aI32636
aI32641
aI32669
aI32675
aI32686
aI32710
aI32714
aI32717
aa.