(lp1
(lp2
I1576
aI1701
aI6396
aI6515
aI6516
aI6517
aI6518
aI6632
aI6641
aI6643
aI6644
aI6760
aI6761
aI6886
aI6887
aI7014
aI7015
aI7142
aI7143
aI7268
aI7270
aI7396
aI7397
aI7524
aI7525
aI7650
aI7651
aI7652
aI7778
aI7779
aI7780
aI7909
aI7910
aI8037
aI8041
aI8169
aI8172
aI8312
aI8440
aI8441
aI8569
aI8571
aI8572
aI8698
aI8699
aI8700
aI8827
aI8828
aI8955
aI8956
aI9083
aI9084
aI9211
aI9212
aI9339
aI9340
aI9467
aI9468
aI9595
aI9596
aI9597
aI9721
aI9722
aI9975
aI9976
aI10103
aI10104
aI17957
aI18083
aI22002
aI22004
aI22130
aI22252
aI22253
aI22381
aI22504
aI22507
aI22508
aI22635
aI22636
aI22763
aI22764
aI22892
aI23011
aI23020
aI23093
aI23138
aI23139
aI23265
aI23392
aI23517
aI23518
aI23519
aI23520
aI23645
aI23646
aI23647
aI23774
aI23902
aI24029
aI24155
aI24282
aI24283
aI24285
aI24407
aI24412
aI24533
aI24539
aI24540
aI24669
aI24783
aI24797
aI24926
aI25033
aI25054
aI25055
aI25057
aI25185
aI25289
aI25312
aI25315
aI25316
aI25319
aI25447
aI25449
aI25578
aI25706
aI25707
aI25780
aI25834
aI25836
aI25963
aI25964
aI26092
aI26737
aa(lp3
I6516
aI6632
aI6760
aI6886
aI7014
aI7015
aI7396
aI7651
aI7909
aI8169
aI8699
aI8828
aI8955
aI9083
aI9211
aI9339
aa(lp4
a(lp5
a(lp6
a(lp7
a(lp8
a(lp9
a.