(lp1
(lp2
I7905
aa(lp3
I7523
aI8033
aI8286
aa(lp4
I7397
aI7524
aI7651
aI7904
aI7906
aI8032
aI8158
aI8287
aI8414
aI8542
aI10237
aI10363
aI10364
aI10491
aI10620
aI10875
aI10876
aa(lp5
I7525
aI7652
aI7777
aI7778
aI8159
aI8413
aI8415
aI8541
aI9721
aI9722
aI9723
aI9850
aI9979
aI9980
aI9981
aI10107
aI10108
aI10235
aI10236
aI10365
aI10492
aI10493
aI10619
aI10621
aI10748
aI11004
aI11384
aI11512
aI11513
aa(lp6
I7269
aI7396
aI7650
aI7653
aI7779
aI8034
aI8285
aI8543
aI9594
aI9851
aI10109
aI10747
aI10749
aI10877
aI11003
aI11130
aI11131
aI11132
aI11385
aI11766
aI22130
aI22257
aI22633
aa(lp7
I6756
aI7013
aI7014
aI7034
aI7035
aI7036
aI7037
aI7141
aI7142
aI7143
aI7163
aI7268
aI7270
aI7398
aI7522
aI7776
aI7907
aI8157
aI8669
aI8670
aI8671
aI8800
aI8928
aI9595
aI9849
aI10110
aI10366
aI11002
aI11005
aI11256
aI11257
aI11637
aI11638
aI11639
aI11765
aI11767
aI12016
aI12017
aI12144
aI22378
aI22379
aI22505
aI22506
aI22634
aI22760
aI22761
aI22888
aI23016
aI23136
aI23262
aI23263
aI23388
aI23401
aI23516
aI24023
aI24277
aI24404
aI26718
aa(lp8
I6628
aI6757
aI6758
aI6884
aI6885
aI6886
aI6887
aI6907
aI6908
aI7012
aI7015
aI7033
aI7140
aI7161
aI7162
aI7164
aI7165
aI7271
aI7395
aI7780
aI8031
aI8160
aI8161
aI8288
aI8672
aI8673
aI8799
aI8801
aI8803
aI8927
aI8929
aI8930
aI8931
aI9205
aI9206
aI9333
aI9334
aI9336
aI9461
aI9462
aI9593
aI9596
aI9724
aI9852
aI9982
aI10238
aI11133
aI11258
aI11259
aI11260
aI11386
aI11388
aI11514
aI11516
aI11640
aI11641
aI11889
aI11894
aI12145
aI22129
aI22131
aI22258
aI22377
aI22380
aI22507
aI22632
aI22635
aI22762
aI23007
aI23009
aI23134
aI23135
aI23144
aI23386
aI23387
aI23389
aI23400
aI23515
aI23529
aI23530
aI23642
aI23769
aI23896
aI24278
aI24532
aI25427
aI25683
aI25939
aI26067
aI26197
aI26326
aI26455
aI26456
aI26590
aI26719
aI26846
aI27491
aI28005
aI28265
aa(lp9
I1
aI47
aI48
aI176
aI195
aI262
aI855
aI1282
aI1286
aI1824
aI2103
aI2114
aI2402
aI2403
aI2570
aI2746
aI3001
aI3020
aI3325
aI3535
aI3709
aI3833
aI3961
aI3962
aI4371
aI4475
aI4510
aI4511
aI5138
aI5399
aI5704
aI6335
aI6759
aI6905
aI6906
aI6909
aI6910
aI6911
aI7038
aI7144
aI7160
aI7267
aI7272
aI7285
aI7288
aI7289
aI7290
aI7294
aI7334
aI7394
aI7399
aI7411
aI7412
aI7413
aI7414
aI7422
aI7526
aI7527
aI7539
aI7540
aI7545
aI7546
aI7548
aI7671
aI7672
aI7674
aI7675
aI7781
aI7800
aI7801
aI7908
aI7926
aI7927
aI8035
aI8052
aI8162
aI8191
aI8289
aI8309
aI8310
aI8318
aI8319
aI8416
aI8417
aI8438
aI8444
aI8448
aI8451
aI8544
aI8565
aI8574
aI8575
aI8674
aI8675
aI8676
aI8698
aI8699
aI8700
aI8802
aI8804
aI8819
aI8828
aI8830
aI8868
aI8932
aI8957
aI9057
aI9060
aI9065
aI9066
aI9067
aI9068
aI9077
aI9079
aI9080
aI9083
aI9084
aI9085
aI9195
aI9196
aI9197
aI9198
aI9204
aI9207
aI9208
aI9211
aI9212
aI9213
aI9332
aI9335
aI9337
aI9338
aI9339
aI9341
aI9460
aI9463
aI9465
aI9469
aI9592
aI9611
aI9725
aI9727
aI9983
aI10494
aI10622
aI10623
aI10874
aI10878
aI10883
aI10902
aI10920
aI11015
aI11387
aI11511
aI11515
aI11517
aI11642
aI11643
aI11644
aI11645
aI11769
aI11887
aI11888
aI11890
aI11891
aI11892
aI11893
aI11895
aI12015
aI12018
aI12143
aI12146
aI12147
aI12271
aI12502
aI12535
aI12594
aI12656
aI12663
aI12672
aI12783
aI12916
aI13036
aI13043
aI13076
aI13326
aI13417
aI13807
aI13815
aI13833
aI14074
aI14255
aI14315
aI14329
aI14441
aI14569
aI14698
aI14699
aI14957
aI14967
aI15103
aI15353
aI15890
aI16115
aI18619
aI19391
aI19597
aI19758
aI19980
aI20019
aI20064
aI20174
aI20417
aI20811
aI20972
aI21211
aI21434
aI21470
aI21475
aI21477
aI21560
aI21598
aI21599
aI21606
aI21725
aI21738
aI21752
aI21844
aI21866
aI21867
aI21873
aI21874
aI21875
aI21876
aI21878
aI21879
aI21880
aI21882
aI21886
aI21998
aI22000
aI22003
aI22009
aI22011
aI22124
aI22128
aI22132
aI22181
aI22246
aI22247
aI22251
aI22252
aI22253
aI22256
aI22364
aI22369
aI22376
aI22381
aI22382
aI22462
aI22487
aI22499
aI22501
aI22502
aI22503
aI22504
aI22626
aI22627
aI22631
aI22736
aI22743
aI22753
aI22754
aI22755
aI22756
aI22759
aI22859
aI22861
aI22872
aI22875
aI22876
aI22886
aI22887
aI23001
aI23002
aI23006
aI23008
aI23015
aI23100
aI23101
aI23112
aI23123
aI23130
aI23138
aI23259
aI23260
aI23261
aI23272
aI23273
aI23380
aI23381
aI23382
aI23385
aI23402
aI23488
aI23492
aI23511
aI23514
aI23640
aI23641
aI23643
aI23644
aI23658
aI23768
aI23873
aI23895
aI23897
aI23898
aI23978
aI24021
aI24022
aI24143
aI24145
aI24148
aI24149
aI24150
aI24273
aI24274
aI24276
aI24399
aI24522
aI24579
aI24659
aI24707
aI24787
aI25035
aI25038
aI25039
aI25041
aI25043
aI25117
aI25151
aI25167
aI25168
aI25171
aI25289
aI25295
aI25297
aI25298
aI25299
aI25424
aI25425
aI25426
aI25548
aI25553
aI25554
aI25555
aI25584
aI25678
aI25680
aI25681
aI25682
aI25795
aI25806
aI25809
aI25811
aI25922
aI25927
aI25932
aI25935
aI25937
aI25938
aI26055
aI26057
aI26064
aI26065
aI26066
aI26193
aI26195
aI26196
aI26198
aI26321
aI26322
aI26421
aI26423
aI26450
aI26451
aI26453
aI26454
aI26458
aI26575
aI26578
aI26579
aI26589
aI26685
aI26701
aI26703
aI26705
aI26708
aI26710
aI26713
aI26717
aI26831
aI26839
aI26842
aI26844
aI26845
aI26847
aI26849
aI26960
aI26966
aI26967
aI26974
aI26978
aI27095
aI27096
aI27102
aI27104
aI27106
aI27162
aI27213
aI27216
aI27222
aI27231
aI27232
aI27233
aI27345
aI27354
aI27359
aI27360
aI27361
aI27362
aI27471
aI27490
aI27492
aI27618
aI27619
aI27620
aI27736
aI27741
aI27746
aI27747
aI27748
aI27850
aI27867
aI27873
aI27875
aI27877
aI27998
aI28004
aI28006
aI28099
aI28132
aI28133
aI28134
aI28250
aI28263
aI28264
aI28388
aI28390
aI28391
aI28392
aI28393
aI28492
aI28503
aI28508
aI28514
aI28519
aI28520
aI28522
aI28523
aI28629
aI28636
aI29134
aI29788
aI30245
aI30255
aI31105
aa.