(lp1
(lp2
I5551
aI5552
aI5553
aI5680
aI5808
aI5936
aI6062
aI6064
aI6065
aI6184
aI6185
aI6187
aI6189
aI6193
aI6313
aI6319
aI6431
aI6433
aI6558
aI6559
aI6560
aI8353
aI8354
aI8483
aI8611
aI8612
aI8741
aI8869
aI8997
aI9125
aI9241
aI9253
aI9369
aI9381
aI9509
aI9637
aI9763
aI9764
aI9891
aI9892
aI10017
aI10018
aI10143
aI10144
aI10145
aI10269
aI10270
aI21918
aI22044
aI22046
aI22047
aI25141
aI25757
aa(lp3
I5552
aI5553
aI8741
aI8869
aI8997
aI9125
aI9253
aI9381
aI9509
aI9637
aI9763
aI9891
aI10017
aa(lp4
a(lp5
a(lp6
a(lp7
a(lp8
a(lp9
a.