(lp1
(lp2
a(lp3
a(lp4
a(lp5
a(lp6
a(lp7
a(lp8
I30788
aa(lp9
I35
aI177
aI194
aI261
aI290
aI297
aI514
aI560
aI611
aI685
aI738
aI741
aI816
aI822
aI876
aI944
aI1294
aI1512
aI1672
aI1684
aI1696
aI1738
aI1768
aI1844
aI1853
aI1861
aI1862
aI1950
aI2274
aI2309
aI2435
aI2528
aI2562
aI2696
aI2741
aI2768
aI2769
aI2777
aI2817
aI2896
aI2906
aI3071
aI3073
aI3162
aI3215
aI3279
aI3325
aI3335
aI3398
aI3415
aI3420
aI3430
aI3435
aI3454
aI3542
aI3664
aI3863
aI3909
aI3945
aI3985
aI3998
aI4015
aI4070
aI4080
aI4124
aI4143
aI4144
aI4170
aI4213
aI4227
aI4232
aI4235
aI4252
aI4271
aI4279
aI4296
aI4393
aI4395
aI4409
aI4537
aI4540
aI4542
aI4555
aI4623
aI4665
aI4738
aI4766
aI4791
aI4792
aI4863
aI4924
aI4933
aI5016
aI5017
aI5044
aI5057
aI5066
aI5089
aI5159
aI5478
aI5630
aI5631
aI5652
aI5725
aI5767
aI5848
aI5850
aI5932
aI5972
aI5997
aI5998
aI6003
aI6019
aI6043
aI6100
aI6126
aI6189
aI6249
aI6279
aI6321
aI6338
aI6366
aI6375
aI6440
aI6453
aI6629
aI6631
aI6645
aI6685
aI6701
aI6767
aI6832
aI6867
aI6983
aI7044
aI7097
aI7153
aI7163
aI7230
aI7265
aI7294
aI7317
aI7429
aI7473
aI7488
aI7534
aI7539
aI7705
aI7742
aI7847
aI8274
aI8434
aI8522
aI8762
aI8793
aI8881
aI8902
aI8924
aI8970
aI9054
aI9105
aI9132
aI9139
aI9150
aI9287
aI9292
aI9302
aI9338
aI9365
aI9408
aI9411
aI9451
aI9462
aI9465
aI9516
aI9518
aI9541
aI9548
aI9565
aI9597
aI9601
aI9606
aI9613
aI9621
aI9646
aI9662
aI9677
aI9682
aI9713
aI9727
aI9729
aI9736
aI9788
aI9790
aI9828
aI9847
aI9853
aI9919
aI9951
aI9959
aI9965
aI9981
aI9983
aI10020
aI10040
aI10042
aI10066
aI10082
aI10083
aI10096
aI10109
aI10124
aI10138
aI10183
aI10258
aI10271
aI10298
aI10308
aI10319
aI10321
aI10322
aI10417
aI10418
aI10436
aI10448
aI10488
aI10507
aI10532
aI10536
aI10537
aI10564
aI10567
aI10570
aI10588
aI10615
aI10688
aI10769
aI10792
aI10823
aI10824
aI10825
aI10833
aI10859
aI10861
aI11013
aI11018
aI11019
aI11092
aI11118
aI11211
aI11336
aI11389
aI11486
aI11517
aI11518
aI11649
aI11651
aI11654
aI11689
aI11717
aI11720
aI11729
aI11762
aI11782
aI11783
aI11829
aI11863
aI11899
aI11905
aI11908
aI11911
aI11926
aI11927
aI11995
aI12058
aI12108
aI12134
aI12138
aI12166
aI12186
aI12229
aI12357
aI12400
aI12401
aI12462
aI12476
aI12489
aI12490
aI12525
aI12533
aI12744
aI12746
aI12772
aI12775
aI12809
aI12816
aI12825
aI12843
aI12932
aI12938
aI12952
aI12953
aI12970
aI13011
aI13043
aI13117
aI13120
aI13160
aI13203
aI13285
aI13464
aI13699
aI13721
aI13726
aI13769
aI13778
aI13779
aI13800
aI13809
aI13847
aI13883
aI13890
aI13901
aI13936
aI13964
aI13967
aI14017
aI14027
aI14064
aI14104
aI14260
aI14352
aI14356
aI14427
aI14489
aI14547
aI14605
aI14616
aI14617
aI14618
aI14629
aI14631
aI14646
aI14663
aI14667
aI14668
aI14672
aI14677
aI14685
aI14729
aI14739
aI14742
aI14743
aI14794
aI14867
aI14900
aI14938
aI14974
aI15030
aI15148
aI15151
aI15179
aI15265
aI15276
aI15342
aI15364
aI15405
aI15406
aI15450
aI15493
aI15508
aI15510
aI15534
aI15574
aI15628
aI15634
aI15857
aI15883
aI16133
aI16134
aI16259
aI16260
aI16261
aI16262
aI16264
aI16270
aI16302
aI16370
aI16439
aI16781
aI17025
aI17110
aI17284
aI17288
aI17345
aI17408
aI17417
aI17449
aI17553
aI17577
aI17732
aI17736
aI17983
aI18012
aI18058
aI18210
aI18241
aI18247
aI18320
aI18323
aI18336
aI18368
aI18440
aI18441
aI18467
aI18488
aI18569
aI18776
aI19018
aI19212
aI19238
aI19393
aI19475
aI19506
aI19600
aI19603
aI19605
aI19627
aI19759
aI19841
aI19857
aI19889
aI20022
aI20097
aI20120
aI20183
aI20232
aI20284
aI20393
aI20412
aI20514
aI20670
aI20765
aI20772
aI20798
aI20981
aI21028
aI21031
aI21032
aI21054
aI21055
aI21059
aI21063
aI21085
aI21208
aI21217
aI21220
aI21293
aI21327
aI21467
aI21546
aI21573
aI21577
aI21669
aI21704
aI21731
aI21732
aI21830
aI21847
aI21863
aI21956
aI22007
aI22077
aI22083
aI22084
aI22085
aI22136
aI22141
aI22191
aI22201
aI22252
aI22268
aI22354
aI22488
aI22554
aI22560
aI22629
aI22673
aI22688
aI22748
aI22771
aI22785
aI22827
aI22829
aI22830
aI22831
aI22832
aI22894
aI22922
aI23342
aI23405
aI23406
aI23411
aI23412
aI23413
aI23466
aI23540
aI23607
aI23623
aI23636
aI23726
aI23855
aI24106
aI24107
aI24179
aI24236
aI24360
aI24513
aI24538
aI24621
aI24702
aI24741
aI24753
aI24757
aI24999
aI25016
aI25136
aI25184
aI25292
aI25296
aI25299
aI25384
aI25389
aI25402
aI25413
aI25464
aI25466
aI25518
aI25527
aI25529
aI25643
aI25653
aI25659
aI25713
aI25717
aI25735
aI25781
aI25787
aI25796
aI25833
aI25864
aI25889
aI25895
aI25938
aI26026
aI26076
aI26134
aI26136
aI26173
aI26232
aI26262
aI26299
aI26350
aI26369
aI26502
aI26505
aI26535
aI26562
aI26599
aI26668
aI26709
aI26837
aI27017
aI27050
aI27063
aI27084
aI27092
aI27130
aI27191
aI27224
aI27258
aI27290
aI27305
aI27660
aI27731
aI27745
aI27749
aI27769
aI27907
aI27922
aI27935
aI27946
aI28005
aI28069
aI28086
aI28194
aI28465
aI28472
aI28580
aI28582
aI28583
aI28588
aI28591
aI28592
aI28675
aI28681
aI28725
aI28757
aI28759
aI28820
aI28825
aI28849
aI28890
aI28891
aI28895
aI28896
aI28970
aI28973
aI28979
aI29006
aI29018
aI29026
aI29049
aI29064
aI29081
aI29083
aI29126
aI29132
aI29149
aI29151
aI29157
aI29329
aI29391
aI29457
aI29472
aI29481
aI29495
aI29496
aI29543
aI29550
aI29577
aI29598
aI29615
aI29616
aI29619
aI29621
aI29678
aI29713
aI29721
aI29726
aI29760
aI29833
aI29908
aI29917
aI29926
aI29972
aI29983
aI29999
aI30000
aI30031
aI30054
aI30080
aI30094
aI30127
aI30128
aI30129
aI30137
aI30156
aI30178
aI30198
aI30266
aI30276
aI30352
aI30378
aI30380
aI30385
aI30387
aI30434
aI30555
aI30562
aI30580
aI30621
aI30653
aI30662
aI30663
aI30664
aI30733
aI30735
aI30747
aI30795
aI30816
aI30829
aI30881
aI30916
aI30950
aI30954
aI30980
aI30981
aI31049
aI31157
aI31198
aI31243
aI31270
aI31271
aI31290
aI31298
aI31308
aI31325
aI31352
aI31367
aI31380
aI31383
aI31410
aI31476
aI31477
aI31479
aI31481
aI31608
aI31621
aI31700
aI31932
aI32069
aI32235
aI32252
aI32270
aI32276
aI32286
aI32297
aI32324
aI32411
aI32570
aI32592
aI32650
aI32688
aI32726
aa.