(lp1
(lp2
I5750
aI5751
aI5878
aI5879
aI6006
aI6007
aI6134
aI6135
aI6262
aI6263
aI6390
aI6391
aI6517
aI6518
aI6645
aI6646
aI7753
aI7754
aI7880
aI7881
aI8135
aI8390
aI9571
aI9572
aI10213
aI10341
aI10469
aa(lp3
I6261
aI6389
aI6519
aI7372
aI7500
aI7626
aI7882
aI8007
aI8134
aI8262
aI8263
aI8391
aI9699
aI9700
aI9958
aI10085
aI10086
aI10214
aI10342
aI10597
aI10725
aI10981
aa(lp4
I6773
aI6774
aI7244
aI7245
aI7373
aI7625
aI7752
aI8006
aI8519
aI9829
aI9957
aI10470
aI10598
aI10726
aI10853
aI11233
aI11234
aa(lp5
I6133
aI6647
aI7117
aI7118
aI7499
aI7501
aI8261
aI8389
aI9442
aI9443
aI9444
aI9570
aI9830
aI10596
aI10724
aI10852
aI10854
aI10980
aI11235
aI11361
aI11363
aI11615
aI11865
aI21978
aa(lp6
I5622
aI6005
aI6990
aI7243
aI7371
aI7624
aI7627
aI7755
aI8518
aI8648
aI8649
aI8650
aI9182
aI9698
aI10982
aI11108
aI11109
aI11362
aI11487
aI11616
aI11866
aI11867
aI11994
aI21977
aI21979
aI22354
aI22481
aI22482
aa(lp7
I5490
aI5491
aI5492
aI5618
aI5619
aI5621
aI5749
aI6604
aI6861
aI6862
aI6883
aI6884
aI6885
aI6989
aI6991
aI7116
aI7883
aI8008
aI8651
aI8778
aI8779
aI9181
aI9183
aI9315
aI9701
aI9831
aI9959
aI10087
aI10215
aI10340
aI10468
aI11106
aI11107
aI11360
aI11488
aI11489
aI11491
aI11614
aI11742
aI11743
aI11993
aI11995
aI21742
aI22105
aI22106
aI22225
aI22226
aI22227
aI22353
aI22355
aI22983
aI23109
aI23363
aI24125
aI24126
aI24378
aI25274
aI25275
aa(lp8
I5362
aI5489
aI5493
aI5494
aI5495
aI5620
aI5623
aI5752
aI5877
aI5880
aI6008
aI6136
aI6732
aI6733
aI6734
aI6735
aI6756
aI6775
aI6860
aI6863
aI6882
aI6886
aI6901
aI6902
aI6988
aI7010
aI7011
aI7012
aI7013
aI7119
aI7120
aI7628
aI7629
aI8009
aI8133
aI8136
aI8517
aI8520
aI8652
aI8776
aI8777
aI8780
aI8906
aI9045
aI9054
aI9055
aI9309
aI9314
aI9316
aI9573
aI9828
aI10084
aI10212
aI10343
aI11105
aI11110
aI11486
aI11490
aI11741
aI11744
aI11869
aI21599
aI21741
aI21869
aI22107
aI22352
aI22483
aI22608
aI22736
aI22856
aI22859
aI22982
aI22984
aI23108
aI23235
aI23236
aI23249
aI23250
aI23362
aI23364
aI23490
aI23616
aI23617
aI23743
aI23744
aI23745
aI23867
aI23869
aI23870
aI23998
aI23999
aI24250
aI24251
aI24252
aI24379
aI24506
aI24507
aI24634
aI24762
aI25018
aI25146
aI25147
aI25402
aI25403
aI25531
aI25658
aI25786
aI25787
aI25916
aI26045
aI26046
aI26174
aI26567
aI26827
aI27081
aI27209
aI27210
aI27339
aI27467
aI27469
aI27597
aI27854
aI27855
aI27982
aI27983
aI28113
aI28371
aa(lp9
I320
aI514
aI677
aI822
aI1255
aI1552
aI1575
aI1581
aI1700
aI2065
aI2567
aI2665
aI3053
aI3054
aI3076
aI3532
aI3565
aI3574
aI3575
aI3705
aI4085
aI4132
aI4460
aI4719
aI4846
aI4849
aI4850
aI4974
aI5008
aI5015
aI5140
aI5233
aI5247
aI5352
aI5360
aI5361
aI5364
aI5365
aI5367
aI5479
aI5483
aI5488
aI5617
aI5627
aI6009
aI6011
aI6137
aI6140
aI6392
aI6476
aI6516
aI6603
aI6605
aI6606
aI6607
aI6644
aI6655
aI6731
aI6754
aI6755
aI6757
aI6770
aI6771
aI6772
aI6793
aI6859
aI6881
aI6887
aI6890
aI6891
aI6897
aI6898
aI6900
aI6903
aI6992
aI7004
aI7005
aI7006
aI7008
aI7009
aI7014
aI7016
aI7028
aI7029
aI7115
aI7132
aI7133
aI7136
aI7138
aI7149
aI7152
aI7246
aI7260
aI7261
aI7262
aI7286
aI7291
aI7374
aI7376
aI7387
aI7388
aI7390
aI7450
aI7498
aI7502
aI7539
aI7548
aI7782
aI7785
aI7804
aI7879
aI7914
aI7915
aI7925
aI7930
aI8005
aI8010
aI8137
aI8176
aI8188
aI8264
aI8293
aI8295
aI8316
aI8392
aI8521
aI8522
aI8524
aI8551
aI8558
aI8573
aI8647
aI8653
aI8673
aI8675
aI8677
aI8678
aI8682
aI8686
aI8695
aI8809
aI8814
aI8837
aI8907
aI8908
aI8915
aI8916
aI8930
aI8944
aI8952
aI9044
aI9046
aI9053
aI9056
aI9057
aI9063
aI9068
aI9070
aI9174
aI9184
aI9185
aI9187
aI9191
aI9209
aI9310
aI9311
aI9312
aI9313
aI9319
aI9324
aI9441
aI9445
aI9448
aI9470
aI9575
aI9577
aI9590
aI9702
aI9703
aI9716
aI9726
aI9848
aI9956
aI9963
aI9965
aI9972
aI10088
aI10092
aI10096
aI10106
aI10216
aI10220
aI10221
aI10225
aI10226
aI10230
aI10359
aI10471
aI10478
aI10599
aI10614
aI10728
aI10855
aI10858
aI10859
aI10986
aI10989
aI11236
aI11237
aI11242
aI11245
aI11359
aI11364
aI11370
aI11618
aI11737
aI11738
aI11739
aI11740
aI11745
aI11864
aI11868
aI11870
aI11873
aI11881
aI11992
aI11996
aI11997
aI12007
aI12011
aI12030
aI12124
aI12127
aI12129
aI12130
aI12133
aI12135
aI12138
aI12257
aI12259
aI12383
aI12389
aI12503
aI12508
aI12636
aI12654
aI12796
aI13391
aI13393
aI13426
aI13529
aI13787
aI13790
aI13796
aI14551
aI14586
aI14587
aI14601
aI14677
aI14694
aI14823
aI15552
aI15733
aI15734
aI15975
aI16128
aI16243
aI16244
aI16476
aI16642
aI16681
aI16692
aI16818
aI16865
aI16876
aI16927
aI16929
aI16939
aI16945
aI16960
aI17154
aI17584
aI17587
aI17822
aI17877
aI18077
aI18206
aI18207
aI18234
aI18526
aI19080
aI19105
aI19207
aI19293
aI19591
aI20052
aI20148
aI20153
aI20303
aI20308
aI20488
aI20819
aI20822
aI20998
aI21059
aI21071
aI21200
aI21201
aI21262
aI21279
aI21315
aI21322
aI21325
aI21337
aI21425
aI21439
aI21463
aI21570
aI21588
aI21590
aI21600
aI21601
aI21614
aI21615
aI21718
aI21719
aI21727
aI21728
aI21729
aI21730
aI21731
aI21743
aI21771
aI21774
aI21806
aI21833
aI21845
aI21846
aI21849
aI21850
aI21851
aI21852
aI21853
aI21856
aI21857
aI21858
aI21859
aI21868
aI21870
aI21871
aI21954
aI21955
aI21957
aI21967
aI21971
aI21976
aI21980
aI22017
aI22018
aI22096
aI22099
aI22100
aI22101
aI22104
aI22193
aI22206
aI22222
aI22224
aI22335
aI22337
aI22346
aI22477
aI22480
aI22590
aI22606
aI22607
aI22712
aI22725
aI22726
aI22733
aI22836
aI22852
aI22853
aI22854
aI22857
aI22858
aI22864
aI22961
aI22979
aI22981
aI23095
aI23102
aI23107
aI23110
aI23111
aI23122
aI23214
aI23226
aI23228
aI23237
aI23353
aI23356
aI23358
aI23360
aI23361
aI23378
aI23379
aI23453
aI23469
aI23474
aI23483
aI23486
aI23488
aI23491
aI23492
aI23507
aI23508
aI23614
aI23615
aI23618
aI23738
aI23740
aI23742
aI23746
aI23861
aI23864
aI23865
aI23866
aI23868
aI23871
aI23938
aI23981
aI23982
aI23986
aI23994
aI23996
aI23997
aI24123
aI24127
aI24211
aI24225
aI24249
aI24342
aI24374
aI24377
aI24380
aI24467
aI24502
aI24505
aI24508
aI24635
aI24636
aI24715
aI24723
aI24742
aI24761
aI24763
aI24764
aI24880
aI24889
aI24890
aI24891
aI24892
aI25015
aI25016
aI25017
aI25019
aI25020
aI25138
aI25139
aI25142
aI25144
aI25145
aI25148
aI25268
aI25272
aI25273
aI25392
aI25401
aI25519
aI25520
aI25521
aI25522
aI25523
aI25529
aI25530
aI25645
aI25651
aI25655
aI25656
aI25657
aI25659
aI25780
aI25785
aI25888
aI25913
aI25914
aI25915
aI26032
aI26042
aI26159
aI26173
aI26276
aI26291
aI26294
aI26303
aI26304
aI26305
aI26416
aI26433
aI26438
aI26532
aI26552
aI26558
aI26563
aI26564
aI26565
aI26566
aI26568
aI26679
aI26680
aI26689
aI26691
aI26693
aI26694
aI26695
aI26696
aI26697
aI26698
aI26699
aI26810
aI26816
aI26818
aI26819
aI26822
aI26823
aI26826
aI26935
aI26942
aI26951
aI26953
aI26954
aI27068
aI27069
aI27070
aI27075
aI27076
aI27078
aI27080
aI27082
aI27083
aI27176
aI27190
aI27195
aI27199
aI27205
aI27211
aI27302
aI27308
aI27309
aI27313
aI27316
aI27325
aI27338
aI27340
aI27429
aI27462
aI27463
aI27466
aI27468
aI27585
aI27586
aI27595
aI27596
aI27670
aI27688
aI27689
aI27691
aI27718
aI27720
aI27724
aI27725
aI27726
aI27727
aI27821
aI27826
aI27827
aI27846
aI27848
aI27849
aI27916
aI27929
aI27952
aI27955
aI27972
aI27979
aI27980
aI28033
aI28082
aI28083
aI28102
aI28108
aI28109
aI28111
aI28112
aI28114
aI28212
aI28218
aI28238
aI28239
aI28240
aI28241
aI28359
aI28365
aI28367
aI28370
aI28372
aI28373
aI28597
aI28732
aI28740
aI28743
aI28857
aI28988
aI29243
aI29244
aI29250
aI29370
aI29509
aI29582
aI29637
aI29689
aI29766
aI29893
aI30025
aI30153
aI30210
aI30269
aI30280
aI30282
aI30413
aI30562
aI32144
aI32202
aI32317
aa.