(lp1
(lp2
I1567
aI5548
aI5549
aI5677
aI5678
aI5805
aI5806
aI5933
aI5934
aI6185
aI6188
aI6308
aI6427
aI6428
aI6429
aI6430
aI6553
aI6556
aI8350
aI8480
aI8607
aI8608
aI8993
aI8994
aI9121
aI9122
aI9249
aI9250
aI9377
aI9378
aI9634
aI9758
aI9759
aI19817
aI21915
aI21916
aI22043
aI26428
aI27177
aI30913
aa(lp3
a(lp4
a(lp5
a(lp6
a(lp7
a(lp8
a(lp9
a.