(lp1
(lp2
I5584
aI6095
aI6218
aI6343
aI6344
aI6463
aI6464
aI6579
aI6590
aI6707
aI6708
aI6833
aI6836
aI6961
aI6962
aI7089
aI7090
aI7342
aI7343
aI7344
aI7470
aI7596
aI7597
aI7598
aI7724
aI7725
aI7726
aI7854
aI7855
aI7856
aI7982
aI7983
aI7984
aI8115
aI8116
aI8243
aI8244
aI8380
aI8516
aI8517
aI8646
aI8647
aI8774
aI8775
aI8902
aI8903
aI9030
aI9031
aI9158
aI9159
aI9275
aI9286
aI9287
aI9414
aI9415
aI9542
aI9543
aI9670
aI9671
aI9796
aI9797
aI9925
aI21950
aI22079
aI22200
aI22201
aI22321
aI22322
aI22328
aI22329
aI22454
aI22455
aI22582
aI22583
aI22710
aI22711
aI22819
aI22826
aI22830
aI22840
aI22952
aI23212
aI23466
aI23467
aI23594
aI23720
aI23721
aI23848
aI23849
aI23976
aI24104
aI25000
aI25131
aI25241
aI25259
aI25394
aI25396
aI25523
aI25524
aI25909
aI25910
aI26037
aI26038
aI26553
aI28172
aa(lp3
I6833
aI6961
aI6962
aI7856
aI7984
aI8243
aI8774
aI9030
aI9158
aI9286
aI9414
aa(lp4
a(lp5
a(lp6
a(lp7
a(lp8
a(lp9
a.