(lp1
(lp2
a(lp3
a(lp4
a(lp5
a(lp6
I9138
aI9524
aI9652
aI9780
aI9908
aI10036
aI10164
aI10292
aI10420
aI10548
aI10675
aI10676
aI10803
aI10804
aI10932
aI11060
aI11313
aI27296
aI27554
aa(lp7
I5446
aI5574
aI9137
aI9266
aI9523
aI9651
aI9653
aI9779
aI9781
aI9907
aI9909
aI10035
aI10037
aI10163
aI10165
aI10291
aI10419
aI10547
aI10931
aI11059
aI11314
aI11441
aI25099
aI27167
aI27297
aI27426
aI27684
aa(lp8
I5575
aI5702
aI5703
aI5830
aI5831
aI5958
aI5959
aI9525
aI10293
aI10677
aI10805
aI10933
aI11440
aI11442
aI11691
aI11692
aI22174
aI22175
aI22302
aI22430
aI22432
aI24970
aI24971
aI25098
aI26651
aI27164
aI27165
aI27166
aI27168
aI27295
aI27425
aI27553
aI27555
aI27682
aI27683
aI27810
aI27941
aa(lp9
I4039
aI4745
aI4799
aI4802
aI4929
aI4930
aI4931
aI5013
aI5057
aI5058
aI5060
aI5062
aI5187
aI5188
aI5189
aI5190
aI5316
aI5318
aI5445
aI5447
aI5573
aI5609
aI5701
aI5829
aI5957
aI6041
aI6086
aI6087
aI6211
aI6212
aI6214
aI6299
aI6300
aI6339
aI6340
aI6342
aI6428
aI6449
aI6450
aI6454
aI6458
aI6465
aI6466
aI6555
aI6556
aI6577
aI6592
aI6593
aI6683
aI6684
aI6685
aI6697
aI6701
aI6703
aI6710
aI6811
aI6812
aI6825
aI6847
aI6856
aI6938
aI7065
aI7066
aI7067
aI7193
aI7320
aI7478
aI7702
aI7704
aI7831
aI7869
aI8885
aI9006
aI9009
aI9010
aI9011
aI9014
aI9032
aI9139
aI9145
aI9265
aI9267
aI9268
aI9269
aI9270
aI9395
aI9396
aI9782
aI9910
aI10421
aI10549
aI10561
aI10806
aI10941
aI11061
aI11062
aI11069
aI11185
aI11186
aI11187
aI11188
aI11312
aI11315
aI11564
aI11565
aI11566
aI11567
aI11568
aI11569
aI11690
aI11693
aI11695
aI11696
aI11819
aI11821
aI11822
aI11881
aI11948
aI12456
aI16400
aI16415
aI16417
aI16421
aI16434
aI16493
aI16526
aI16542
aI16544
aI16545
aI16549
aI16557
aI16570
aI16600
aI16607
aI16631
aI16663
aI16675
aI16706
aI16723
aI16735
aI16767
aI16791
aI16805
aI16822
aI16827
aI16831
aI16832
aI16833
aI16840
aI16841
aI16862
aI16866
aI16879
aI16880
aI16921
aI16977
aI16978
aI17060
aI17062
aI17063
aI17064
aI17070
aI17079
aI17083
aI17097
aI17100
aI17101
aI17102
aI17147
aI17200
aI17211
aI17231
aI17237
aI17283
aI17301
aI17305
aI17306
aI17313
aI17328
aI17332
aI17394
aI17429
aI17430
aI17436
aI17441
aI17558
aI17565
aI17623
aI17640
aI17681
aI17688
aI17711
aI17715
aI17725
aI17751
aI17813
aI17816
aI17831
aI17883
aI17908
aI17910
aI17940
aI17942
aI18009
aI18064
aI18095
aI18097
aI18101
aI18202
aI18220
aI18223
aI18269
aI18300
aI18413
aI18444
aI18446
aI18515
aI18526
aI18557
aI18566
aI18588
aI18643
aI18670
aI18676
aI18685
aI18687
aI18724
aI18798
aI18815
aI18818
aI18822
aI18842
aI18843
aI18853
aI18927
aI18971
aI18976
aI18990
aI19186
aI19196
aI19314
aI19352
aI19359
aI19405
aI19442
aI19445
aI19451
aI19452
aI19503
aI19537
aI19540
aI19557
aI19562
aI19564
aI19620
aI19622
aI19631
aI19665
aI19812
aI19815
aI19887
aI19961
aI19962
aI20071
aI20073
aI20100
aI20126
aI20129
aI20141
aI20177
aI20253
aI20257
aI20333
aI20355
aI20356
aI20358
aI20359
aI20372
aI20384
aI20393
aI20413
aI20454
aI20469
aI20484
aI20488
aI20495
aI20512
aI20520
aI20522
aI20596
aI20597
aI20661
aI20723
aI20724
aI20725
aI20731
aI20741
aI20745
aI20747
aI20751
aI20773
aI20777
aI20781
aI20873
aI20973
aI21022
aI21097
aI21118
aI21167
aI21168
aI21169
aI21253
aI21264
aI21272
aI21277
aI21278
aI21279
aI21281
aI21282
aI21289
aI21405
aI21419
aI21422
aI21434
aI21535
aI21536
aI21548
aI21549
aI21550
aI21551
aI21552
aI21630
aI21632
aI21633
aI21634
aI21663
aI21669
aI21670
aI21671
aI21729
aI21758
aI21791
aI21794
aI21797
aI21801
aI21892
aI21907
aI21920
aI21921
aI21922
aI21974
aI22033
aI22044
aI22049
aI22050
aI22144
aI22165
aI22172
aI22176
aI22232
aI22301
aI22303
aI22304
aI22410
aI22413
aI22422
aI22429
aI22431
aI22504
aI22530
aI22538
aI22539
aI22560
aI22654
aI22656
aI22658
aI22666
aI22677
aI22678
aI22782
aI22788
aI22802
aI22803
aI22908
aI22920
aI22927
aI22930
aI22932
aI22945
aI22946
aI23043
aI23058
aI23059
aI23060
aI23073
aI23074
aI23178
aI23179
aI23181
aI23185
aI23201
aI23202
aI23309
aI23326
aI23329
aI23376
aI23410
aI23432
aI23438
aI23439
aI23561
aI23565
aI23566
aI23632
aI23671
aI23686
aI23689
aI23693
aI23695
aI23722
aI23723
aI23760
aI23816
aI23817
aI23821
aI23822
aI23899
aI23938
aI23944
aI23978
aI24012
aI24026
aI24027
aI24031
aI24037
aI24039
aI24062
aI24075
aI24094
aI24095
aI24159
aI24165
aI24184
aI24186
aI24195
aI24200
aI24231
aI24232
aI24294
aI24311
aI24415
aI24417
aI24459
aI24491
aI24650
aI24708
aI24831
aI24842
aI24843
aI24844
aI24891
aI24909
aI24911
aI24963
aI24966
aI24969
aI24972
aI25088
aI25093
aI25097
aI25100
aI25128
aI25185
aI25226
aI25227
aI25257
aI25350
aI25355
aI25480
aI25483
aI25561
aI25612
aI25685
aI25709
aI25733
aI25740
aI25743
aI25842
aI25862
aI25869
aI25871
aI25924
aI25932
aI25992
aI26001
aI26201
aI26203
aI26256
aI26261
aI26345
aI26351
aI26367
aI26371
aI26383
aI26388
aI26389
aI26390
aI26393
aI26395
aI26396
aI26473
aI26514
aI26515
aI26521
aI26522
aI26523
aI26633
aI26641
aI26650
aI26652
aI26693
aI26728
aI26772
aI26778
aI26779
aI26780
aI26828
aI26836
aI26871
aI26887
aI26889
aI26899
aI26900
aI26906
aI26907
aI26993
aI27032
aI27036
aI27037
aI27038
aI27169
aI27205
aI27228
aI27250
aI27251
aI27253
aI27275
aI27283
aI27292
aI27294
aI27328
aI27333
aI27382
aI27384
aI27411
aI27412
aI27423
aI27424
aI27537
aI27550
aI27552
aI27556
aI27619
aI27656
aI27784
aI27806
aI27809
aI27811
aI27812
aI27814
aI27852
aI27916
aI27967
aI27988
aI28035
aI28069
aI28070
aI28071
aI28118
aI28125
aI28178
aI28241
aI28243
aI28250
aI28296
aI28306
aI28362
aI28370
aI28379
aI28396
aI28400
aI28444
aI28491
aI28510
aI28527
aI28637
aI28678
aI28691
aI28693
aI28695
aI28813
aI28896
aI28944
aI29074
aI29085
aI29177
aI29196
aI29213
aI29333
aI29423
aI29424
aI29435
aI29551
aI29565
aI29924
aI30054
aI30073
aI30216
aI30293
aI30295
aI30307
aI30561
aI30562
aI30597
aI30715
aI30721
aI30842
aI30844
aI30849
aI30854
aI30970
aI31084
aI31099
aI31100
aI31167
aI31357
aI31391
aI31555
aI31607
aI31648
aI31721
aI31728
aI31774
aI31902
aI31957
aI31993
aI32016
aI32071
aI32086
aI32098
aI32121
aI32194
aI32197
aI32296
aI32311
aI32312
aI32323
aI32415
aI32486
aI32516
aI32744
aa.