(lp1
(lp2
I5440
aI5441
aI5568
aI5569
aI5696
aI5697
aI5824
aI5825
aI5952
aI5953
aa(lp3
a(lp4
I5951
aI6080
aa(lp5
I5439
aI5823
aI6079
aI6081
aa(lp6
I5567
aI5695
aI6207
aI6208
aI6209
aI6335
aI6336
aI6337
aa(lp7
I5312
aI5313
aI5442
aI5570
aI6677
aI6678
aI6679
aI6806
aI10670
aa(lp8
I5185
aI5311
aI5698
aI5826
aI5954
aI6206
aI6463
aI6549
aI6550
aI6551
aI6571
aI6574
aI6576
aI6805
aI6807
aI6933
aI6934
aI7187
aI7188
aI7315
aI7443
aI7444
aI9262
aI9520
aI9648
aI10413
aI10541
aI10542
aI10669
aI21163
aI21411
aI21412
aI21415
aI21658
aI21662
aI21788
aI21789
aI21790
aI21791
aI21794
aI21912
aI21914
aI21915
aI22039
aI22040
aI22042
aI22043
aI22294
aI22420
aI22425
aI22541
aI22542
aI22545
aI22798
aI22924
aI22925
aI23052
aI23053
aI23054
aI23179
aI23307
aI23559
aI23560
aI23938
aI23942
aI24067
aI24194
aI24704
aI24708
aI25221
aI25994
aI26388
aI26389
aI26390
aI26513
aI26514
aI26516
aI26517
aI26518
aI26642
aI26643
aI26645
aI26771
aI26899
aI26901
aI26902
aa(lp9
I4923
aI4924
aI4925
aI5050
aI5051
aI5052
aI5053
aI5054
aI5055
aI5056
aI5057
aI5178
aI5179
aI5181
aI5182
aI5183
aI5184
aI5314
aI6078
aI6293
aI6334
aI6421
aI6443
aI6444
aI6445
aI6446
aI6448
aI6450
aI6451
aI6453
aI6455
aI6456
aI6461
aI6568
aI6569
aI6570
aI6572
aI6573
aI6575
aI6577
aI6580
aI6583
aI6680
aI6690
aI6694
aI6696
aI6697
aI6701
aI6808
aI6932
aI7060
aI7061
aI7062
aI7101
aI7186
aI7210
aI7314
aI7316
aI7442
aI7568
aI7569
aI7696
aI7697
aI7824
aI7825
aI7951
aI7952
aI8080
aI8338
aI8467
aI8601
aI8628
aI8629
aI8874
aI9001
aI9004
aI9132
aI9133
aI9147
aI9261
aI9263
aI9389
aI9390
aI9391
aI9392
aI9518
aI9519
aI9646
aI9647
aI9775
aI9776
aI9778
aI9902
aI9903
aI9904
aI9905
aI10030
aI10032
aI10034
aI10158
aI10161
aI10162
aI10285
aI10286
aI10287
aI10288
aI10414
aI10415
aI10416
aI10545
aI10671
aI10673
aI10797
aI10798
aI10926
aI11053
aI11179
aI11686
aI11812
aI11813
aI12746
aI14153
aI15227
aI16401
aI16460
aI16467
aI16468
aI16471
aI16473
aI16529
aI16598
aI16599
aI16601
aI16602
aI16616
aI16630
aI16653
aI16669
aI16677
aI16682
aI16709
aI16727
aI16729
aI16730
aI16740
aI16750
aI16755
aI16757
aI16759
aI16788
aI16792
aI16804
aI16806
aI16807
aI16810
aI16814
aI16875
aI16878
aI16890
aI16927
aI16943
aI16963
aI16992
aI16994
aI16998
aI17002
aI17003
aI17015
aI17016
aI17030
aI17035
aI17050
aI17052
aI17091
aI17092
aI17093
aI17095
aI17098
aI17099
aI17121
aI17124
aI17146
aI17160
aI17161
aI17162
aI17163
aI17165
aI17167
aI17220
aI17225
aI17230
aI17241
aI17249
aI17258
aI17273
aI17274
aI17303
aI17324
aI17345
aI17346
aI17347
aI17362
aI17363
aI17371
aI17403
aI17426
aI17445
aI17447
aI17467
aI17469
aI17477
aI17489
aI17503
aI17505
aI17572
aI17614
aI17617
aI17631
aI17675
aI17709
aI17719
aI17720
aI17721
aI17722
aI17728
aI17730
aI17741
aI17749
aI17753
aI17762
aI17763
aI17768
aI17787
aI17788
aI17789
aI17791
aI17832
aI17845
aI17849
aI17871
aI17878
aI17893
aI17894
aI17895
aI17906
aI17907
aI17918
aI17919
aI17930
aI17953
aI17969
aI17975
aI17979
aI17999
aI18000
aI18002
aI18003
aI18029
aI18030
aI18031
aI18037
aI18039
aI18048
aI18058
aI18061
aI18076
aI18100
aI18104
aI18107
aI18113
aI18124
aI18134
aI18142
aI18150
aI18152
aI18153
aI18156
aI18162
aI18164
aI18165
aI18166
aI18175
aI18225
aI18284
aI18290
aI18295
aI18322
aI18356
aI18389
aI18393
aI18397
aI18409
aI18452
aI18481
aI18482
aI18520
aI18523
aI18574
aI18604
aI18606
aI18608
aI18609
aI18610
aI18623
aI18658
aI18666
aI18680
aI18688
aI18702
aI18705
aI18720
aI18730
aI18733
aI18755
aI18779
aI18782
aI18786
aI18816
aI18827
aI18855
aI18872
aI18887
aI18889
aI18906
aI18924
aI18926
aI18940
aI18943
aI18944
aI18961
aI18962
aI18987
aI19045
aI19052
aI19068
aI19069
aI19070
aI19071
aI19085
aI19091
aI19093
aI19094
aI19097
aI19098
aI19114
aI19151
aI19171
aI19180
aI19185
aI19220
aI19225
aI19251
aI19296
aI19309
aI19312
aI19327
aI19343
aI19345
aI19370
aI19382
aI19423
aI19438
aI19439
aI19447
aI19479
aI19481
aI19482
aI19485
aI19488
aI19490
aI19495
aI19498
aI19499
aI19524
aI19553
aI19569
aI19574
aI19578
aI19579
aI19580
aI19581
aI19607
aI19609
aI19612
aI19615
aI19618
aI19626
aI19627
aI19628
aI19664
aI19680
aI19682
aI19683
aI19688
aI19697
aI19698
aI19705
aI19707
aI19708
aI19709
aI19722
aI19734
aI19740
aI19742
aI19743
aI19747
aI19750
aI19751
aI19755
aI19808
aI19824
aI19826
aI19830
aI19833
aI19858
aI19860
aI19861
aI19862
aI19864
aI19867
aI19871
aI19872
aI19877
aI19884
aI19885
aI19886
aI19888
aI19931
aI19955
aI19960
aI19978
aI19995
aI19996
aI19997
aI20004
aI20012
aI20014
aI20044
aI20066
aI20086
aI20088
aI20095
aI20124
aI20125
aI20194
aI20216
aI20223
aI20248
aI20249
aI20270
aI20271
aI20272
aI20276
aI20279
aI20323
aI20324
aI20329
aI20342
aI20351
aI20361
aI20367
aI20374
aI20380
aI20388
aI20397
aI20405
aI20408
aI20446
aI20451
aI20477
aI20500
aI20502
aI20504
aI20506
aI20514
aI20530
aI20566
aI20567
aI20572
aI20576
aI20641
aI20642
aI20653
aI20654
aI20668
aI20687
aI20692
aI20708
aI20762
aI20763
aI20769
aI20775
aI20794
aI20819
aI20831
aI20845
aI20847
aI20869
aI20891
aI20892
aI20916
aI20955
aI20958
aI20964
aI20966
aI20982
aI21012
aI21023
aI21045
aI21095
aI21096
aI21113
aI21121
aI21135
aI21142
aI21149
aI21154
aI21157
aI21158
aI21159
aI21161
aI21162
aI21170
aI21173
aI21238
aI21239
aI21240
aI21243
aI21274
aI21281
aI21283
aI21284
aI21285
aI21287
aI21291
aI21292
aI21296
aI21298
aI21316
aI21346
aI21356
aI21362
aI21363
aI21397
aI21398
aI21399
aI21402
aI21404
aI21410
aI21413
aI21414
aI21417
aI21418
aI21419
aI21420
aI21424
aI21425
aI21426
aI21427
aI21456
aI21477
aI21488
aI21489
aI21490
aI21493
aI21494
aI21500
aI21517
aI21520
aI21525
aI21526
aI21528
aI21530
aI21531
aI21533
aI21534
aI21535
aI21536
aI21537
aI21538
aI21539
aI21540
aI21556
aI21615
aI21617
aI21618
aI21621
aI21622
aI21641
aI21644
aI21645
aI21648
aI21653
aI21654
aI21660
aI21663
aI21666
aI21730
aI21731
aI21743
aI21745
aI21751
aI21752
aI21760
aI21777
aI21782
aI21786
aI21787
aI21792
aI21793
aI21863
aI21870
aI21874
aI21877
aI21878
aI21879
aI21884
aI21888
aI21900
aI21903
aI21910
aI21911
aI21913
aI22008
aI22025
aI22028
aI22029
aI22030
aI22037
aI22041
aI22154
aI22162
aI22163
aI22167
aI22168
aI22169
aI22170
aI22243
aI22279
aI22280
aI22281
aI22282
aI22293
aI22295
aI22296
aI22297
aI22298
aI22405
aI22407
aI22413
aI22415
aI22416
aI22418
aI22423
aI22426
aI22471
aI22476
aI22531
aI22532
aI22533
aI22540
aI22546
aI22554
aI22624
aI22664
aI22665
aI22669
aI22670
aI22671
aI22672
aI22673
aI22746
aI22794
aI22795
aI22796
aI22797
aI22800
aI22860
aI22913
aI22921
aI22923
aI22926
aI22939
aI23001
aI23005
aI23046
aI23047
aI23049
aI23050
aI23051
aI23125
aI23175
aI23176
aI23178
aI23195
aI23196
aI23197
aI23238
aI23255
aI23258
aI23271
aI23272
aI23300
aI23301
aI23302
aI23303
aI23305
aI23306
aI23391
aI23427
aI23430
aI23432
aI23433
aI23434
aI23452
aI23464
aI23483
aI23507
aI23508
aI23510
aI23512
aI23519
aI23521
aI23529
aI23557
aI23561
aI23584
aI23585
aI23630
aI23646
aI23681
aI23683
aI23685
aI23686
aI23687
aI23688
aI23689
aI23713
aI23774
aI23789
aI23809
aI23811
aI23812
aI23815
aI23850
aI23853
aI23867
aI23883
aI23890
aI23893
aI23897
aI23898
aI23902
aI23911
aI23913
aI23926
aI23930
aI23934
aI23936
aI23937
aI23940
aI23941
aI24005
aI24022
aI24033
aI24034
aI24035
aI24064
aI24065
aI24066
aI24068
aI24069
aI24070
aI24096
aI24137
aI24139
aI24140
aI24160
aI24162
aI24169
aI24170
aI24172
aI24185
aI24187
aI24193
aI24196
aI24197
aI24198
aI24212
aI24215
aI24217
aI24220
aI24223
aI24224
aI24226
aI24233
aI24266
aI24271
aI24278
aI24284
aI24285
aI24286
aI24292
aI24293
aI24296
aI24301
aI24303
aI24317
aI24321
aI24322
aI24324
aI24325
aI24326
aI24343
aI24346
aI24379
aI24411
aI24444
aI24446
aI24450
aI24454
aI24502
aI24517
aI24546
aI24548
aI24559
aI24561
aI24567
aI24572
aI24576
aI24578
aI24579
aI24580
aI24582
aI24599
aI24603
aI24604
aI24605
aI24641
aI24649
aI24657
aI24658
aI24669
aI24682
aI24700
aI24706
aI24707
aI24709
aI24710
aI24727
aI24731
aI24732
aI24733
aI24768
aI24777
aI24780
aI24785
aI24798
aI24799
aI24802
aI24832
aI24833
aI24834
aI24835
aI24836
aI24837
aI24869
aI24950
aI24952
aI24954
aI24958
aI24959
aI24961
aI24962
aI24963
aI24964
aI25020
aI25024
aI25025
aI25040
aI25041
aI25048
aI25049
aI25050
aI25072
aI25085
aI25088
aI25089
aI25090
aI25091
aI25093
aI25094
aI25121
aI25166
aI25168
aI25207
aI25210
aI25217
aI25218
aI25219
aI25220
aI25222
aI25281
aI25322
aI25323
aI25331
aI25336
aI25345
aI25346
aI25348
aI25452
aI25475
aI25477
aI25478
aI25539
aI25588
aI25589
aI25599
aI25600
aI25604
aI25605
aI25607
aI25653
aI25696
aI25720
aI25728
aI25732
aI25734
aI25737
aI25791
aI25794
aI25812
aI25824
aI25832
aI25847
aI25848
aI25862
aI25863
aI25865
aI25921
aI25927
aI25933
aI25960
aI25965
aI25975
aI25997
aI25999
aI26001
aI26065
aI26066
aI26068
aI26076
aI26080
aI26090
aI26091
aI26097
aI26100
aI26106
aI26122
aI26123
aI26124
aI26125
aI26126
aI26127
aI26128
aI26129
aI26197
aI26198
aI26199
aI26207
aI26225
aI26235
aI26257
aI26326
aI26347
aI26372
aI26373
aI26375
aI26376
aI26382
aI26385
aI26387
aI26486
aI26489
aI26510
aI26515
aI26559
aI26600
aI26615
aI26621
aI26625
aI26626
aI26635
aI26637
aI26638
aI26639
aI26644
aI26646
aI26647
aI26709
aI26743
aI26749
aI26750
aI26752
aI26753
aI26754
aI26756
aI26766
aI26770
aI26772
aI26773
aI26774
aI26775
aI26858
aI26878
aI26882
aI26884
aI26897
aI26900
aI26903
aI26990
aI26991
aI27006
aI27007
aI27013
aI27028
aI27029
aI27030
aI27032
aI27114
aI27136
aI27150
aI27155
aI27160
aI27161
aI27241
aI27265
aI27287
aI27348
aI27364
aI27368
aI27390
aI27408
aI27417
aI27418
aI27419
aI27455
aI27458
aI27459
aI27471
aI27472
aI27497
aI27498
aI27499
aI27520
aI27542
aI27543
aI27546
aI27547
aI27615
aI27618
aI27634
aI27654
aI27661
aI27664
aI27665
aI27666
aI27710
aI27717
aI27718
aI27794
aI27795
aI27804
aI27831
aI27832
aI27846
aI27881
aI27904
aI27922
aI27929
aI27932
aI27933
aI27936
aI27937
aI27968
aI28010
aI28031
aI28057
aI28058
aI28060
aI28064
aI28066
aI28091
aI28105
aI28119
aI28128
aI28165
aI28184
aI28214
aI28248
aI28249
aI28281
aI28287
aI28305
aI28336
aI28371
aI28375
aI28377
aI28394
aI28409
aI28412
aI28413
aI28461
aI28463
aI28484
aI28509
aI28522
aI28523
aI28537
aI28542
aI28626
aI28628
aI28633
aI28656
aI28665
aI28698
aI28765
aI28778
aI28780
aI28795
aI28826
aI28861
aI28909
aI28922
aI28940
aI28942
aI28945
aI29020
aI29021
aI29038
aI29069
aI29070
aI29149
aI29150
aI29166
aI29180
aI29192
aI29202
aI29205
aI29214
aI29215
aI29216
aI29217
aI29236
aI29278
aI29286
aI29291
aI29306
aI29315
aI29316
aI29317
aI29403
aI29406
aI29412
aI29414
aI29580
aI29679
aI29716
aI29950
aI30062
aI30078
aI30165
aI30166
aI30173
aI30174
aI30177
aI30189
aI30191
aI30192
aI30199
aI30322
aI30327
aI30351
aI30565
aI30589
aI30725
aI30729
aI30759
aI30760
aI30780
aI30834
aI30906
aI30922
aI30924
aI30941
aI30942
aI30953
aI30999
aI31074
aI31078
aI31097
aI31105
aI31115
aI31133
aI31177
aI31200
aI31218
aI31221
aI31233
aI31236
aI31240
aI31297
aI31339
aI31341
aI31347
aI31356
aI31439
aI31450
aI31477
aI31617
aI31673
aI31702
aI31736
aI31745
aI31779
aI31795
aI31800
aI31804
aI31825
aI31829
aI31848
aI31851
aI31871
aI31873
aI31897
aI31901
aI31946
aI31953
aI31974
aI31976
aI31980
aI31981
aI31992
aI31997
aI32009
aI32029
aI32035
aI32065
aI32104
aI32111
aI32122
aI32126
aI32159
aI32183
aI32190
aI32195
aI32206
aI32245
aI32281
aI32287
aI32297
aI32301
aI32318
aI32325
aI32333
aI32338
aI32353
aI32355
aI32356
aI32426
aI32488
aI32512
aI32540
aI32541
aI32545
aI32566
aI32593
aI32599
aI32605
aI32612
aI32628
aI32669
aI32675
aI32676
aI32686
aI32745
aI32757
aI32762
aI32765
aa.