(lp1
(lp2
I7908
aa(lp3
I7909
aI8036
aI8289
aa(lp4
I7781
aI8035
aI8161
aI8416
aI8417
aa(lp5
I7144
aI7272
aI7400
aI7526
aI7654
aI8037
aI8544
aI8545
aI9725
aI9726
aa(lp6
I7399
aI7527
aI7655
aI7780
aI7907
aI8162
aI8288
aI8290
aI9853
aI9854
aI9983
aI10111
aI10239
aI10367
aI10495
aI10622
aI10623
aI10750
aa(lp7
I6887
aI7015
aI7016
aI7017
aI7271
aI7398
aI7528
aI7782
aI8034
aI8160
aI8418
aI8673
aI8674
aI8802
aI8803
aI8804
aI8930
aI8931
aI9336
aI9597
aI9982
aI10494
aI10751
aI10878
aI10879
aI11006
aI11007
aI11134
aI11387
aI11388
aI11514
aI11516
aI11768
aI22133
aI22134
aI22636
aI22764
aI23139
aI23265
aI23266
aI23519
aa(lp8
I6759
aI6886
aI6889
aI7036
aI7037
aI7038
aI7039
aI7143
aI7145
aI7146
aI7164
aI7165
aI7166
aI7273
aI7656
aI7783
aI8163
aI8546
aI8672
aI8805
aI8806
aI8932
aI8933
aI8934
aI9199
aI9335
aI9337
aI9463
aI9464
aI9465
aI9596
aI9598
aI9599
aI9724
aI9852
aI10110
aI10238
aI10366
aI11135
aI11260
aI11261
aI11262
aI11515
aI11641
aI11769
aI11897
aI12019
aI12020
aI22131
aI22132
aI22260
aI22261
aI22382
aI22384
aI22508
aI22509
aI22637
aI22765
aI22891
aI23019
aI23137
aI23138
aI23264
aI23267
aI23391
aI23404
aI23518
aI23645
aI23772
aI23900
aI24026
aI24027
aI24153
aI24279
aI24280
aI24407
aI24790
aI25174
aI25302
aI25685
aI25812
aI26068
aI26721
aI27085
aI27365
aI28008
aI28009
aa(lp9
I775
aI2143
aI2674
aI3045
aI3373
aI3445
aI3595
aI3628
aI3670
aI3965
aI4223
aI4904
aI5039
aI5383
aI5921
aI6631
aI6758
aI6760
aI6761
aI6888
aI6890
aI6909
aI6910
aI6911
aI7014
aI7018
aI7035
aI7142
aI7161
aI7162
aI7163
aI7167
aI7207
aI7270
aI7274
aI7287
aI7288
aI7291
aI7292
aI7295
aI7401
aI7402
aI7415
aI7416
aI7423
aI7653
aI7779
aI7784
aI7906
aI7910
aI8038
aI8164
aI8165
aI8183
aI8291
aI8292
aI8419
aI8420
aI8543
aI8547
aI8671
aI8675
aI8676
aI8677
aI8692
aI8704
aI8732
aI8801
aI8807
aI8821
aI8823
aI8935
aI8936
aI8937
aI8942
aI8959
aI9060
aI9061
aI9062
aI9064
aI9078
aI9087
aI9197
aI9207
aI9208
aI9209
aI9210
aI9211
aI9235
aI9328
aI9338
aI9339
aI9340
aI9466
aI9467
aI9468
aI9470
aI9471
aI9594
aI9595
aI9621
aI9727
aI9855
aI9878
aI10031
aI10877
aI11005
aI11133
aI11258
aI11259
aI11263
aI11386
aI11389
aI11517
aI11640
aI11642
aI11644
aI11645
aI11767
aI11770
aI11890
aI11891
aI11892
aI11893
aI11895
aI11898
aI11900
aI12018
aI12021
aI12025
aI12146
aI12147
aI12148
aI12149
aI12661
aI12787
aI12788
aI12790
aI12913
aI12915
aI13045
aI13585
aI13615
aI13864
aI13945
aI14075
aI14076
aI14257
aI14632
aI14695
aI14717
aI14894
aI15211
aI15600
aI15739
aI15980
aI16081
aI16111
aI16374
aI16399
aI16442
aI16443
aI16567
aI17986
aI18118
aI18178
aI18240
aI18344
aI19335
aI19527
aI19644
aI19688
aI19723
aI19772
aI19852
aI19889
aI20234
aI20281
aI20286
aI20296
aI20321
aI20324
aI20338
aI20809
aI20854
aI20855
aI20859
aI20940
aI20948
aI20981
aI21054
aI21108
aI21170
aI21184
aI21186
aI21218
aI21233
aI21303
aI21342
aI21343
aI21359
aI21360
aI21517
aI21518
aI21559
aI21596
aI21597
aI21615
aI21664
aI21729
aI21735
aI21754
aI21756
aI21834
aI21855
aI21868
aI21873
aI21887
aI21978
aI21979
aI21997
aI22001
aI22002
aI22003
aI22005
aI22007
aI22009
aI22010
aI22011
aI22012
aI22014
aI22045
aI22059
aI22113
aI22122
aI22123
aI22127
aI22128
aI22129
aI22130
aI22135
aI22229
aI22248
aI22249
aI22250
aI22251
aI22252
aI22254
aI22256
aI22259
aI22262
aI22357
aI22359
aI22360
aI22380
aI22381
aI22383
aI22385
aI22387
aI22484
aI22485
aI22500
aI22507
aI22510
aI22620
aI22628
aI22629
aI22635
aI22638
aI22739
aI22757
aI22762
aI22763
aI22850
aI22884
aI22889
aI22890
aI23006
aI23007
aI23009
aI23010
aI23084
aI23129
aI23131
aI23134
aI23136
aI23234
aI23258
aI23259
aI23364
aI23387
aI23389
aI23405
aI23507
aI23508
aI23509
aI23516
aI23517
aI23532
aI23533
aI23594
aI23619
aI23625
aI23639
aI23640
aI23641
aI23644
aI23646
aI23661
aI23663
aI23668
aI23753
aI23757
aI23761
aI23766
aI23769
aI23770
aI23771
aI23773
aI23789
aI23889
aI23898
aI23899
aI23941
aI24000
aI24016
aI24019
aI24020
aI24023
aI24025
aI24028
aI24135
aI24137
aI24140
aI24151
aI24152
aI24154
aI24266
aI24268
aI24269
aI24275
aI24281
aI24282
aI24324
aI24325
aI24359
aI24360
aI24393
aI24401
aI24402
aI24403
aI24404
aI24405
aI24406
aI24517
aI24529
aI24530
aI24531
aI24532
aI24533
aI24534
aI24640
aI24655
aI24660
aI24661
aI24662
aI24779
aI24783
aI24788
aI24789
aI24904
aI24915
aI24916
aI24917
aI24918
aI25002
aI25036
aI25040
aI25045
aI25129
aI25172
aI25270
aI25280
aI25286
aI25290
aI25291
aI25300
aI25301
aI25402
aI25411
aI25413
aI25421
aI25422
aI25428
aI25429
aI25430
aI25496
aI25557
aI25558
aI25679
aI25684
aI25686
aI25784
aI25807
aI25813
aI25814
aI25940
aI25942
aI26059
aI26069
aI26070
aI26173
aI26187
aI26189
aI26200
aI26297
aI26324
aI26327
aI26328
aI26458
aI26459
aI26550
aI26557
aI26571
aI26576
aI26588
aI26592
aI26691
aI26700
aI26702
aI26716
aI26720
aI26801
aI26830
aI26835
aI26845
aI26848
aI26849
aI26850
aI26851
aI26961
aI26964
aI26974
aI26977
aI26980
aI26981
aI27086
aI27089
aI27090
aI27092
aI27095
aI27097
aI27103
aI27108
aI27218
aI27237
aI27290
aI27348
aI27361
aI27362
aI27363
aI27477
aI27491
aI27493
aI27494
aI27495
aI27589
aI27597
aI27605
aI27606
aI27616
aI27620
aI27622
aI27623
aI27730
aI27749
aI27847
aI27879
aI27989
aI27992
aI28001
aI28007
aI28100
aI28106
aI28107
aI28109
aI28118
aI28129
aI28135
aI28136
aI28137
aI28267
aI28268
aI28386
aI28392
aI28394
aI28396
aI28488
aI28495
aI28507
aI28511
aI28516
aI28524
aI28525
aI28624
aI28653
aI28673
aI28749
aI28762
aI28896
aI29009
aI29092
aI29140
aI29142
aI29184
aI29270
aI29285
aI29525
aI29526
aI29639
aI29792
aI29920
aI29986
aI30039
aI30427
aI30563
aI30571
aI30765
aI31248
aI32582
aa.