(lp1
(lp2
a(lp3
a(lp4
a(lp5
a(lp6
a(lp7
a(lp8
a(lp9
I50
aI148
aI151
aI196
aI205
aI297
aI303
aI386
aI442
aI451
aI570
aI1152
aI1199
aI1350
aI1480
aI1608
aI1737
aI1957
aI2125
aI2149
aI2361
aI2396
aI2588
aI2622
aI2696
aI2817
aI2901
aI2946
aI2949
aI2951
aI2957
aI3152
aI3160
aI3356
aI3419
aI3493
aI3538
aI3557
aI3578
aI3591
aI3605
aI3676
aI3715
aI3909
aI3933
aI4098
aI4118
aI4314
aI4477
aI4704
aI4724
aI4725
aI4734
aI4880
aI4998
aI5082
aI5192
aI5255
aI5292
aI5388
aI5472
aI5543
aI5599
aI5751
aI5788
aI5842
aI6018
aI6056
aI6079
aI6111
aI6125
aI6127
aI6156
aI6173
aI6245
aI6256
aI6280
aI6389
aI6390
aI6393
aI6417
aI6420
aI6430
aI6451
aI6457
aI6463
aI6485
aI6503
aI6510
aI6511
aI6609
aI6636
aI6638
aI6699
aI6708
aI6855
aI6896
aI6948
aI7090
aI7412
aI7463
aI7485
aI7547
aI7934
aI8094
aI8154
aI8171
aI8176
aI8177
aI8360
aI8440
aI8486
aI8487
aI8506
aI8558
aI8577
aI8656
aI8662
aI8886
aI8906
aI8986
aI8998
aI9009
aI9014
aI9017
aI9018
aI9035
aI9055
aI9076
aI9084
aI9149
aI9182
aI9251
aI9262
aI9293
aI9336
aI9403
aI9414
aI9460
aI9470
aI9530
aI9542
aI9767
aI9805
aI9858
aI9897
aI9919
aI9922
aI9926
aI9928
aI9954
aI9958
aI10049
aI10119
aI10122
aI10285
aI10290
aI10301
aI10327
aI10579
aI10580
aI10604
aI10678
aI10688
aI10727
aI10762
aI10829
aI10892
aI10958
aI11046
aI11171
aI11239
aI11338
aI11519
aI11582
aI11647
aI11652
aI11661
aI11668
aI11715
aI11731
aI11733
aI11752
aI11777
aI12066
aI12070
aI12084
aI12100
aI12123
aI12180
aI12200
aI12224
aI12228
aI12233
aI12250
aI12254
aI12264
aI12289
aI12296
aI12302
aI12307
aI12311
aI12316
aI12340
aI12414
aI12417
aI12424
aI12432
aI12439
aI12444
aI12485
aI12598
aI12628
aI12696
aI12711
aI12750
aI12770
aI12773
aI12832
aI12835
aI12861
aI12925
aI12958
aI12959
aI13056
aI13057
aI13076
aI13122
aI13134
aI13241
aI13343
aI13351
aI13364
aI13365
aI13375
aI13376
aI13388
aI13466
aI13491
aI13492
aI13493
aI13596
aI13615
aI13622
aI13653
aI13707
aI13835
aI13860
aI13864
aI13876
aI13927
aI13936
aI13993
aI14111
aI14144
aI14185
aI14196
aI14246
aI14284
aI14302
aI14307
aI14315
aI14424
aI14454
aI14625
aI14721
aI14765
aI14871
aI14926
aI14938
aI14939
aI14956
aI14957
aI14966
aI14978
aI15001
aI15006
aI15149
aI15150
aI15156
aI15159
aI15238
aI15247
aI15249
aI15346
aI15350
aI15702
aI15741
aI15886
aI15901
aI15939
aI16062
aI16079
aI16112
aI16128
aI16216
aI16232
aI16243
aI16266
aI16363
aI16373
aI16383
aI16643
aI16672
aI16703
aI16768
aI16822
aI16841
aI17057
aI17059
aI17197
aI17235
aI17302
aI17411
aI17412
aI17416
aI17463
aI17479
aI17490
aI17551
aI17607
aI17803
aI17930
aI17963
aI17967
aI17983
aI18092
aI18104
aI18105
aI18111
aI18113
aI18114
aI18162
aI18231
aI18334
aI18342
aI18366
aI18513
aI18514
aI18615
aI18641
aI18820
aI18821
aI18851
aI18871
aI18895
aI18896
aI19119
aI19383
aI19386
aI19394
aI19407
aI19503
aI19588
aI19603
aI19605
aI19794
aI19841
aI19897
aI20133
aI20183
aI20305
aI20307
aI20354
aI20440
aI20442
aI20446
aI20523
aI20621
aI20623
aI20675
aI20679
aI20695
aI20768
aI20797
aI20810
aI20849
aI20888
aI20928
aI21016
aI21026
aI21034
aI21176
aI21199
aI21218
aI21261
aI21282
aI21284
aI21302
aI21314
aI21340
aI21341
aI21398
aI21402
aI21508
aI21538
aI21544
aI21545
aI21558
aI21636
aI21649
aI21744
aI21757
aI21761
aI21765
aI21795
aI21842
aI21929
aI21948
aI21966
aI21967
aI21987
aI21993
aI22032
aI22056
aI22090
aI22095
aI22096
aI22120
aI22144
aI22238
aI22248
aI22265
aI22268
aI22283
aI22376
aI22549
aI22581
aI22718
aI22748
aI22762
aI22764
aI22786
aI22817
aI22914
aI23025
aI23069
aI23103
aI23146
aI23172
aI23204
aI23224
aI23251
aI23350
aI23356
aI23381
aI23395
aI23466
aI23586
aI23601
aI23625
aI23770
aI23843
aI23918
aI24002
aI24048
aI24134
aI24135
aI24237
aI24283
aI24404
aI24431
aI24484
aI24511
aI24524
aI24652
aI24698
aI24780
aI24785
aI24826
aI25005
aI25035
aI25133
aI25154
aI25168
aI25197
aI25217
aI25221
aI25293
aI25345
aI25407
aI25495
aI25602
aI25638
aI25743
aI25753
aI25804
aI25832
aI25845
aI25859
aI25940
aI25941
aI25944
aI25953
aI25975
aI25976
aI25986
aI26013
aI26025
aI26040
aI26055
aI26067
aI26068
aI26073
aI26074
aI26088
aI26094
aI26111
aI26137
aI26164
aI26173
aI26182
aI26327
aI26333
aI26345
aI26347
aI26421
aI26435
aI26436
aI26550
aI26556
aI26599
aI26600
aI26653
aI26694
aI26695
aI26696
aI26727
aI26742
aI26835
aI26840
aI26855
aI26859
aI26870
aI26903
aI26990
aI27049
aI27052
aI27083
aI27108
aI27113
aI27216
aI27295
aI27301
aI27345
aI27346
aI27349
aI27350
aI27366
aI27371
aI27390
aI27418
aI27580
aI27607
aI27665
aI27678
aI27723
aI27728
aI27777
aI27796
aI27846
aI27851
aI27868
aI27871
aI27880
aI27892
aI27977
aI28215
aI28277
aI28296
aI28343
aI28406
aI28460
aI28493
aI28523
aI28627
aI28649
aI28928
aI28968
aI28984
aI29058
aI29059
aI29097
aI29098
aI29099
aI29108
aI29205
aI29206
aI29221
aI29225
aI29233
aI29240
aI29317
aI29318
aI29346
aI29349
aI29359
aI29361
aI29392
aI29453
aI29456
aI29458
aI29471
aI29490
aI29522
aI29562
aI29591
aI29604
aI29614
aI29621
aI29624
aI29628
aI29639
aI29670
aI29675
aI29710
aI29714
aI29716
aI29724
aI29725
aI29753
aI29798
aI29803
aI29835
aI29837
aI29852
aI29867
aI29881
aI29882
aI29904
aI29921
aI29977
aI30018
aI30027
aI30030
aI30053
aI30055
aI30096
aI30113
aI30133
aI30143
aI30155
aI30159
aI30160
aI30196
aI30283
aI30284
aI30285
aI30337
aI30342
aI30360
aI30393
aI30465
aI30466
aI30474
aI30492
aI30517
aI30551
aI30585
aI30615
aI30616
aI30710
aI30734
aI30739
aI30740
aI30748
aI30751
aI30765
aI30774
aI30786
aI30800
aI30806
aI30853
aI30865
aI30867
aI30878
aI30886
aI30903
aI30914
aI30984
aI30986
aI30992
aI31000
aI31004
aI31006
aI31011
aI31015
aI31019
aI31036
aI31043
aI31044
aI31052
aI31114
aI31138
aI31160
aI31164
aI31171
aI31252
aI31253
aI31254
aI31316
aI31361
aI31377
aI31379
aI31381
aI31399
aI31470
aI31492
aI31507
aI31525
aI31546
aI31611
aI31616
aI31617
aI31709
aI31748
aI31760
aI31785
aI31786
aI31793
aI31819
aI31894
aI31944
aI31966
aI31972
aI32011
aI32021
aI32026
aI32028
aI32054
aI32123
aI32154
aI32176
aI32200
aI32202
aI32234
aI32249
aI32267
aI32268
aI32274
aI32275
aI32459
aI32468
aI32497
aI32514
aI32562
aI32609
aI32651
aI32659
aI32675
aI32691
aI32707
aI32712
aI32753
aI32756
aa.