(lp1
(lp2
I0
aI3
aI4
aI5
aI6
aI7
aI8
aI9
aI10
aI11
aI12
aI13
aI14
aI15
aI16
aI17
aI18
aI132
aI133
aI134
aI135
aI136
aI137
aI138
aI139
aI140
aI141
aI142
aI143
aI144
aI145
aI146
aI259
aI260
aI261
aI262
aI263
aI264
aI265
aI266
aI267
aI268
aI269
aI270
aI271
aI272
aI273
aI274
aI385
aI387
aI388
aI389
aI390
aI391
aI392
aI393
aI394
aI395
aI396
aI397
aI398
aI399
aI400
aI401
aI402
aI512
aI513
aI514
aI515
aI517
aI518
aI519
aI520
aI521
aI522
aI523
aI524
aI525
aI526
aI527
aI528
aI529
aI530
aI640
aI641
aI643
aI644
aI645
aI646
aI647
aI648
aI649
aI650
aI651
aI652
aI653
aI654
aI655
aI656
aI657
aI658
aI771
aI773
aI775
aI776
aI777
aI778
aI779
aI780
aI781
aI782
aI783
aI784
aI785
aI786
aI797
aI798
aI799
aI800
aI801
aI802
aI803
aI804
aI805
aI806
aI807
aI808
aI809
aI810
aI811
aI812
aI813
aI814
aI815
aI816
aI817
aI818
aI819
aI820
aI821
aI822
aI823
aI824
aI825
aI826
aI827
aI828
aI829
aI830
aI831
aI832
aI833
aI834
aI835
aI836
aI837
aI838
aI839
aI840
aI841
aI842
aI843
aI844
aI845
aI846
aI898
aI900
aI901
aI902
aI903
aI904
aI905
aI906
aI907
aI908
aI909
aI910
aI911
aI912
aI913
aI914
aI927
aI931
aI933
aI936
aI937
aI938
aI939
aI940
aI941
aI942
aI943
aI944
aI945
aI946
aI947
aI948
aI949
aI950
aI951
aI952
aI953
aI954
aI955
aI956
aI957
aI958
aI959
aI960
aI961
aI962
aI963
aI964
aI965
aI966
aI967
aI968
aI969
aI970
aI971
aI972
aI973
aI974
aI975
aI976
aI977
aI978
aI979
aI980
aI981
aI982
aI983
aI984
aI985
aI986
aI987
aI988
aI989
aI990
aI991
aI992
aI993
aI994
aI995
aI996
aI997
aI998
aI999
aI1000
aI1001
aI1002
aI1003
aI1004
aI1005
aI1006
aI1007
aI1008
aI1009
aI1010
aI1011
aI1012
aI1013
aI1014
aI1015
aI1016
aI1017
aI1018
aI1019
aI1020
aI1021
aI1022
aI1026
aI1028
aI1029
aI1030
aI1031
aI1032
aI1033
aI1034
aI1035
aI1036
aI1037
aI1038
aI1039
aI1040
aI1041
aI1042
aI1128
aI1129
aI1130
aI1131
aI1132
aI1133
aI1134
aI1135
aI1136
aI1137
aI1138
aI1139
aI1140
aI1141
aI1142
aI1143
aI1144
aI1145
aI1146
aI1147
aI1148
aI1149
aI1150
aI1151
aI1156
aI1157
aI1158
aI1159
aI1160
aI1161
aI1162
aI1163
aI1164
aI1165
aI1166
aI1167
aI1168
aI1169
aI1170
aI1271
aI1272
aI1273
aI1274
aI1275
aI1276
aI1277
aI1278
aI1279
aI1284
aI1285
aI1286
aI1287
aI1288
aI1289
aI1290
aI1291
aI1292
aI1293
aI1294
aI1295
aI1296
aI1297
aI1298
aI1407
aI1411
aI1412
aI1413
aI1414
aI1415
aI1416
aI1417
aI1418
aI1419
aI1420
aI1421
aI1422
aI1423
aI1424
aI1425
aI1426
aI1535
aI1540
aI1541
aI1542
aI1543
aI1544
aI1545
aI1546
aI1547
aI1548
aI1549
aI1550
aI1551
aI1552
aI1553
aI1554
aI1663
aI1667
aI1668
aI1669
aI1670
aI1671
aI1672
aI1673
aI1674
aI1675
aI1676
aI1677
aI1678
aI1679
aI1680
aI1681
aI1682
aI1791
aI1799
aI1800
aI1801
aI1802
aI1803
aI1804
aI1805
aI1806
aI1807
aI1808
aI1809
aI1810
aI1919
aI1924
aI1925
aI1926
aI1927
aI1928
aI1929
aI1930
aI1931
aI1932
aI1933
aI1934
aI1935
aI1936
aI1937
aI1938
aI2047
aI2056
aI2057
aI2058
aI2059
aI2060
aI2061
aI2062
aI2063
aI2064
aI2065
aI2066
aI2175
aI2179
aI2184
aI2185
aI2186
aI2187
aI2188
aI2189
aI2190
aI2191
aI2192
aI2193
aI2194
aI2303
aI2313
aI2314
aI2315
aI2316
aI2317
aI2318
aI2319
aI2320
aI2321
aI2322
aI2441
aI2442
aI2443
aI2444
aI2445
aI2446
aI2447
aI2448
aI2449
aI2450
aI2563
aI2567
aI2568
aI2569
aI2570
aI2571
aI2572
aI2573
aI2574
aI2575
aI2576
aI2577
aI2578
aI2695
aI2696
aI2697
aI2698
aI2699
aI2700
aI2701
aI2702
aI2703
aI2704
aI2705
aI2706
aI2824
aI2825
aI2826
aI2827
aI2828
aI2829
aI2830
aI2831
aI2832
aI2833
aI2834
aI2952
aI2954
aI2955
aI2956
aI2957
aI2958
aI2959
aI2960
aI2961
aI3083
aI3084
aI3085
aI3086
aI3087
aI3088
aI3089
aI3090
aI3211
aI3212
aI3213
aI3214
aI3215
aI3216
aI3217
aI3338
aI3340
aI3341
aI3342
aI3343
aI3344
aI3345
aI3346
aI3469
aI3470
aI3471
aI3472
aI3473
aI3596
aI3597
aI3598
aI3599
aI3600
aI3601
aI3725
aI3726
aI3727
aI3728
aI3729
aI3856
aI3857
aI3984
aI3985
aI4107
aI4110
aI4240
aI4369
aI4497
aI4881
aI5009
aI5135
aI5137
aI5265
aI5518
aI5520
aI5521
aI5631
aI5649
aI5758
aI5759
aI5881
aI5882
aI5883
aI5884
aI5885
aI5886
aI5887
aI5905
aI6008
aI6009
aI6010
aI6011
aI6012
aI6013
aI6014
aI6015
aI6135
aI6136
aI6137
aI6138
aI6139
aI6140
aI6141
aI6142
aI6143
aI6263
aI6264
aI6265
aI6266
aI6267
aI6268
aI6269
aI6270
aI6271
aI6391
aI6392
aI6393
aI6394
aI6395
aI6396
aI6397
aI6398
aI6399
aI6519
aI6520
aI6521
aI6522
aI6523
aI6524
aI6525
aI6526
aI6638
aI6639
aI6640
aI6641
aI6642
aI6650
aI6651
aI6652
aI6766
aI6767
aI6768
aI6769
aI6770
aI6893
aI6894
aI6895
aI6896
aI6897
aI7020
aI7021
aI7022
aI7023
aI7024
aI7147
aI7148
aI7149
aI7150
aI7151
aI7152
aI7274
aI7275
aI7276
aI7277
aI7278
aI7279
aI7280
aI7310
aI7402
aI7403
aI7404
aI7405
aI7406
aI7407
aI7530
aI7531
aI7532
aI7533
aI7534
aI7657
aI7658
aI7659
aI7660
aI7661
aI7662
aI7785
aI7786
aI7787
aI7788
aI7789
aI7790
aI7913
aI7914
aI7915
aI7916
aI7917
aI7918
aI7919
aI8041
aI8042
aI8043
aI8044
aI8045
aI8046
aI8047
aI8048
aI8049
aI8050
aI8169
aI8170
aI8171
aI8172
aI8173
aI8174
aI8175
aI8176
aI8177
aI8178
aI8179
aI8180
aI8297
aI8298
aI8299
aI8300
aI8301
aI8302
aI8303
aI8304
aI8305
aI8306
aI8307
aI8308
aI8309
aI8310
aI8311
aI8312
aI8313
aI8314
aI8315
aI8316
aI8317
aI8318
aI8319
aI8425
aI8426
aI8427
aI8428
aI8429
aI8430
aI8431
aI8432
aI8433
aI8434
aI8435
aI8436
aI8437
aI8438
aI8439
aI8440
aI8441
aI8442
aI8443
aI8444
aI8445
aI8446
aI8447
aI8553
aI8554
aI8555
aI8556
aI8557
aI8558
aI8559
aI8560
aI8561
aI8562
aI8563
aI8564
aI8565
aI8566
aI8567
aI8568
aI8569
aI8570
aI8571
aI8572
aI8573
aI8574
aI8575
aI8686
aI8687
aI8688
aI8689
aI8690
aI8691
aI8692
aI8693
aI8694
aI8695
aI8696
aI8697
aI8698
aI8699
aI8700
aI8701
aI8702
aI8703
aI8813
aI8814
aI8815
aI8816
aI8817
aI8818
aI8819
aI8820
aI8821
aI8822
aI8823
aI8824
aI8825
aI8826
aI8827
aI8828
aI8829
aI8830
aI8831
aI8948
aI8949
aI8950
aI8951
aI8952
aI8953
aI8954
aI8955
aI8956
aI8957
aI8958
aI8959
aI9078
aI9079
aI9080
aI9081
aI9082
aI9083
aI9084
aI9085
aI9086
aI9087
aI9206
aI9207
aI9208
aI9209
aI9210
aI9211
aI9212
aI9213
aI9214
aI9215
aI9334
aI9335
aI9336
aI9337
aI9338
aI9339
aI9340
aI9341
aI9342
aI9343
aI9463
aI9464
aI9465
aI9466
aI9467
aI9468
aI9469
aI9470
aI9471
aI9592
aI9593
aI9594
aI9595
aI9596
aI9597
aI9598
aI9599
aI9720
aI9721
aI9722
aI9723
aI9724
aI9725
aI9726
aI9727
aI9848
aI9849
aI9850
aI9851
aI9852
aI9853
aI9854
aI9855
aI9978
aI9979
aI9980
aI9981
aI9982
aI9983
aI10106
aI10107
aI10108
aI10109
aI10110
aI10111
aI11464
aI11465
aI11592
aI15343
aI15344
aI15345
aI15346
aI15347
aI15348
aI15349
aI15350
aI15351
aI15352
aI15353
aI15354
aI15355
aI15356
aI15357
aI15358
aI15359
aI15445
aI15446
aI15447
aI15448
aI15449
aI15450
aI15451
aI15452
aI15453
aI15454
aI15455
aI15456
aI15457
aI15458
aI15459
aI15460
aI15461
aI15462
aI15463
aI15464
aI15465
aI15466
aI15467
aI15468
aI15469
aI15470
aI15471
aI15472
aI15473
aI15474
aI15475
aI15476
aI15477
aI15478
aI15479
aI15480
aI15481
aI15482
aI15483
aI15484
aI15485
aI15486
aI15487
aI15555
aI15556
aI15557
aI15558
aI15559
aI15560
aI15561
aI15562
aI15563
aI15564
aI15565
aI15566
aI15567
aI15568
aI15569
aI15570
aI15571
aI15572
aI15573
aI15574
aI15575
aI15576
aI15577
aI15578
aI15579
aI15580
aI15581
aI15582
aI15583
aI15584
aI15585
aI15586
aI15587
aI15588
aI15589
aI15590
aI15591
aI15592
aI15593
aI15594
aI15595
aI15596
aI15597
aI15598
aI15599
aI15600
aI15601
aI15602
aI15603
aI15604
aI15605
aI15606
aI15607
aI15608
aI15609
aI15610
aI15611
aI15612
aI15613
aI15614
aI15615
aI15650
aI15651
aI15652
aI15653
aI15654
aI15655
aI15656
aI15657
aI15658
aI15659
aI15660
aI15661
aI15662
aI15663
aI15664
aI15665
aI15666
aI15667
aI15668
aI15669
aI15670
aI15671
aI15672
aI15673
aI15674
aI15675
aI15676
aI15677
aI15678
aI15679
aI15680
aI15681
aI15682
aI15683
aI15684
aI15685
aI15686
aI15687
aI15688
aI15689
aI15690
aI15691
aI15692
aI15693
aI15694
aI15695
aI15696
aI15697
aI15698
aI15699
aI15700
aI15701
aI15702
aI15703
aI15704
aI15705
aI15706
aI15707
aI15708
aI15709
aI15710
aI15711
aI15712
aI15713
aI15714
aI15715
aI15716
aI15717
aI15718
aI15719
aI15720
aI15721
aI15722
aI15723
aI15724
aI15725
aI15726
aI15727
aI15728
aI15729
aI15730
aI15731
aI15732
aI15733
aI15734
aI15735
aI15736
aI15737
aI15738
aI15739
aI15740
aI15741
aI15742
aI15743
aI15769
aI15770
aI15771
aI15772
aI15773
aI15774
aI15775
aI15776
aI15777
aI15778
aI15779
aI15780
aI15781
aI15782
aI15783
aI15784
aI15785
aI15786
aI15787
aI15788
aI15789
aI15790
aI15791
aI15792
aI15793
aI15794
aI15796
aI15797
aI15798
aI15799
aI15800
aI15801
aI15802
aI15803
aI15804
aI15805
aI15806
aI15807
aI15808
aI15809
aI15810
aI15811
aI15812
aI15813
aI15814
aI15815
aI15816
aI15817
aI15818
aI15819
aI15820
aI15821
aI15822
aI15823
aI15824
aI15825
aI15826
aI15827
aI15828
aI15829
aI15830
aI15831
aI15832
aI15833
aI15834
aI15835
aI15836
aI15837
aI15838
aI15839
aI15840
aI15841
aI15842
aI15843
aI15844
aI15845
aI15846
aI15847
aI15848
aI15849
aI15850
aI15851
aI15852
aI15853
aI15854
aI15855
aI15856
aI15857
aI15858
aI15859
aI15860
aI15861
aI15862
aI15863
aI15864
aI15865
aI15866
aI15867
aI15868
aI15869
aI15897
aI15898
aI15899
aI15900
aI15901
aI15902
aI15903
aI15904
aI15905
aI15906
aI15907
aI15910
aI15911
aI15912
aI15913
aI15914
aI15915
aI15916
aI15917
aI15918
aI15919
aI15920
aI15921
aI15922
aI15924
aI15925
aI15926
aI15927
aI15928
aI15929
aI15930
aI15931
aI15932
aI15933
aI15934
aI15935
aI15936
aI15937
aI15938
aI15939
aI15940
aI15941
aI15942
aI15943
aI15944
aI15945
aI15946
aI15947
aI15948
aI15949
aI15950
aI15951
aI15952
aI15953
aI15954
aI15955
aI15956
aI15957
aI15958
aI15959
aI15960
aI15961
aI15962
aI15963
aI15964
aI15965
aI15966
aI15967
aI15968
aI15969
aI15970
aI15971
aI15972
aI16025
aI16026
aI16027
aI16028
aI16029
aI16030
aI16031
aI16032
aI16033
aI16034
aI16035
aI16037
aI16038
aI16039
aI16040
aI16041
aI16042
aI16043
aI16044
aI16045
aI16046
aI16047
aI16048
aI16049
aI16050
aI16051
aI16052
aI16053
aI16054
aI16055
aI16056
aI16057
aI16058
aI16059
aI16060
aI16061
aI16062
aI16063
aI16064
aI16065
aI16066
aI16067
aI16068
aI16069
aI16070
aI16071
aI16072
aI16073
aI16074
aI16153
aI16154
aI16155
aI16156
aI16157
aI16158
aI16159
aI16160
aI16161
aI16162
aI16163
aI16164
aI16165
aI16166
aI16167
aI16168
aI16169
aI16170
aI16255
aI16382
aI16383
aI16922
aI16923
aI16924
aI16925
aI16926
aI16927
aI16928
aI16929
aI16930
aI16931
aI16932
aI16933
aI16934
aI16935
aI16936
aI16937
aI16938
aI16939
aI16940
aI16941
aI16942
aI16943
aI16944
aI16945
aI16946
aI16947
aI16948
aI16949
aI16950
aI16951
aI16959
aI16970
aI16974
aI16985
aI16986
aI16989
aI17050
aI17105
aI17106
aI17107
aI17108
aI17109
aI17110
aI17111
aI17112
aI17113
aI17114
aI17115
aI17116
aI17117
aI17118
aI17119
aI17120
aI17121
aI17122
aI17123
aI17124
aI17125
aI17126
aI17127
aI17128
aI17129
aI17130
aI17131
aI17132
aI17133
aI17134
aI17135
aI17136
aI17137
aI17745
aI17746
aI17748
aI17749
aI17751
aI17752
aI17753
aI17754
aI17755
aI17756
aI17758
aI17759
aI17760
aI17761
aI17762
aI17763
aI17764
aI17765
aI17766
aI17772
aI17871
aI17873
aI17874
aI17876
aI17884
aI17992
aI17996
aI17999
aI18004
aI18007
aI18009
aI18010
aI18012
aI18013
aI18014
aI18015
aI18119
aI18140
aI18146
aI18242
aI18260
aI18272
aI18277
aI18389
aI18486
aI18491
aI18494
aI18499
aI18504
aI18535
aI18628
aI18758
aI18916
aI19004
aI19009
aI19098
aI19113
aI19117
aI19127
aI19135
aI19241
aI19256
aI19257
aI19261
aI19264
aI19370
aI19380
aI19389
aI19482
aI19493
aI19495
aI19500
aI19502
aI19505
aI19506
aI19509
aI19511
aI19610
aI19626
aI19629
aI19632
aI19633
aI19634
aI19637
aI19738
aI19753
aI19754
aI19756
aI19758
aI19762
aI19763
aI19766
aI19866
aI19870
aI19877
aI19880
aI19884
aI19887
aI19888
aI19889
aI19890
aI19891
aI19892
aI19893
aI19894
aI19896
aI20002
aI20006
aI20008
aI20009
aI20010
aI20011
aI20012
aI20013
aI20015
aI20018
aI20019
aI20021
aI20122
aI20128
aI20134
aI20135
aI20136
aI20137
aI20138
aI20139
aI20140
aI20141
aI20142
aI20144
aI20145
aI20147
aI20148
aI20149
aI20250
aI20259
aI20260
aI20261
aI20262
aI20263
aI20266
aI20267
aI20268
aI20271
aI20272
aI20273
aI20274
aI20278
aI20279
aI20285
aI20377
aI20388
aI20389
aI20390
aI20391
aI20393
aI20394
aI20395
aI20396
aI20397
aI20398
aI20399
aI20400
aI20401
aI20402
aI20403
aI20406
aI20408
aI20507
aI20516
aI20517
aI20520
aI20521
aI20522
aI20525
aI20526
aI20527
aI20528
aI20529
aI20530
aI20531
aI20533
aI20534
aI20638
aI20639
aI20642
aI20643
aI20645
aI20646
aI20647
aI20648
aI20649
aI20650
aI20651
aI20652
aI20653
aI20654
aI20655
aI20656
aI20657
aI20658
aI20659
aI20662
aI20762
aI20769
aI20772
aI20773
aI20775
aI20776
aI20777
aI20778
aI20779
aI20780
aI20781
aI20782
aI20783
aI20784
aI20785
aI20786
aI20787
aI20788
aI20789
aI20792
aI20793
aI20889
aI20890
aI20894
aI20899
aI20901
aI20902
aI20903
aI20905
aI20907
aI20908
aI20909
aI20910
aI20911
aI20912
aI20914
aI20915
aI20917
aI21018
aI21026
aI21027
aI21028
aI21029
aI21030
aI21031
aI21032
aI21033
aI21034
aI21035
aI21036
aI21037
aI21038
aI21039
aI21040
aI21041
aI21042
aI21043
aI21044
aI21049
aI21146
aI21155
aI21157
aI21159
aI21160
aI21161
aI21163
aI21164
aI21165
aI21166
aI21167
aI21168
aI21170
aI21171
aI21172
aI21174
aI21273
aI21274
aI21278
aI21279
aI21283
aI21284
aI21285
aI21286
aI21287
aI21288
aI21289
aI21290
aI21292
aI21293
aI21294
aI21296
aI21297
aI21299
aI21301
aI21401
aI21402
aI21403
aI21409
aI21412
aI21413
aI21414
aI21415
aI21416
aI21417
aI21418
aI21419
aI21421
aI21422
aI21423
aI21424
aI21425
aI21426
aI21427
aI21428
aI21430
aI21432
aI21482
aI21530
aI21537
aI21539
aI21540
aI21541
aI21542
aI21543
aI21545
aI21546
aI21547
aI21548
aI21549
aI21551
aI21552
aI21554
aI21612
aI21657
aI21658
aI21664
aI21669
aI21670
aI21671
aI21672
aI21673
aI21674
aI21675
aI21676
aI21677
aI21678
aI21679
aI21680
aI21681
aI21682
aI21785
aI21786
aI21791
aI21793
aI21795
aI21796
aI21797
aI21799
aI21800
aI21801
aI21802
aI21803
aI21806
aI21807
aI21808
aI21814
aI21867
aI21913
aI21914
aI21920
aI21923
aI21924
aI21925
aI21926
aI21927
aI21929
aI21930
aI21932
aI21933
aI21934
aI21935
aI21936
aI21937
aI21939
aI22041
aI22042
aI22043
aI22045
aI22052
aI22053
aI22055
aI22056
aI22057
aI22058
aI22059
aI22060
aI22062
aI22063
aI22064
aI22066
aI22121
aI22169
aI22170
aI22172
aI22177
aI22178
aI22180
aI22182
aI22183
aI22184
aI22185
aI22186
aI22187
aI22189
aI22190
aI22191
aI22192
aI22193
aI22195
aI22247
aI22250
aI22251
aI22252
aI22297
aI22298
aI22302
aI22303
aI22305
aI22306
aI22309
aI22310
aI22311
aI22312
aI22313
aI22314
aI22315
aI22316
aI22317
aI22319
aI22320
aI22321
aI22322
aI22425
aI22426
aI22431
aI22433
aI22435
aI22437
aI22439
aI22440
aI22441
aI22442
aI22443
aI22444
aI22445
aI22447
aI22448
aI22503
aI22504
aI22505
aI22506
aI22507
aI22513
aI22553
aI22559
aI22563
aI22565
aI22566
aI22568
aI22569
aI22570
aI22572
aI22574
aI22575
aI22576
aI22633
aI22634
aI22635
aI22636
aI22637
aI22640
aI22681
aI22693
aI22694
aI22695
aI22696
aI22697
aI22699
aI22700
aI22704
aI22705
aI22758
aI22760
aI22761
aI22762
aI22763
aI22765
aI22809
aI22821
aI22822
aI22825
aI22826
aI22827
aI22828
aI22829
aI22830
aI22831
aI22885
aI22886
aI22887
aI22889
aI22937
aI22942
aI22946
aI22950
aI22952
aI22954
aI22956
aI22958
aI22960
aI23011
aI23012
aI23014
aI23015
aI23016
aI23019
aI23065
aI23080
aI23082
aI23083
aI23084
aI23086
aI23087
aI23139
aI23140
aI23142
aI23143
aI23144
aI23145
aI23146
aI23148
aI23157
aI23193
aI23210
aI23265
aI23266
aI23267
aI23268
aI23269
aI23270
aI23271
aI23272
aI23273
aI23274
aI23321
aI23346
aI23391
aI23392
aI23393
aI23394
aI23395
aI23396
aI23397
aI23398
aI23399
aI23400
aI23401
aI23449
aI23469
aI23471
aI23473
aI23517
aI23518
aI23519
aI23520
aI23521
aI23522
aI23524
aI23525
aI23526
aI23527
aI23528
aI23529
aI23542
aI23544
aI23570
aI23577
aI23600
aI23641
aI23644
aI23645
aI23646
aI23647
aI23648
aI23649
aI23650
aI23651
aI23652
aI23653
aI23654
aI23655
aI23668
aI23705
aI23724
aI23774
aI23775
aI23776
aI23778
aI23779
aI23780
aI23781
aI23782
aI23783
aI23826
aI23833
aI23898
aI23899
aI23901
aI23902
aI23903
aI23904
aI23905
aI23906
aI23907
aI23908
aI23909
aI23910
aI23911
aI23921
aI23922
aI23924
aI23954
aI23961
aI24027
aI24029
aI24030
aI24031
aI24032
aI24033
aI24034
aI24035
aI24036
aI24037
aI24038
aI24039
aI24050
aI24051
aI24052
aI24053
aI24088
aI24089
aI24153
aI24154
aI24155
aI24156
aI24157
aI24158
aI24159
aI24160
aI24161
aI24162
aI24163
aI24164
aI24165
aI24166
aI24167
aI24177
aI24178
aI24179
aI24180
aI24192
aI24210
aI24216
aI24217
aI24280
aI24281
aI24282
aI24283
aI24284
aI24285
aI24286
aI24287
aI24288
aI24289
aI24290
aI24291
aI24292
aI24293
aI24294
aI24295
aI24308
aI24309
aI24310
aI24311
aI24320
aI24338
aI24344
aI24406
aI24407
aI24408
aI24409
aI24410
aI24411
aI24412
aI24413
aI24414
aI24415
aI24416
aI24417
aI24418
aI24419
aI24420
aI24421
aI24422
aI24423
aI24448
aI24449
aI24450
aI24451
aI24452
aI24466
aI24472
aI24473
aI24533
aI24534
aI24535
aI24536
aI24537
aI24538
aI24539
aI24540
aI24541
aI24542
aI24543
aI24544
aI24545
aI24546
aI24547
aI24548
aI24549
aI24550
aI24551
aI24576
aI24577
aI24578
aI24579
aI24580
aI24581
aI24582
aI24600
aI24659
aI24660
aI24661
aI24662
aI24663
aI24664
aI24665
aI24666
aI24667
aI24668
aI24669
aI24670
aI24671
aI24672
aI24673
aI24674
aI24675
aI24676
aI24677
aI24678
aI24679
aI24680
aI24704
aI24705
aI24706
aI24707
aI24708
aI24709
aI24710
aI24711
aI24722
aI24728
aI24787
aI24788
aI24789
aI24790
aI24791
aI24792
aI24793
aI24794
aI24795
aI24796
aI24797
aI24798
aI24799
aI24800
aI24801
aI24802
aI24803
aI24804
aI24805
aI24806
aI24807
aI24808
aI24833
aI24834
aI24835
aI24836
aI24837
aI24838
aI24839
aI24840
aI24843
aI24844
aI24845
aI24846
aI24856
aI24914
aI24915
aI24916
aI24917
aI24918
aI24919
aI24920
aI24921
aI24922
aI24923
aI24924
aI24925
aI24926
aI24927
aI24928
aI24929
aI24930
aI24931
aI24932
aI24933
aI24934
aI24935
aI24936
aI24960
aI24963
aI24964
aI24965
aI24966
aI24967
aI24968
aI24969
aI24970
aI24971
aI24972
aI24973
aI24974
aI24975
aI24976
aI24978
aI25036
aI25040
aI25041
aI25042
aI25043
aI25044
aI25045
aI25046
aI25047
aI25048
aI25049
aI25050
aI25051
aI25052
aI25053
aI25054
aI25055
aI25056
aI25057
aI25058
aI25059
aI25060
aI25061
aI25062
aI25063
aI25064
aI25088
aI25089
aI25090
aI25091
aI25092
aI25093
aI25094
aI25095
aI25096
aI25097
aI25098
aI25099
aI25100
aI25101
aI25102
aI25103
aI25104
aI25105
aI25112
aI25164
aI25169
aI25170
aI25171
aI25172
aI25173
aI25174
aI25175
aI25176
aI25177
aI25178
aI25179
aI25180
aI25181
aI25182
aI25183
aI25184
aI25185
aI25186
aI25187
aI25188
aI25189
aI25190
aI25191
aI25192
aI25193
aI25194
aI25195
aI25216
aI25217
aI25219
aI25220
aI25221
aI25222
aI25223
aI25224
aI25225
aI25226
aI25227
aI25228
aI25229
aI25230
aI25231
aI25232
aI25233
aI25238
aI25240
aI25289
aI25295
aI25296
aI25297
aI25298
aI25299
aI25300
aI25301
aI25302
aI25303
aI25304
aI25305
aI25306
aI25307
aI25308
aI25309
aI25310
aI25311
aI25312
aI25313
aI25314
aI25315
aI25316
aI25317
aI25318
aI25319
aI25320
aI25321
aI25322
aI25323
aI25324
aI25345
aI25346
aI25347
aI25349
aI25350
aI25351
aI25352
aI25353
aI25354
aI25355
aI25356
aI25357
aI25358
aI25359
aI25360
aI25361
aI25368
aI25415
aI25421
aI25422
aI25423
aI25424
aI25425
aI25426
aI25427
aI25428
aI25429
aI25430
aI25431
aI25432
aI25433
aI25434
aI25435
aI25436
aI25437
aI25438
aI25439
aI25440
aI25441
aI25442
aI25443
aI25444
aI25445
aI25446
aI25447
aI25448
aI25449
aI25450
aI25451
aI25452
aI25453
aI25454
aI25455
aI25456
aI25457
aI25475
aI25476
aI25477
aI25479
aI25480
aI25481
aI25482
aI25483
aI25484
aI25485
aI25486
aI25487
aI25488
aI25489
aI25494
aI25496
aI25542
aI25548
aI25549
aI25550
aI25551
aI25552
aI25553
aI25554
aI25555
aI25556
aI25557
aI25558
aI25559
aI25560
aI25561
aI25562
aI25563
aI25564
aI25565
aI25566
aI25567
aI25568
aI25569
aI25570
aI25571
aI25572
aI25573
aI25574
aI25575
aI25576
aI25577
aI25578
aI25579
aI25580
aI25581
aI25582
aI25583
aI25584
aI25585
aI25586
aI25587
aI25588
aI25605
aI25606
aI25607
aI25608
aI25609
aI25610
aI25611
aI25612
aI25613
aI25614
aI25615
aI25616
aI25617
aI25623
aI25624
aI25672
aI25673
aI25676
aI25677
aI25678
aI25679
aI25680
aI25681
aI25682
aI25683
aI25684
aI25685
aI25686
aI25687
aI25688
aI25689
aI25690
aI25691
aI25692
aI25693
aI25694
aI25695
aI25696
aI25697
aI25698
aI25699
aI25700
aI25701
aI25702
aI25703
aI25704
aI25705
aI25706
aI25707
aI25708
aI25709
aI25710
aI25711
aI25712
aI25713
aI25714
aI25715
aI25716
aI25717
aI25735
aI25736
aI25737
aI25738
aI25739
aI25740
aI25741
aI25742
aI25743
aI25744
aI25745
aI25751
aI25752
aI25799
aI25802
aI25804
aI25806
aI25807
aI25808
aI25810
aI25811
aI25812
aI25813
aI25814
aI25815
aI25816
aI25817
aI25818
aI25819
aI25820
aI25821
aI25822
aI25823
aI25824
aI25825
aI25826
aI25827
aI25828
aI25829
aI25830
aI25831
aI25832
aI25833
aI25834
aI25835
aI25836
aI25837
aI25838
aI25839
aI25840
aI25841
aI25842
aI25843
aI25844
aI25845
aI25865
aI25866
aI25867
aI25868
aI25869
aI25870
aI25871
aI25872
aI25873
aI25880
aI25927
aI25930
aI25932
aI25933
aI25934
aI25935
aI25936
aI25937
aI25938
aI25939
aI25940
aI25941
aI25942
aI25943
aI25944
aI25945
aI25946
aI25947
aI25948
aI25949
aI25950
aI25951
aI25952
aI25953
aI25954
aI25955
aI25956
aI25957
aI25958
aI25959
aI25960
aI25961
aI25962
aI25963
aI25964
aI25965
aI25966
aI25967
aI25968
aI25969
aI25970
aI25971
aI25972
aI25973
aI25986
aI25987
aI25993
aI25994
aI25995
aI25996
aI25997
aI25998
aI25999
aI26000
aI26001
aI26005
aI26006
aI26007
aI26008
aI26052
aI26054
aI26058
aI26059
aI26060
aI26061
aI26062
aI26063
aI26064
aI26065
aI26066
aI26067
aI26068
aI26069
aI26070
aI26071
aI26072
aI26073
aI26074
aI26075
aI26076
aI26077
aI26078
aI26079
aI26080
aI26081
aI26082
aI26083
aI26084
aI26085
aI26086
aI26087
aI26088
aI26089
aI26090
aI26091
aI26092
aI26093
aI26094
aI26095
aI26096
aI26097
aI26098
aI26099
aI26100
aI26101
aI26102
aI26103
aI26112
aI26115
aI26116
aI26117
aI26118
aI26119
aI26120
aI26121
aI26122
aI26123
aI26124
aI26125
aI26126
aI26127
aI26128
aI26129
aI26133
aI26134
aI26135
aI26136
aI26179
aI26181
aI26184
aI26185
aI26186
aI26187
aI26189
aI26190
aI26191
aI26192
aI26193
aI26194
aI26195
aI26196
aI26197
aI26198
aI26199
aI26200
aI26201
aI26202
aI26203
aI26204
aI26205
aI26206
aI26207
aI26208
aI26209
aI26210
aI26211
aI26212
aI26213
aI26214
aI26215
aI26216
aI26217
aI26218
aI26219
aI26220
aI26221
aI26222
aI26223
aI26224
aI26225
aI26226
aI26227
aI26228
aI26229
aI26230
aI26231
aI26240
aI26241
aI26243
aI26244
aI26245
aI26246
aI26247
aI26248
aI26249
aI26250
aI26251
aI26252
aI26253
aI26254
aI26255
aI26256
aI26257
aI26260
aI26261
aI26262
aI26263
aI26264
aI26309
aI26310
aI26311
aI26312
aI26313
aI26314
aI26315
aI26316
aI26317
aI26318
aI26319
aI26320
aI26321
aI26322
aI26323
aI26324
aI26325
aI26326
aI26327
aI26328
aI26329
aI26330
aI26331
aI26332
aI26333
aI26334
aI26335
aI26336
aI26337
aI26338
aI26339
aI26340
aI26341
aI26342
aI26343
aI26344
aI26345
aI26346
aI26347
aI26348
aI26349
aI26350
aI26351
aI26352
aI26353
aI26354
aI26355
aI26356
aI26357
aI26358
aI26359
aI26360
aI26361
aI26368
aI26369
aI26370
aI26371
aI26372
aI26373
aI26374
aI26375
aI26376
aI26377
aI26378
aI26379
aI26380
aI26381
aI26382
aI26383
aI26384
aI26385
aI26389
aI26390
aI26391
aI26392
aI26435
aI26437
aI26439
aI26440
aI26442
aI26443
aI26444
aI26445
aI26446
aI26447
aI26448
aI26449
aI26450
aI26451
aI26452
aI26453
aI26454
aI26455
aI26456
aI26457
aI26458
aI26459
aI26460
aI26461
aI26462
aI26463
aI26464
aI26465
aI26466
aI26467
aI26468
aI26469
aI26470
aI26471
aI26472
aI26473
aI26474
aI26475
aI26476
aI26477
aI26478
aI26479
aI26480
aI26481
aI26482
aI26483
aI26484
aI26485
aI26486
aI26487
aI26488
aI26489
aI26497
aI26498
aI26500
aI26501
aI26502
aI26503
aI26504
aI26505
aI26506
aI26507
aI26508
aI26509
aI26510
aI26511
aI26512
aI26513
aI26515
aI26516
aI26517
aI26518
aI26519
aI26520
aI26566
aI26568
aI26569
aI26570
aI26571
aI26572
aI26573
aI26574
aI26575
aI26576
aI26577
aI26578
aI26579
aI26580
aI26581
aI26582
aI26583
aI26584
aI26585
aI26586
aI26587
aI26588
aI26589
aI26590
aI26591
aI26592
aI26593
aI26594
aI26595
aI26596
aI26597
aI26598
aI26599
aI26600
aI26601
aI26602
aI26603
aI26604
aI26605
aI26606
aI26607
aI26608
aI26609
aI26610
aI26611
aI26612
aI26613
aI26614
aI26615
aI26616
aI26617
aI26618
aI26619
aI26620
aI26625
aI26626
aI26627
aI26628
aI26629
aI26630
aI26631
aI26632
aI26633
aI26634
aI26635
aI26636
aI26637
aI26638
aI26639
aI26640
aI26641
aI26643
aI26644
aI26645
aI26646
aI26647
aI26648
aI26694
aI26695
aI26698
aI26699
aI26700
aI26701
aI26702
aI26703
aI26704
aI26705
aI26706
aI26707
aI26708
aI26709
aI26710
aI26711
aI26712
aI26713
aI26714
aI26715
aI26716
aI26717
aI26718
aI26719
aI26720
aI26721
aI26722
aI26723
aI26724
aI26725
aI26726
aI26727
aI26728
aI26729
aI26730
aI26731
aI26732
aI26733
aI26734
aI26735
aI26736
aI26737
aI26738
aI26739
aI26740
aI26741
aI26742
aI26743
aI26744
aI26745
aI26746
aI26747
aI26748
aI26752
aI26753
aI26754
aI26755
aI26756
aI26757
aI26758
aI26759
aI26760
aI26761
aI26762
aI26763
aI26764
aI26765
aI26766
aI26767
aI26768
aI26769
aI26770
aI26771
aI26772
aI26773
aI26774
aI26775
aI26776
aI26809
aI26822
aI26823
aI26824
aI26825
aI26826
aI26827
aI26828
aI26829
aI26830
aI26831
aI26832
aI26833
aI26834
aI26835
aI26836
aI26837
aI26838
aI26839
aI26840
aI26841
aI26842
aI26843
aI26844
aI26845
aI26846
aI26847
aI26848
aI26849
aI26850
aI26851
aI26852
aI26853
aI26854
aI26855
aI26856
aI26857
aI26858
aI26859
aI26860
aI26861
aI26862
aI26863
aI26864
aI26865
aI26866
aI26867
aI26868
aI26869
aI26870
aI26871
aI26872
aI26873
aI26874
aI26875
aI26876
aI26877
aI26879
aI26880
aI26881
aI26882
aI26883
aI26884
aI26885
aI26886
aI26887
aI26888
aI26889
aI26890
aI26891
aI26892
aI26893
aI26894
aI26895
aI26896
aI26897
aI26899
aI26900
aI26901
aI26902
aI26903
aI26904
aI26948
aI26950
aI26951
aI26952
aI26953
aI26954
aI26955
aI26956
aI26957
aI26958
aI26959
aI26960
aI26961
aI26962
aI26963
aI26964
aI26965
aI26966
aI26967
aI26968
aI26969
aI26970
aI26971
aI26972
aI26973
aI26974
aI26975
aI26976
aI26977
aI26978
aI26979
aI26980
aI26981
aI26982
aI26983
aI26984
aI26985
aI26986
aI26987
aI26988
aI26989
aI26990
aI26991
aI26992
aI26993
aI26994
aI26995
aI26996
aI26997
aI26998
aI26999
aI27000
aI27001
aI27002
aI27003
aI27004
aI27005
aI27006
aI27007
aI27008
aI27010
aI27011
aI27012
aI27013
aI27014
aI27015
aI27016
aI27017
aI27018
aI27019
aI27020
aI27021
aI27022
aI27023
aI27024
aI27025
aI27026
aI27027
aI27028
aI27029
aI27030
aI27031
aI27032
aI27062
aI27077
aI27078
aI27079
aI27080
aI27081
aI27082
aI27083
aI27084
aI27085
aI27086
aI27087
aI27088
aI27089
aI27090
aI27091
aI27092
aI27093
aI27094
aI27095
aI27096
aI27097
aI27098
aI27099
aI27100
aI27101
aI27102
aI27103
aI27104
aI27105
aI27106
aI27107
aI27108
aI27109
aI27110
aI27111
aI27112
aI27113
aI27114
aI27115
aI27116
aI27117
aI27118
aI27119
aI27120
aI27121
aI27122
aI27123
aI27124
aI27125
aI27126
aI27127
aI27128
aI27129
aI27130
aI27131
aI27132
aI27133
aI27134
aI27135
aI27137
aI27138
aI27142
aI27143
aI27144
aI27145
aI27146
aI27147
aI27148
aI27149
aI27150
aI27151
aI27152
aI27153
aI27154
aI27155
aI27156
aI27157
aI27158
aI27159
aI27160
aI27185
aI27199
aI27203
aI27204
aI27205
aI27206
aI27207
aI27208
aI27209
aI27210
aI27211
aI27212
aI27213
aI27214
aI27215
aI27216
aI27217
aI27218
aI27219
aI27220
aI27221
aI27222
aI27223
aI27224
aI27225
aI27226
aI27227
aI27228
aI27229
aI27230
aI27231
aI27232
aI27233
aI27234
aI27235
aI27236
aI27237
aI27238
aI27239
aI27240
aI27241
aI27242
aI27243
aI27244
aI27245
aI27246
aI27247
aI27248
aI27249
aI27250
aI27251
aI27252
aI27253
aI27254
aI27255
aI27256
aI27257
aI27258
aI27259
aI27260
aI27261
aI27262
aI27263
aI27266
aI27270
aI27271
aI27273
aI27274
aI27275
aI27276
aI27277
aI27278
aI27279
aI27280
aI27281
aI27282
aI27284
aI27285
aI27286
aI27287
aI27288
aI27325
aI27330
aI27331
aI27333
aI27334
aI27335
aI27336
aI27337
aI27338
aI27339
aI27340
aI27341
aI27342
aI27343
aI27344
aI27345
aI27346
aI27347
aI27348
aI27349
aI27350
aI27351
aI27352
aI27353
aI27354
aI27355
aI27356
aI27357
aI27358
aI27359
aI27360
aI27361
aI27362
aI27363
aI27364
aI27365
aI27366
aI27367
aI27368
aI27369
aI27370
aI27371
aI27372
aI27373
aI27374
aI27375
aI27376
aI27377
aI27378
aI27379
aI27380
aI27381
aI27382
aI27383
aI27384
aI27385
aI27386
aI27387
aI27388
aI27389
aI27390
aI27391
aI27396
aI27397
aI27398
aI27399
aI27400
aI27401
aI27402
aI27403
aI27404
aI27405
aI27406
aI27407
aI27408
aI27409
aI27410
aI27411
aI27412
aI27413
aI27414
aI27415
aI27416
aI27458
aI27460
aI27461
aI27462
aI27463
aI27464
aI27465
aI27466
aI27467
aI27468
aI27469
aI27470
aI27471
aI27472
aI27473
aI27474
aI27475
aI27476
aI27477
aI27478
aI27479
aI27480
aI27481
aI27482
aI27483
aI27484
aI27485
aI27486
aI27487
aI27488
aI27489
aI27490
aI27491
aI27492
aI27493
aI27494
aI27495
aI27496
aI27497
aI27498
aI27499
aI27500
aI27501
aI27502
aI27503
aI27504
aI27505
aI27506
aI27507
aI27508
aI27509
aI27510
aI27511
aI27512
aI27513
aI27514
aI27515
aI27516
aI27517
aI27518
aI27519
aI27521
aI27523
aI27524
aI27526
aI27527
aI27528
aI27529
aI27530
aI27531
aI27532
aI27533
aI27534
aI27535
aI27536
aI27537
aI27538
aI27539
aI27540
aI27541
aI27542
aI27543
aI27544
aI27577
aI27578
aI27582
aI27584
aI27585
aI27586
aI27587
aI27588
aI27589
aI27590
aI27594
aI27595
aI27596
aI27597
aI27598
aI27599
aI27600
aI27601
aI27602
aI27603
aI27604
aI27605
aI27606
aI27607
aI27608
aI27609
aI27610
aI27611
aI27612
aI27613
aI27614
aI27615
aI27616
aI27617
aI27618
aI27619
aI27620
aI27621
aI27622
aI27623
aI27624
aI27625
aI27626
aI27627
aI27628
aI27629
aI27630
aI27631
aI27632
aI27633
aI27634
aI27635
aI27636
aI27637
aI27638
aI27639
aI27640
aI27641
aI27642
aI27643
aI27644
aI27645
aI27646
aI27647
aI27654
aI27656
aI27657
aI27658
aI27659
aI27660
aI27661
aI27662
aI27663
aI27664
aI27665
aI27666
aI27667
aI27668
aI27669
aI27670
aI27671
aI27672
aI27693
aI27709
aI27710
aI27712
aI27714
aI27715
aI27716
aI27717
aI27718
aI27723
aI27724
aI27725
aI27726
aI27727
aI27728
aI27729
aI27730
aI27731
aI27732
aI27733
aI27734
aI27735
aI27736
aI27737
aI27738
aI27739
aI27740
aI27741
aI27742
aI27743
aI27744
aI27745
aI27746
aI27747
aI27748
aI27749
aI27750
aI27751
aI27752
aI27753
aI27754
aI27755
aI27756
aI27757
aI27758
aI27759
aI27760
aI27761
aI27762
aI27763
aI27764
aI27765
aI27766
aI27767
aI27768
aI27769
aI27770
aI27771
aI27772
aI27773
aI27774
aI27775
aI27776
aI27778
aI27784
aI27785
aI27786
aI27787
aI27788
aI27789
aI27790
aI27791
aI27792
aI27793
aI27794
aI27795
aI27796
aI27797
aI27798
aI27799
aI27800
aI27822
aI27825
aI27827
aI27829
aI27834
aI27837
aI27838
aI27840
aI27842
aI27843
aI27844
aI27845
aI27846
aI27847
aI27851
aI27852
aI27853
aI27854
aI27855
aI27856
aI27857
aI27858
aI27859
aI27860
aI27861
aI27862
aI27863
aI27864
aI27865
aI27866
aI27867
aI27868
aI27869
aI27870
aI27871
aI27872
aI27873
aI27874
aI27875
aI27876
aI27877
aI27878
aI27879
aI27880
aI27881
aI27882
aI27883
aI27884
aI27885
aI27886
aI27887
aI27888
aI27889
aI27890
aI27891
aI27892
aI27893
aI27894
aI27895
aI27896
aI27897
aI27898
aI27899
aI27900
aI27901
aI27902
aI27903
aI27904
aI27906
aI27907
aI27908
aI27910
aI27913
aI27914
aI27915
aI27916
aI27917
aI27918
aI27919
aI27920
aI27921
aI27922
aI27923
aI27924
aI27925
aI27926
aI27927
aI27928
aI27942
aI27943
aI27950
aI27955
aI27958
aI27961
aI27962
aI27964
aI27965
aI27966
aI27967
aI27968
aI27969
aI27971
aI27972
aI27973
aI27974
aI27975
aI27979
aI27980
aI27981
aI27982
aI27983
aI27984
aI27985
aI27986
aI27987
aI27988
aI27989
aI27990
aI27991
aI27992
aI27993
aI27994
aI27995
aI27996
aI27997
aI27998
aI27999
aI28000
aI28001
aI28002
aI28003
aI28004
aI28005
aI28006
aI28007
aI28008
aI28009
aI28010
aI28011
aI28012
aI28013
aI28014
aI28015
aI28016
aI28017
aI28018
aI28019
aI28020
aI28021
aI28022
aI28023
aI28024
aI28025
aI28026
aI28027
aI28028
aI28029
aI28030
aI28031
aI28032
aI28034
aI28035
aI28036
aI28037
aI28038
aI28039
aI28040
aI28041
aI28042
aI28043
aI28044
aI28045
aI28046
aI28047
aI28048
aI28049
aI28050
aI28051
aI28052
aI28053
aI28054
aI28055
aI28056
aI28073
aI28077
aI28081
aI28084
aI28087
aI28088
aI28089
aI28090
aI28091
aI28092
aI28093
aI28094
aI28095
aI28096
aI28097
aI28098
aI28099
aI28100
aI28101
aI28102
aI28103
aI28104
aI28105
aI28106
aI28107
aI28108
aI28109
aI28110
aI28111
aI28112
aI28113
aI28114
aI28115
aI28116
aI28117
aI28118
aI28119
aI28120
aI28121
aI28122
aI28123
aI28124
aI28125
aI28126
aI28127
aI28128
aI28129
aI28130
aI28131
aI28132
aI28133
aI28134
aI28135
aI28136
aI28137
aI28138
aI28139
aI28140
aI28141
aI28142
aI28143
aI28144
aI28145
aI28146
aI28147
aI28148
aI28149
aI28150
aI28151
aI28152
aI28153
aI28154
aI28155
aI28156
aI28157
aI28158
aI28159
aI28160
aI28162
aI28163
aI28165
aI28166
aI28167
aI28168
aI28169
aI28170
aI28171
aI28172
aI28173
aI28174
aI28175
aI28176
aI28177
aI28178
aI28179
aI28181
aI28182
aI28183
aI28184
aI28200
aI28204
aI28206
aI28207
aI28208
aI28209
aI28210
aI28211
aI28212
aI28213
aI28214
aI28215
aI28216
aI28217
aI28218
aI28220
aI28221
aI28222
aI28223
aI28224
aI28225
aI28226
aI28227
aI28228
aI28229
aI28230
aI28231
aI28232
aI28233
aI28234
aI28235
aI28236
aI28237
aI28238
aI28239
aI28240
aI28241
aI28242
aI28243
aI28244
aI28245
aI28246
aI28247
aI28248
aI28249
aI28250
aI28251
aI28252
aI28253
aI28254
aI28255
aI28256
aI28257
aI28258
aI28259
aI28260
aI28261
aI28262
aI28263
aI28264
aI28265
aI28266
aI28267
aI28268
aI28269
aI28270
aI28271
aI28272
aI28273
aI28274
aI28275
aI28276
aI28277
aI28278
aI28279
aI28280
aI28281
aI28282
aI28283
aI28284
aI28285
aI28286
aI28287
aI28288
aI28290
aI28291
aI28292
aI28293
aI28294
aI28295
aI28296
aI28297
aI28298
aI28299
aI28300
aI28301
aI28302
aI28303
aI28304
aI28305
aI28306
aI28307
aI28308
aI28309
aI28310
aI28311
aI28312
aI28331
aI28332
aI28333
aI28334
aI28336
aI28337
aI28338
aI28339
aI28340
aI28341
aI28342
aI28343
aI28344
aI28345
aI28347
aI28348
aI28349
aI28350
aI28351
aI28352
aI28353
aI28354
aI28355
aI28356
aI28357
aI28358
aI28359
aI28360
aI28361
aI28362
aI28363
aI28364
aI28365
aI28366
aI28367
aI28368
aI28369
aI28370
aI28371
aI28372
aI28373
aI28374
aI28375
aI28376
aI28377
aI28378
aI28379
aI28380
aI28381
aI28382
aI28383
aI28384
aI28385
aI28386
aI28387
aI28388
aI28389
aI28390
aI28391
aI28392
aI28393
aI28394
aI28395
aI28396
aI28397
aI28398
aI28399
aI28400
aI28401
aI28402
aI28403
aI28404
aI28405
aI28406
aI28407
aI28408
aI28409
aI28410
aI28411
aI28412
aI28413
aI28414
aI28415
aI28416
aI28418
aI28419
aI28420
aI28421
aI28422
aI28423
aI28424
aI28425
aI28426
aI28427
aI28428
aI28429
aI28430
aI28431
aI28432
aI28433
aI28435
aI28436
aI28437
aI28438
aI28439
aI28440
aI28452
aI28455
aI28458
aI28460
aI28461
aI28462
aI28463
aI28464
aI28465
aI28467
aI28468
aI28469
aI28470
aI28471
aI28472
aI28473
aI28475
aI28476
aI28477
aI28478
aI28479
aI28480
aI28481
aI28482
aI28483
aI28484
aI28485
aI28486
aI28487
aI28488
aI28489
aI28490
aI28491
aI28492
aI28493
aI28494
aI28495
aI28496
aI28497
aI28498
aI28499
aI28500
aI28501
aI28502
aI28503
aI28504
aI28505
aI28506
aI28507
aI28508
aI28509
aI28510
aI28511
aI28512
aI28513
aI28514
aI28515
aI28516
aI28517
aI28518
aI28519
aI28520
aI28521
aI28522
aI28523
aI28524
aI28525
aI28526
aI28527
aI28528
aI28529
aI28530
aI28531
aI28532
aI28533
aI28534
aI28535
aI28536
aI28537
aI28538
aI28539
aI28540
aI28541
aI28542
aI28543
aI28544
aI28545
aI28546
aI28547
aI28548
aI28549
aI28550
aI28551
aI28552
aI28553
aI28554
aI28555
aI28556
aI28557
aI28558
aI28559
aI28560
aI28561
aI28562
aI28563
aI28564
aI28565
aI28566
aI28567
aI28568
aI28580
aI28581
aI28585
aI28587
aI28588
aI28589
aI28590
aI28591
aI28592
aI28593
aI28594
aI28595
aI28596
aI28597
aI28598
aI28599
aI28600
aI28601
aI28602
aI28603
aI28604
aI28605
aI28606
aI28607
aI28608
aI28609
aI28610
aI28611
aI28612
aI28613
aI28614
aI28615
aI28616
aI28617
aI28618
aI28619
aI28620
aI28621
aI28622
aI28623
aI28624
aI28625
aI28626
aI28627
aI28628
aI28629
aI28630
aI28631
aI28632
aI28633
aI28634
aI28635
aI28636
aI28637
aI28638
aI28639
aI28640
aI28641
aI28642
aI28643
aI28644
aI28645
aI28646
aI28647
aI28648
aI28649
aI28650
aI28651
aI28652
aI28653
aI28654
aI28655
aI28656
aI28657
aI28658
aI28659
aI28660
aI28661
aI28662
aI28663
aI28664
aI28665
aI28666
aI28667
aI28668
aI28669
aI28670
aI28671
aI28672
aI28674
aI28675
aI28676
aI28677
aI28678
aI28679
aI28680
aI28681
aI28682
aI28683
aI28684
aI28685
aI28686
aI28687
aI28688
aI28689
aI28690
aI28691
aI28692
aI28693
aI28694
aI28695
aI28696
aI28709
aI28710
aI28711
aI28713
aI28714
aI28715
aI28716
aI28717
aI28718
aI28719
aI28720
aI28721
aI28722
aI28723
aI28724
aI28725
aI28726
aI28727
aI28728
aI28729
aI28730
aI28731
aI28732
aI28733
aI28734
aI28735
aI28736
aI28737
aI28738
aI28739
aI28740
aI28741
aI28742
aI28743
aI28744
aI28745
aI28746
aI28747
aI28748
aI28749
aI28750
aI28751
aI28752
aI28753
aI28754
aI28755
aI28756
aI28757
aI28758
aI28759
aI28760
aI28761
aI28762
aI28763
aI28764
aI28765
aI28766
aI28767
aI28768
aI28769
aI28770
aI28771
aI28772
aI28773
aI28774
aI28775
aI28776
aI28777
aI28778
aI28779
aI28780
aI28781
aI28782
aI28783
aI28784
aI28785
aI28786
aI28787
aI28788
aI28789
aI28790
aI28791
aI28792
aI28793
aI28794
aI28795
aI28796
aI28797
aI28798
aI28799
aI28800
aI28802
aI28803
aI28804
aI28805
aI28806
aI28807
aI28808
aI28809
aI28810
aI28811
aI28812
aI28813
aI28814
aI28815
aI28816
aI28817
aI28818
aI28819
aI28820
aI28821
aI28822
aI28823
aI28824
aI28825
aI28836
aI28837
aI28838
aI28839
aI28841
aI28842
aI28843
aI28844
aI28845
aI28846
aI28847
aI28848
aI28849
aI28850
aI28851
aI28852
aI28853
aI28854
aI28855
aI28856
aI28857
aI28858
aI28859
aI28860
aI28861
aI28862
aI28863
aI28864
aI28865
aI28866
aI28867
aI28868
aI28869
aI28870
aI28871
aI28872
aI28873
aI28874
aI28875
aI28876
aI28877
aI28878
aI28879
aI28880
aI28881
aI28882
aI28883
aI28884
aI28885
aI28886
aI28887
aI28888
aI28889
aI28890
aI28891
aI28892
aI28893
aI28894
aI28895
aI28896
aI28897
aI28898
aI28899
aI28900
aI28901
aI28902
aI28903
aI28904
aI28905
aI28906
aI28907
aI28908
aI28909
aI28910
aI28911
aI28912
aI28913
aI28914
aI28915
aI28916
aI28917
aI28918
aI28919
aI28920
aI28921
aI28922
aI28923
aI28924
aI28925
aI28926
aI28927
aI28928
aI28929
aI28930
aI28931
aI28932
aI28933
aI28934
aI28935
aI28936
aI28937
aI28938
aI28939
aI28940
aI28941
aI28942
aI28943
aI28944
aI28945
aI28946
aI28947
aI28948
aI28949
aI28950
aI28951
aI28952
aI28953
aI28961
aI28963
aI28965
aI28966
aI28967
aI28968
aI28969
aI28970
aI28971
aI28972
aI28973
aI28974
aI28975
aI28976
aI28977
aI28978
aI28979
aI28980
aI28981
aI28982
aI28983
aI28984
aI28985
aI28986
aI28987
aI28988
aI28989
aI28990
aI28991
aI28992
aI28993
aI28994
aI28995
aI28996
aI28997
aI28998
aI28999
aI29000
aI29001
aI29002
aI29003
aI29004
aI29005
aI29006
aI29007
aI29008
aI29009
aI29010
aI29011
aI29012
aI29013
aI29014
aI29015
aI29016
aI29017
aI29018
aI29019
aI29020
aI29021
aI29022
aI29023
aI29024
aI29025
aI29026
aI29027
aI29028
aI29029
aI29030
aI29031
aI29032
aI29033
aI29034
aI29035
aI29036
aI29037
aI29038
aI29039
aI29040
aI29041
aI29042
aI29043
aI29044
aI29045
aI29046
aI29047
aI29048
aI29049
aI29050
aI29051
aI29052
aI29053
aI29054
aI29055
aI29056
aI29057
aI29058
aI29059
aI29060
aI29061
aI29062
aI29063
aI29064
aI29065
aI29066
aI29067
aI29068
aI29069
aI29070
aI29071
aI29072
aI29073
aI29074
aI29075
aI29076
aI29077
aI29078
aI29079
aI29080
aI29093
aI29094
aI29096
aI29097
aI29098
aI29099
aI29100
aI29101
aI29102
aI29103
aI29104
aI29105
aI29106
aI29107
aI29108
aI29109
aI29110
aI29111
aI29112
aI29113
aI29114
aI29115
aI29116
aI29117
aI29118
aI29119
aI29120
aI29121
aI29122
aI29123
aI29124
aI29125
aI29126
aI29127
aI29128
aI29129
aI29130
aI29131
aI29132
aI29133
aI29134
aI29135
aI29136
aI29137
aI29138
aI29139
aI29140
aI29141
aI29142
aI29143
aI29144
aI29145
aI29146
aI29147
aI29148
aI29149
aI29150
aI29151
aI29152
aI29153
aI29154
aI29155
aI29156
aI29157
aI29158
aI29159
aI29160
aI29161
aI29162
aI29163
aI29164
aI29165
aI29166
aI29167
aI29168
aI29169
aI29170
aI29171
aI29172
aI29173
aI29174
aI29175
aI29176
aI29177
aI29178
aI29179
aI29180
aI29181
aI29182
aI29183
aI29184
aI29185
aI29186
aI29187
aI29189
aI29190
aI29191
aI29192
aI29193
aI29194
aI29195
aI29196
aI29197
aI29198
aI29199
aI29200
aI29201
aI29202
aI29203
aI29204
aI29205
aI29206
aI29207
aI29208
aI29209
aI29212
aI29215
aI29216
aI29218
aI29219
aI29220
aI29221
aI29222
aI29223
aI29224
aI29225
aI29226
aI29227
aI29228
aI29229
aI29230
aI29231
aI29232
aI29233
aI29234
aI29235
aI29236
aI29237
aI29238
aI29239
aI29240
aI29241
aI29242
aI29243
aI29244
aI29245
aI29246
aI29247
aI29248
aI29249
aI29250
aI29251
aI29252
aI29253
aI29254
aI29255
aI29256
aI29257
aI29258
aI29259
aI29260
aI29261
aI29262
aI29263
aI29264
aI29265
aI29266
aI29267
aI29268
aI29269
aI29270
aI29271
aI29272
aI29273
aI29274
aI29275
aI29276
aI29277
aI29278
aI29279
aI29280
aI29281
aI29282
aI29283
aI29284
aI29285
aI29286
aI29287
aI29288
aI29289
aI29290
aI29291
aI29292
aI29293
aI29294
aI29295
aI29296
aI29297
aI29298
aI29299
aI29300
aI29301
aI29302
aI29303
aI29304
aI29305
aI29306
aI29307
aI29308
aI29309
aI29310
aI29311
aI29312
aI29313
aI29314
aI29315
aI29316
aI29317
aI29318
aI29319
aI29320
aI29321
aI29322
aI29323
aI29324
aI29325
aI29326
aI29327
aI29328
aI29329
aI29330
aI29331
aI29332
aI29333
aI29334
aI29335
aI29336
aI29337
aI29340
aI29341
aI29342
aI29343
aI29344
aI29345
aI29346
aI29347
aI29348
aI29349
aI29350
aI29351
aI29352
aI29353
aI29354
aI29355
aI29356
aI29357
aI29358
aI29359
aI29360
aI29361
aI29362
aI29363
aI29364
aI29365
aI29366
aI29367
aI29368
aI29369
aI29370
aI29371
aI29372
aI29373
aI29374
aI29375
aI29376
aI29377
aI29378
aI29379
aI29380
aI29381
aI29382
aI29383
aI29384
aI29385
aI29386
aI29387
aI29388
aI29389
aI29390
aI29391
aI29392
aI29393
aI29394
aI29395
aI29396
aI29397
aI29398
aI29399
aI29400
aI29401
aI29402
aI29403
aI29404
aI29405
aI29406
aI29407
aI29408
aI29409
aI29410
aI29411
aI29412
aI29413
aI29414
aI29415
aI29416
aI29417
aI29418
aI29419
aI29420
aI29421
aI29422
aI29423
aI29424
aI29425
aI29426
aI29427
aI29428
aI29429
aI29430
aI29431
aI29432
aI29433
aI29434
aI29435
aI29436
aI29437
aI29438
aI29439
aI29440
aI29441
aI29442
aI29443
aI29444
aI29445
aI29446
aI29447
aI29448
aI29449
aI29450
aI29451
aI29452
aI29453
aI29454
aI29455
aI29456
aI29457
aI29458
aI29459
aI29460
aI29461
aI29462
aI29463
aI29464
aI29465
aI29466
aI29469
aI29470
aI29471
aI29472
aI29473
aI29474
aI29475
aI29476
aI29477
aI29478
aI29479
aI29480
aI29481
aI29482
aI29483
aI29484
aI29485
aI29486
aI29487
aI29488
aI29489
aI29490
aI29491
aI29492
aI29493
aI29494
aI29495
aI29496
aI29497
aI29498
aI29499
aI29500
aI29501
aI29502
aI29503
aI29504
aI29505
aI29506
aI29507
aI29508
aI29509
aI29510
aI29511
aI29512
aI29513
aI29514
aI29515
aI29516
aI29517
aI29518
aI29519
aI29520
aI29521
aI29522
aI29523
aI29524
aI29525
aI29526
aI29527
aI29528
aI29529
aI29530
aI29531
aI29532
aI29533
aI29534
aI29535
aI29536
aI29537
aI29538
aI29539
aI29540
aI29541
aI29542
aI29543
aI29544
aI29545
aI29546
aI29547
aI29548
aI29549
aI29550
aI29551
aI29552
aI29553
aI29554
aI29555
aI29556
aI29557
aI29558
aI29559
aI29560
aI29561
aI29562
aI29563
aI29564
aI29565
aI29566
aI29567
aI29568
aI29569
aI29570
aI29571
aI29572
aI29573
aI29574
aI29575
aI29576
aI29577
aI29578
aI29579
aI29580
aI29581
aI29582
aI29583
aI29584
aI29585
aI29586
aI29587
aI29588
aI29589
aI29590
aI29591
aI29592
aI29593
aI29594
aI29595
aI29596
aI29597
aI29598
aI29599
aI29600
aI29601
aI29602
aI29603
aI29604
aI29605
aI29606
aI29607
aI29608
aI29609
aI29610
aI29611
aI29612
aI29613
aI29614
aI29615
aI29616
aI29617
aI29618
aI29619
aI29620
aI29621
aI29622
aI29623
aI29624
aI29625
aI29626
aI29627
aI29628
aI29629
aI29630
aI29631
aI29632
aI29633
aI29634
aI29635
aI29636
aI29637
aI29638
aI29639
aI29640
aI29641
aI29642
aI29643
aI29644
aI29645
aI29646
aI29647
aI29648
aI29649
aI29650
aI29651
aI29652
aI29653
aI29654
aI29655
aI29656
aI29657
aI29658
aI29659
aI29660
aI29661
aI29662
aI29663
aI29664
aI29665
aI29666
aI29667
aI29668
aI29669
aI29670
aI29671
aI29672
aI29673
aI29674
aI29675
aI29676
aI29677
aI29678
aI29679
aI29680
aI29681
aI29682
aI29683
aI29684
aI29685
aI29686
aI29687
aI29688
aI29689
aI29690
aI29691
aI29692
aI29693
aI29694
aI29695
aI29696
aI29697
aI29698
aI29699
aI29700
aI29701
aI29702
aI29703
aI29704
aI29705
aI29706
aI29707
aI29708
aI29709
aI29710
aI29713
aI29714
aI29715
aI29716
aI29717
aI29718
aI29719
aI29720
aI29721
aI29722
aI29723
aI29724
aI29725
aI29726
aI29727
aI29728
aI29729
aI29730
aI29731
aI29732
aI29733
aI29734
aI29735
aI29736
aI29737
aI29738
aI29739
aI29740
aI29741
aI29742
aI29743
aI29744
aI29745
aI29746
aI29747
aI29748
aI29749
aI29750
aI29751
aI29752
aI29753
aI29754
aI29755
aI29756
aI29757
aI29758
aI29759
aI29760
aI29761
aI29762
aI29763
aI29764
aI29765
aI29766
aI29767
aI29768
aI29769
aI29770
aI29771
aI29772
aI29773
aI29774
aI29775
aI29776
aI29777
aI29778
aI29779
aI29780
aI29781
aI29782
aI29783
aI29784
aI29785
aI29786
aI29787
aI29788
aI29789
aI29790
aI29791
aI29792
aI29793
aI29794
aI29795
aI29796
aI29797
aI29798
aI29799
aI29800
aI29801
aI29802
aI29803
aI29804
aI29805
aI29806
aI29807
aI29808
aI29809
aI29810
aI29811
aI29812
aI29813
aI29814
aI29815
aI29816
aI29817
aI29818
aI29819
aI29820
aI29821
aI29822
aI29823
aI29824
aI29825
aI29826
aI29827
aI29828
aI29829
aI29830
aI29831
aI29832
aI29833
aI29834
aI29835
aI29836
aI29837
aI29838
aI29841
aI29842
aI29843
aI29844
aI29845
aI29846
aI29847
aI29848
aI29849
aI29850
aI29851
aI29852
aI29853
aI29854
aI29855
aI29856
aI29857
aI29858
aI29859
aI29860
aI29861
aI29862
aI29863
aI29864
aI29865
aI29866
aI29867
aI29868
aI29869
aI29870
aI29871
aI29872
aI29873
aI29874
aI29875
aI29876
aI29877
aI29878
aI29879
aI29880
aI29881
aI29882
aI29883
aI29884
aI29885
aI29886
aI29887
aI29888
aI29889
aI29890
aI29891
aI29892
aI29893
aI29894
aI29895
aI29896
aI29897
aI29898
aI29899
aI29900
aI29901
aI29902
aI29903
aI29904
aI29905
aI29906
aI29907
aI29908
aI29909
aI29910
aI29911
aI29912
aI29913
aI29914
aI29915
aI29916
aI29917
aI29918
aI29919
aI29920
aI29921
aI29922
aI29923
aI29924
aI29925
aI29926
aI29927
aI29928
aI29929
aI29930
aI29931
aI29932
aI29933
aI29934
aI29935
aI29936
aI29937
aI29938
aI29939
aI29940
aI29941
aI29942
aI29943
aI29944
aI29945
aI29946
aI29947
aI29948
aI29949
aI29950
aI29951
aI29952
aI29953
aI29954
aI29955
aI29956
aI29957
aI29958
aI29959
aI29960
aI29961
aI29962
aI29963
aI29964
aI29965
aI29966
aI29967
aI29968
aI29969
aI29970
aI29971
aI29972
aI29973
aI29974
aI29975
aI29976
aI29977
aI29978
aI29979
aI29980
aI29981
aI29982
aI29983
aI29984
aI29985
aI29986
aI29987
aI29988
aI29989
aI29990
aI29991
aI29992
aI29993
aI29994
aI29995
aI29996
aI29997
aI29998
aI29999
aI30000
aI30001
aI30002
aI30003
aI30004
aI30005
aI30006
aI30007
aI30008
aI30009
aI30010
aI30011
aI30012
aI30013
aI30014
aI30015
aI30016
aI30017
aI30018
aI30019
aI30020
aI30021
aI30022
aI30023
aI30024
aI30025
aI30026
aI30027
aI30028
aI30029
aI30030
aI30031
aI30032
aI30033
aI30034
aI30035
aI30036
aI30037
aI30038
aI30039
aI30040
aI30041
aI30042
aI30043
aI30044
aI30045
aI30046
aI30047
aI30048
aI30049
aI30050
aI30051
aI30052
aI30053
aI30054
aI30055
aI30056
aI30057
aI30058
aI30059
aI30060
aI30061
aI30062
aI30063
aI30064
aI30065
aI30066
aI30067
aI30068
aI30069
aI30070
aI30071
aI30072
aI30073
aI30074
aI30075
aI30076
aI30077
aI30078
aI30079
aI30080
aI30081
aI30082
aI30083
aI30084
aI30085
aI30086
aI30087
aI30088
aI30089
aI30090
aI30091
aI30092
aI30093
aI30094
aI30095
aI30096
aI30097
aI30098
aI30099
aI30100
aI30101
aI30102
aI30103
aI30104
aI30105
aI30106
aI30107
aI30108
aI30109
aI30110
aI30111
aI30112
aI30113
aI30114
aI30115
aI30116
aI30117
aI30118
aI30119
aI30120
aI30121
aI30122
aI30123
aI30124
aI30125
aI30126
aI30127
aI30128
aI30129
aI30130
aI30131
aI30132
aI30133
aI30134
aI30135
aI30136
aI30137
aI30138
aI30139
aI30140
aI30141
aI30142
aI30143
aI30144
aI30145
aI30146
aI30147
aI30148
aI30149
aI30150
aI30151
aI30152
aI30153
aI30154
aI30155
aI30156
aI30157
aI30158
aI30159
aI30160
aI30161
aI30162
aI30163
aI30164
aI30165
aI30166
aI30167
aI30168
aI30169
aI30170
aI30171
aI30172
aI30173
aI30174
aI30175
aI30176
aI30177
aI30178
aI30179
aI30180
aI30181
aI30182
aI30183
aI30184
aI30185
aI30186
aI30187
aI30188
aI30189
aI30190
aI30191
aI30192
aI30193
aI30194
aI30195
aI30196
aI30197
aI30198
aI30199
aI30200
aI30201
aI30202
aI30203
aI30204
aI30205
aI30206
aI30207
aI30208
aI30209
aI30210
aI30211
aI30212
aI30213
aI30214
aI30215
aI30216
aI30217
aI30218
aI30219
aI30220
aI30221
aI30222
aI30223
aI30224
aI30225
aI30226
aI30227
aI30228
aI30229
aI30230
aI30231
aI30232
aI30233
aI30234
aI30235
aI30236
aI30237
aI30238
aI30239
aI30240
aI30241
aI30242
aI30243
aI30244
aI30245
aI30246
aI30247
aI30248
aI30249
aI30250
aI30251
aI30252
aI30253
aI30254
aI30255
aI30256
aI30257
aI30258
aI30259
aI30260
aI30261
aI30262
aI30263
aI30264
aI30265
aI30266
aI30267
aI30268
aI30269
aI30270
aI30271
aI30272
aI30273
aI30274
aI30275
aI30276
aI30277
aI30278
aI30279
aI30280
aI30281
aI30282
aI30283
aI30284
aI30285
aI30286
aI30287
aI30288
aI30289
aI30290
aI30291
aI30292
aI30293
aI30294
aI30295
aI30296
aI30297
aI30298
aI30299
aI30300
aI30301
aI30302
aI30303
aI30304
aI30305
aI30306
aI30307
aI30308
aI30309
aI30310
aI30311
aI30312
aI30313
aI30314
aI30315
aI30316
aI30317
aI30318
aI30319
aI30320
aI30321
aI30322
aI30323
aI30324
aI30325
aI30326
aI30327
aI30328
aI30329
aI30330
aI30331
aI30332
aI30333
aI30334
aI30335
aI30336
aI30337
aI30338
aI30339
aI30340
aI30341
aI30342
aI30343
aI30344
aI30345
aI30346
aI30347
aI30348
aI30349
aI30350
aI30351
aI30352
aI30353
aI30354
aI30355
aI30356
aI30357
aI30358
aI30359
aI30360
aI30361
aI30362
aI30363
aI30364
aI30365
aI30366
aI30367
aI30368
aI30369
aI30370
aI30371
aI30372
aI30373
aI30374
aI30375
aI30376
aI30377
aI30378
aI30379
aI30380
aI30381
aI30382
aI30383
aI30384
aI30385
aI30386
aI30387
aI30388
aI30389
aI30390
aI30391
aI30392
aI30393
aI30394
aI30395
aI30396
aI30397
aI30398
aI30399
aI30400
aI30401
aI30402
aI30403
aI30404
aI30405
aI30406
aI30407
aI30408
aI30409
aI30410
aI30411
aI30412
aI30413
aI30414
aI30415
aI30416
aI30417
aI30418
aI30419
aI30420
aI30421
aI30422
aI30423
aI30424
aI30425
aI30426
aI30427
aI30428
aI30429
aI30430
aI30431
aI30432
aI30433
aI30434
aI30435
aI30436
aI30437
aI30438
aI30439
aI30440
aI30441
aI30442
aI30443
aI30444
aI30445
aI30446
aI30447
aI30448
aI30449
aI30450
aI30451
aI30452
aI30453
aI30454
aI30455
aI30456
aI30457
aI30458
aI30459
aI30460
aI30461
aI30462
aI30463
aI30464
aI30465
aI30466
aI30467
aI30468
aI30469
aI30470
aI30471
aI30472
aI30473
aI30474
aI30475
aI30476
aI30477
aI30478
aI30479
aI30480
aI30481
aI30482
aI30483
aI30484
aI30485
aI30486
aI30487
aI30488
aI30489
aI30490
aI30491
aI30492
aI30493
aI30494
aI30495
aI30496
aI30497
aI30498
aI30499
aI30500
aI30501
aI30502
aI30503
aI30504
aI30505
aI30506
aI30507
aI30508
aI30509
aI30510
aI30511
aI30512
aI30513
aI30514
aI30515
aI30516
aI30517
aI30518
aI30519
aI30520
aI30521
aI30522
aI30523
aI30524
aI30525
aI30526
aI30527
aI30528
aI30529
aI30530
aI30531
aI30532
aI30533
aI30534
aI30535
aI30536
aI30537
aI30538
aI30539
aI30540
aI30541
aI30542
aI30543
aI30544
aI30545
aI30546
aI30547
aI30548
aI30549
aI30550
aI30551
aI30552
aI30553
aI30554
aI30555
aI30556
aI30557
aI30558
aI30559
aI30560
aI30561
aI30562
aI30563
aI30564
aI30565
aI30566
aI30567
aI30568
aI30569
aI30570
aI30571
aI30572
aI30573
aI30574
aI30575
aI30576
aI30577
aI30578
aI30579
aI30580
aI30581
aI30582
aI30583
aI30584
aI30585
aI30586
aI30587
aI30588
aI30589
aI30590
aI30591
aI30594
aI30595
aI30597
aI30598
aI30599
aI30600
aI30601
aI30602
aI30603
aI30604
aI30605
aI30606
aI30607
aI30608
aI30609
aI30610
aI30611
aI30612
aI30613
aI30614
aI30615
aI30616
aI30617
aI30618
aI30619
aI30620
aI30621
aI30622
aI30623
aI30624
aI30625
aI30626
aI30627
aI30628
aI30629
aI30630
aI30631
aI30632
aI30633
aI30634
aI30635
aI30636
aI30637
aI30638
aI30639
aI30640
aI30641
aI30642
aI30643
aI30644
aI30645
aI30646
aI30647
aI30648
aI30649
aI30650
aI30651
aI30652
aI30653
aI30654
aI30655
aI30656
aI30657
aI30658
aI30659
aI30660
aI30661
aI30662
aI30663
aI30664
aI30665
aI30666
aI30667
aI30668
aI30669
aI30670
aI30671
aI30672
aI30673
aI30674
aI30675
aI30676
aI30677
aI30678
aI30679
aI30680
aI30681
aI30682
aI30683
aI30684
aI30685
aI30686
aI30687
aI30688
aI30689
aI30690
aI30691
aI30692
aI30693
aI30694
aI30695
aI30696
aI30697
aI30698
aI30699
aI30700
aI30701
aI30702
aI30703
aI30704
aI30705
aI30706
aI30707
aI30708
aI30709
aI30710
aI30711
aI30712
aI30713
aI30714
aI30715
aI30716
aI30717
aI30718
aI30719
aI30720
aI30721
aI30722
aI30723
aI30724
aI30725
aI30726
aI30727
aI30728
aI30729
aI30730
aI30731
aI30732
aI30733
aI30734
aI30735
aI30736
aI30737
aI30738
aI30739
aI30740
aI30741
aI30742
aI30743
aI30744
aI30745
aI30746
aI30747
aI30748
aI30749
aI30750
aI30751
aI30752
aI30753
aI30754
aI30755
aI30756
aI30757
aI30758
aI30759
aI30760
aI30761
aI30762
aI30763
aI30764
aI30765
aI30766
aI30767
aI30768
aI30769
aI30770
aI30771
aI30772
aI30773
aI30774
aI30775
aI30776
aI30777
aI30778
aI30779
aI30780
aI30781
aI30782
aI30783
aI30784
aI30785
aI30786
aI30787
aI30788
aI30789
aI30790
aI30791
aI30792
aI30793
aI30794
aI30795
aI30796
aI30797
aI30798
aI30799
aI30800
aI30801
aI30802
aI30803
aI30804
aI30805
aI30806
aI30807
aI30808
aI30809
aI30810
aI30811
aI30812
aI30813
aI30814
aI30815
aI30816
aI30817
aI30818
aI30819
aI30820
aI30821
aI30822
aI30823
aI30824
aI30825
aI30826
aI30827
aI30828
aI30829
aI30830
aI30831
aI30832
aI30833
aI30834
aI30835
aI30836
aI30837
aI30838
aI30839
aI30840
aI30841
aI30842
aI30843
aI30844
aI30845
aI30846
aI30847
aI30848
aI30849
aI30850
aI30851
aI30852
aI30853
aI30854
aI30855
aI30856
aI30857
aI30858
aI30859
aI30860
aI30861
aI30862
aI30863
aI30864
aI30865
aI30866
aI30867
aI30868
aI30869
aI30870
aI30871
aI30872
aI30873
aI30874
aI30875
aI30876
aI30877
aI30878
aI30879
aI30880
aI30881
aI30882
aI30883
aI30884
aI30885
aI30886
aI30887
aI30888
aI30889
aI30890
aI30891
aI30892
aI30893
aI30894
aI30895
aI30896
aI30897
aI30898
aI30899
aI30900
aI30901
aI30902
aI30903
aI30904
aI30905
aI30906
aI30907
aI30908
aI30909
aI30910
aI30911
aI30912
aI30913
aI30914
aI30915
aI30916
aI30917
aI30918
aI30919
aI30920
aI30921
aI30922
aI30923
aI30924
aI30925
aI30926
aI30927
aI30928
aI30929
aI30930
aI30931
aI30932
aI30933
aI30934
aI30935
aI30936
aI30937
aI30938
aI30939
aI30940
aI30941
aI30942
aI30943
aI30944
aI30945
aI30946
aI30947
aI30948
aI30949
aI30950
aI30951
aI30952
aI30953
aI30954
aI30955
aI30956
aI30957
aI30958
aI30959
aI30960
aI30961
aI30962
aI30963
aI30964
aI30965
aI30966
aI30967
aI30968
aI30969
aI30970
aI30971
aI30972
aI30973
aI30974
aI30975
aI30976
aI30977
aI30978
aI30979
aI30980
aI30981
aI30982
aI30983
aI30984
aI30985
aI30986
aI30987
aI30988
aI30989
aI30990
aI30991
aI30992
aI30993
aI30994
aI30995
aI30996
aI30997
aI30998
aI30999
aI31000
aI31001
aI31002
aI31003
aI31004
aI31005
aI31006
aI31007
aI31008
aI31009
aI31010
aI31011
aI31012
aI31013
aI31014
aI31015
aI31016
aI31017
aI31018
aI31019
aI31020
aI31021
aI31022
aI31023
aI31024
aI31025
aI31026
aI31027
aI31028
aI31029
aI31030
aI31031
aI31032
aI31033
aI31034
aI31035
aI31036
aI31037
aI31038
aI31039
aI31040
aI31041
aI31042
aI31043
aI31044
aI31045
aI31046
aI31047
aI31048
aI31049
aI31050
aI31051
aI31052
aI31053
aI31054
aI31055
aI31056
aI31057
aI31058
aI31059
aI31060
aI31061
aI31062
aI31063
aI31064
aI31065
aI31066
aI31067
aI31068
aI31069
aI31070
aI31071
aI31072
aI31073
aI31074
aI31075
aI31076
aI31077
aI31078
aI31079
aI31080
aI31081
aI31082
aI31083
aI31084
aI31085
aI31086
aI31087
aI31088
aI31089
aI31090
aI31091
aI31092
aI31093
aI31094
aI31095
aI31096
aI31097
aI31098
aI31099
aI31100
aI31101
aI31102
aI31103
aI31104
aI31105
aI31106
aI31107
aI31108
aI31109
aI31110
aI31111
aI31112
aI31113
aI31114
aI31115
aI31116
aI31117
aI31118
aI31119
aI31120
aI31121
aI31122
aI31123
aI31124
aI31125
aI31126
aI31127
aI31128
aI31129
aI31130
aI31131
aI31132
aI31133
aI31134
aI31135
aI31136
aI31137
aI31138
aI31139
aI31140
aI31141
aI31142
aI31143
aI31144
aI31145
aI31146
aI31147
aI31148
aI31149
aI31150
aI31151
aI31152
aI31153
aI31154
aI31155
aI31156
aI31157
aI31158
aI31159
aI31160
aI31161
aI31162
aI31163
aI31164
aI31165
aI31166
aI31167
aI31168
aI31169
aI31170
aI31171
aI31172
aI31173
aI31174
aI31175
aI31176
aI31177
aI31178
aI31179
aI31180
aI31181
aI31182
aI31183
aI31184
aI31185
aI31186
aI31187
aI31188
aI31189
aI31190
aI31191
aI31192
aI31193
aI31194
aI31195
aI31196
aI31197
aI31198
aI31199
aI31200
aI31201
aI31202
aI31203
aI31204
aI31205
aI31206
aI31207
aI31208
aI31209
aI31210
aI31211
aI31212
aI31213
aI31214
aI31215
aI31216
aI31217
aI31218
aI31219
aI31220
aI31221
aI31222
aI31223
aI31224
aI31225
aI31226
aI31227
aI31228
aI31229
aI31230
aI31231
aI31232
aI31233
aI31234
aI31235
aI31236
aI31237
aI31238
aI31239
aI31240
aI31241
aI31242
aI31243
aI31244
aI31245
aI31246
aI31247
aI31248
aI31249
aI31250
aI31251
aI31252
aI31253
aI31254
aI31255
aI31256
aI31257
aI31258
aI31259
aI31260
aI31261
aI31262
aI31263
aI31264
aI31265
aI31266
aI31267
aI31268
aI31269
aI31270
aI31271
aI31272
aI31273
aI31274
aI31275
aI31276
aI31277
aI31278
aI31279
aI31280
aI31281
aI31282
aI31283
aI31284
aI31285
aI31286
aI31287
aI31288
aI31289
aI31290
aI31291
aI31292
aI31293
aI31294
aI31295
aI31296
aI31297
aI31298
aI31299
aI31300
aI31301
aI31302
aI31303
aI31304
aI31305
aI31306
aI31307
aI31308
aI31309
aI31310
aI31311
aI31312
aI31313
aI31314
aI31315
aI31316
aI31317
aI31318
aI31319
aI31320
aI31321
aI31322
aI31323
aI31324
aI31325
aI31326
aI31327
aI31328
aI31329
aI31330
aI31331
aI31332
aI31333
aI31334
aI31335
aI31336
aI31337
aI31338
aI31339
aI31340
aI31341
aI31342
aI31343
aI31344
aI31345
aI31346
aI31347
aI31348
aI31349
aI31350
aI31351
aI31352
aI31353
aI31354
aI31355
aI31356
aI31357
aI31358
aI31359
aI31360
aI31361
aI31362
aI31363
aI31364
aI31365
aI31366
aI31367
aI31368
aI31369
aI31370
aI31371
aI31372
aI31373
aI31374
aI31375
aI31376
aI31377
aI31378
aI31379
aI31380
aI31381
aI31382
aI31383
aI31384
aI31385
aI31386
aI31387
aI31388
aI31389
aI31390
aI31391
aI31392
aI31393
aI31394
aI31395
aI31396
aI31397
aI31398
aI31399
aI31400
aI31401
aI31402
aI31403
aI31404
aI31405
aI31406
aI31407
aI31408
aI31409
aI31410
aI31411
aI31412
aI31413
aI31414
aI31415
aI31416
aI31417
aI31418
aI31419
aI31420
aI31421
aI31422
aI31423
aI31424
aI31425
aI31426
aI31427
aI31428
aI31429
aI31430
aI31431
aI31432
aI31433
aI31434
aI31435
aI31436
aI31437
aI31438
aI31439
aI31440
aI31441
aI31442
aI31443
aI31444
aI31445
aI31446
aI31447
aI31448
aI31449
aI31450
aI31451
aI31452
aI31453
aI31454
aI31455
aI31456
aI31457
aI31458
aI31459
aI31460
aI31461
aI31462
aI31463
aI31464
aI31465
aI31466
aI31467
aI31468
aI31469
aI31470
aI31471
aI31472
aI31473
aI31474
aI31475
aI31476
aI31477
aI31478
aI31479
aI31480
aI31481
aI31482
aI31483
aI31484
aI31485
aI31486
aI31487
aI31488
aI31489
aI31490
aI31491
aI31492
aI31493
aI31494
aI31495
aI31496
aI31497
aI31498
aI31499
aI31500
aI31501
aI31502
aI31503
aI31504
aI31505
aI31506
aI31507
aI31508
aI31509
aI31510
aI31511
aI31512
aI31513
aI31514
aI31515
aI31516
aI31517
aI31518
aI31519
aI31520
aI31521
aI31522
aI31523
aI31524
aI31525
aI31526
aI31527
aI31528
aI31529
aI31530
aI31531
aI31532
aI31533
aI31534
aI31535
aI31536
aI31537
aI31538
aI31539
aI31540
aI31541
aI31542
aI31543
aI31544
aI31545
aI31546
aI31547
aI31548
aI31549
aI31550
aI31551
aI31552
aI31553
aI31554
aI31555
aI31556
aI31557
aI31558
aI31559
aI31560
aI31561
aI31562
aI31563
aI31564
aI31565
aI31566
aI31567
aI31568
aI31569
aI31570
aI31571
aI31572
aI31573
aI31574
aI31575
aI31576
aI31577
aI31578
aI31579
aI31580
aI31581
aI31582
aI31583
aI31584
aI31585
aI31586
aI31587
aI31588
aI31589
aI31590
aI31591
aI31592
aI31593
aI31594
aI31595
aI31596
aI31597
aI31598
aI31599
aI31600
aI31601
aI31602
aI31603
aI31604
aI31605
aI31606
aI31607
aI31608
aI31609
aI31610
aI31611
aI31612
aI31613
aI31614
aI31616
aI31617
aI31618
aI31619
aI31620
aI31621
aI31622
aI31623
aI31624
aI31625
aI31626
aI31627
aI31628
aI31629
aI31630
aI31631
aI31632
aI31633
aI31634
aI31635
aI31636
aI31637
aI31638
aI31639
aI31640
aI31641
aI31642
aI31643
aI31644
aI31645
aI31646
aI31647
aI31648
aI31649
aI31650
aI31651
aI31652
aI31653
aI31654
aI31655
aI31656
aI31657
aI31658
aI31659
aI31660
aI31661
aI31662
aI31663
aI31664
aI31665
aI31666
aI31667
aI31668
aI31669
aI31670
aI31671
aI31672
aI31673
aI31674
aI31675
aI31676
aI31677
aI31678
aI31679
aI31680
aI31681
aI31682
aI31683
aI31684
aI31685
aI31686
aI31687
aI31688
aI31689
aI31690
aI31691
aI31692
aI31693
aI31694
aI31695
aI31696
aI31697
aI31698
aI31699
aI31700
aI31701
aI31702
aI31703
aI31704
aI31705
aI31706
aI31707
aI31708
aI31709
aI31710
aI31711
aI31712
aI31713
aI31714
aI31744
aI31745
aI31746
aI31747
aI31748
aI31749
aI31750
aI31751
aI31752
aI31753
aI31754
aI31755
aI31756
aI31760
aI31761
aI31762
aI31763
aI31764
aI31765
aI31766
aI31767
aI31768
aI31769
aI31770
aI31771
aI31772
aI31773
aI31774
aI31775
aI31776
aI31777
aI31778
aI31779
aI31780
aI31781
aI31782
aI31783
aI31784
aI31785
aI31786
aI31787
aI31788
aI31789
aI31790
aI31791
aI31792
aI31793
aI31794
aI31795
aI31796
aI31797
aI31798
aI31799
aI31800
aI31801
aI31802
aI31803
aI31804
aI31805
aI31806
aI31807
aI31808
aI31809
aI31810
aI31811
aI31812
aI31872
aI31873
aI31874
aI31875
aI31876
aI31877
aI31878
aI31879
aI31880
aI31881
aI31882
aI31883
aI31884
aI31885
aI31889
aI31890
aI31891
aI31892
aI31893
aI31894
aI31895
aI31896
aI31897
aI31898
aI31899
aI31900
aI31901
aI31902
aI31903
aI31904
aI31905
aI31906
aI31907
aI31908
aI31909
aI31910
aI31911
aI31912
aI31913
aI31914
aI31915
aI31916
aI31917
aI31918
aI31919
aI31920
aI31921
aI31922
aI31923
aI31924
aI31925
aI31926
aI31927
aI31928
aI31929
aI31930
aI31931
aI32000
aI32001
aI32002
aI32003
aI32004
aI32005
aI32006
aI32007
aI32008
aI32009
aI32010
aI32011
aI32012
aI32017
aI32018
aI32019
aI32020
aI32021
aI32022
aI32023
aI32024
aI32129
aI32130
aI32131
aI32132
aI32133
aI32134
aI32135
aI32136
aI32137
aI32138
aI32139
aI32140
aI32145
aI32146
aI32147
aI32148
aI32149
aI32150
aI32151
aI32256
aI32257
aI32258
aI32259
aI32260
aI32261
aI32262
aI32263
aI32264
aI32265
aI32266
aI32267
aI32268
aI32269
aI32273
aI32274
aI32275
aI32276
aI32277
aI32278
aI32279
aI32370
aI32371
aI32372
aI32373
aI32374
aI32375
aI32376
aI32377
aI32378
aI32379
aI32380
aI32381
aI32382
aI32383
aI32384
aI32385
aI32386
aI32387
aI32388
aI32389
aI32390
aI32391
aI32392
aI32393
aI32394
aI32395
aI32396
aI32397
aI32398
aI32399
aI32400
aI32401
aI32402
aI32403
aI32404
aI32405
aI32406
aI32407
aI32471
aI32472
aI32473
aI32474
aI32475
aI32476
aI32477
aI32478
aI32479
aI32480
aI32481
aI32482
aI32483
aI32484
aI32485
aI32486
aI32487
aI32488
aI32489
aI32490
aI32491
aI32492
aI32493
aI32494
aI32495
aI32496
aI32497
aI32498
aI32499
aI32500
aI32501
aI32502
aI32503
aI32504
aI32505
aI32506
aI32507
aI32508
aI32509
aI32510
aI32511
aI32512
aI32513
aI32514
aI32515
aI32516
aI32517
aI32518
aI32519
aI32520
aI32521
aI32522
aI32523
aI32524
aI32525
aI32526
aI32527
aI32528
aI32529
aI32530
aI32531
aI32532
aI32533
aI32534
aI32535
aI32569
aI32570
aI32571
aI32572
aI32573
aI32574
aI32575
aI32576
aI32577
aI32578
aI32579
aI32580
aI32581
aI32582
aI32583
aI32584
aI32585
aI32586
aI32587
aI32588
aI32589
aI32590
aI32591
aI32592
aI32593
aI32594
aI32595
aI32596
aI32597
aI32598
aI32599
aI32600
aI32601
aI32602
aI32603
aI32604
aI32605
aI32606
aI32607
aI32608
aI32609
aI32610
aI32611
aI32612
aI32613
aI32614
aI32615
aI32616
aI32617
aI32618
aI32619
aI32620
aI32621
aI32622
aI32623
aI32624
aI32625
aI32626
aI32627
aI32628
aI32629
aI32630
aI32631
aI32632
aI32633
aI32634
aI32635
aI32636
aI32637
aI32640
aI32641
aI32642
aI32643
aI32644
aI32645
aI32646
aI32647
aI32648
aI32649
aI32650
aI32651
aI32652
aI32653
aI32654
aI32655
aI32656
aI32657
aI32658
aI32659
aI32660
aI32661
aI32662
aI32663
aI32664
aI32665
aI32666
aI32667
aI32668
aI32669
aI32670
aI32671
aI32672
aI32673
aI32674
aI32675
aI32676
aI32677
aI32678
aI32679
aI32680
aI32681
aI32682
aI32683
aI32684
aI32685
aI32686
aI32687
aI32688
aI32689
aI32690
aI32691
aI32692
aI32693
aI32694
aI32695
aI32696
aI32697
aI32698
aI32699
aI32700
aI32701
aI32702
aI32703
aI32704
aI32705
aI32706
aI32707
aI32708
aI32709
aI32710
aI32711
aI32712
aI32713
aI32714
aI32715
aI32716
aI32717
aI32718
aI32719
aI32720
aI32721
aI32722
aI32723
aI32724
aI32725
aI32726
aI32727
aI32728
aI32729
aI32730
aI32731
aI32732
aI32733
aI32734
aI32735
aI32736
aI32737
aI32738
aI32739
aI32740
aI32741
aI32742
aI32743
aI32744
aI32745
aI32746
aI32747
aI32748
aI32749
aI32750
aI32751
aI32752
aI32753
aI32754
aI32755
aI32756
aI32757
aI32758
aI32759
aI32760
aI32761
aI32762
aI32763
aI32764
aa(lp3
I1407
aI5759
aI5881
aI5882
aI5883
aI5884
aI5885
aI5886
aI5887
aI6009
aI6010
aI6011
aI6012
aI6013
aI6014
aI6015
aI6135
aI6136
aI6137
aI6138
aI6139
aI6140
aI6141
aI6142
aI6143
aI6263
aI6264
aI6265
aI6266
aI6267
aI6268
aI6269
aI6270
aI6271
aI6391
aI6392
aI6393
aI6394
aI6395
aI6396
aI6397
aI6398
aI6399
aI6520
aI6521
aI6522
aI6523
aI6524
aI6525
aI6640
aI6641
aI6766
aI6767
aI6768
aI6769
aI6894
aI6895
aI6896
aI7021
aI7022
aI7023
aI7024
aI7148
aI7149
aI7150
aI7151
aI7275
aI7276
aI7277
aI7278
aI7279
aI7402
aI7403
aI7404
aI7405
aI7406
aI7530
aI7531
aI7532
aI7533
aI7534
aI7658
aI7659
aI7660
aI7661
aI7785
aI7786
aI7787
aI7788
aI7789
aI7790
aI7913
aI7914
aI7915
aI7916
aI7917
aI7918
aI7919
aI8041
aI8042
aI8043
aI8044
aI8045
aI8046
aI8047
aI8048
aI8049
aI8169
aI8170
aI8171
aI8172
aI8173
aI8174
aI8175
aI8176
aI8177
aI8178
aI8179
aI8297
aI8298
aI8299
aI8300
aI8301
aI8302
aI8303
aI8304
aI8305
aI8306
aI8307
aI8308
aI8309
aI8310
aI8311
aI8312
aI8313
aI8314
aI8315
aI8316
aI8317
aI8318
aI8319
aI8425
aI8426
aI8427
aI8428
aI8429
aI8430
aI8431
aI8432
aI8433
aI8434
aI8435
aI8436
aI8437
aI8438
aI8439
aI8440
aI8441
aI8442
aI8443
aI8444
aI8445
aI8446
aI8447
aI8555
aI8556
aI8557
aI8558
aI8559
aI8560
aI8561
aI8562
aI8563
aI8564
aI8565
aI8566
aI8567
aI8568
aI8569
aI8570
aI8571
aI8572
aI8573
aI8574
aI8575
aI8686
aI8687
aI8688
aI8689
aI8690
aI8691
aI8692
aI8693
aI8694
aI8695
aI8696
aI8697
aI8698
aI8699
aI8700
aI8701
aI8702
aI8703
aI8814
aI8815
aI8816
aI8817
aI8818
aI8819
aI8820
aI8821
aI8822
aI8823
aI8824
aI8825
aI8826
aI8827
aI8828
aI8829
aI8830
aI8831
aI8949
aI8950
aI8951
aI8952
aI8953
aI8954
aI8955
aI8956
aI8957
aI8958
aI8959
aI9078
aI9079
aI9080
aI9081
aI9082
aI9083
aI9084
aI9085
aI9086
aI9087
aI9206
aI9207
aI9208
aI9209
aI9210
aI9211
aI9212
aI9336
aI9337
aI9338
aI9339
aI9340
aI9341
aI9342
aI9343
aI9464
aI9465
aI9466
aI9467
aI9468
aI9469
aI9470
aI9471
aI9592
aI9593
aI9594
aI9595
aI9596
aI9597
aI9598
aI9599
aI9720
aI9721
aI9722
aI9723
aI9724
aI9725
aI9726
aI9727
aI9848
aI9849
aI9850
aI9851
aI9852
aI9853
aI9854
aI9855
aI9978
aI9979
aI9980
aI9981
aI9982
aI9983
aI10107
aI10108
aI10109
aI10110
aI10111
aI11464
aI15352
aI15353
aI15354
aI15355
aI15356
aI15357
aI15358
aI15359
aI15452
aI15453
aI15454
aI15455
aI15456
aI15457
aI15458
aI15459
aI15460
aI15461
aI15462
aI15463
aI15464
aI15465
aI15466
aI15467
aI15468
aI15469
aI15470
aI15471
aI15472
aI15473
aI15474
aI15475
aI15476
aI15477
aI15478
aI15479
aI15480
aI15481
aI15482
aI15483
aI15484
aI15485
aI15486
aI15487
aI15558
aI15559
aI15560
aI15561
aI15562
aI15563
aI15564
aI15565
aI15566
aI15567
aI15568
aI15569
aI15570
aI15571
aI15572
aI15573
aI15574
aI15575
aI15576
aI15577
aI15578
aI15579
aI15580
aI15581
aI15582
aI15583
aI15584
aI15585
aI15586
aI15587
aI15588
aI15589
aI15590
aI15591
aI15592
aI15593
aI15594
aI15595
aI15596
aI15597
aI15598
aI15599
aI15600
aI15601
aI15602
aI15603
aI15604
aI15605
aI15606
aI15607
aI15608
aI15609
aI15610
aI15611
aI15612
aI15613
aI15614
aI15615
aI15654
aI15655
aI15656
aI15657
aI15658
aI15659
aI15660
aI15661
aI15662
aI15663
aI15664
aI15665
aI15666
aI15667
aI15668
aI15669
aI15670
aI15671
aI15672
aI15673
aI15674
aI15675
aI15676
aI15677
aI15678
aI15679
aI15680
aI15681
aI15682
aI15683
aI15684
aI15685
aI15686
aI15687
aI15688
aI15689
aI15690
aI15691
aI15692
aI15693
aI15694
aI15695
aI15696
aI15697
aI15698
aI15699
aI15700
aI15701
aI15702
aI15703
aI15704
aI15705
aI15706
aI15707
aI15708
aI15709
aI15710
aI15711
aI15712
aI15713
aI15715
aI15716
aI15717
aI15718
aI15719
aI15720
aI15721
aI15722
aI15723
aI15724
aI15725
aI15726
aI15727
aI15728
aI15729
aI15730
aI15731
aI15732
aI15733
aI15734
aI15735
aI15736
aI15737
aI15738
aI15739
aI15740
aI15741
aI15742
aI15743
aI15769
aI15770
aI15771
aI15772
aI15773
aI15774
aI15775
aI15776
aI15777
aI15778
aI15779
aI15780
aI15782
aI15783
aI15784
aI15785
aI15786
aI15787
aI15788
aI15789
aI15790
aI15791
aI15792
aI15793
aI15794
aI15797
aI15798
aI15799
aI15800
aI15801
aI15803
aI15804
aI15805
aI15806
aI15807
aI15808
aI15809
aI15810
aI15811
aI15812
aI15813
aI15814
aI15815
aI15816
aI15817
aI15818
aI15819
aI15820
aI15821
aI15822
aI15823
aI15824
aI15825
aI15826
aI15827
aI15828
aI15829
aI15830
aI15832
aI15833
aI15834
aI15835
aI15836
aI15837
aI15838
aI15839
aI15840
aI15841
aI15842
aI15843
aI15844
aI15845
aI15846
aI15847
aI15848
aI15849
aI15850
aI15851
aI15852
aI15853
aI15854
aI15855
aI15856
aI15857
aI15858
aI15859
aI15860
aI15861
aI15862
aI15863
aI15864
aI15897
aI15899
aI15900
aI15901
aI15902
aI15903
aI15904
aI15905
aI15906
aI15907
aI15910
aI15911
aI15912
aI15913
aI15914
aI15915
aI15916
aI15918
aI15919
aI15921
aI15922
aI15925
aI15926
aI15927
aI15928
aI15929
aI15931
aI15932
aI15933
aI15934
aI15935
aI15936
aI15937
aI15938
aI15939
aI15940
aI15941
aI15942
aI15943
aI15944
aI15945
aI15946
aI15947
aI15948
aI15949
aI15950
aI15951
aI15952
aI15953
aI15954
aI15955
aI15956
aI15957
aI15958
aI15959
aI15960
aI15961
aI15962
aI15963
aI15964
aI15965
aI15966
aI15967
aI16025
aI16027
aI16028
aI16029
aI16030
aI16031
aI16032
aI16033
aI16034
aI16035
aI16038
aI16039
aI16040
aI16041
aI16042
aI16043
aI16044
aI16045
aI16046
aI16047
aI16048
aI16049
aI16050
aI16051
aI16052
aI16053
aI16054
aI16055
aI16056
aI16057
aI16058
aI16059
aI16060
aI16061
aI16062
aI16063
aI16064
aI16065
aI16066
aI16067
aI16068
aI16069
aI16153
aI16154
aI16155
aI16156
aI16157
aI16158
aI16159
aI16160
aI16161
aI16162
aI16163
aI16164
aI16382
aI16383
aI24973
aI24974
aI25099
aI25100
aI25101
aI25102
aI25103
aI25104
aI25228
aI25229
aI25230
aI25231
aI25232
aI25357
aI25358
aI25359
aI25360
aI25485
aI25486
aI25487
aI25488
aI25613
aI25614
aI25615
aI25616
aI25739
aI25741
aI25742
aI25744
aI25868
aI25869
aI25870
aI25871
aI25872
aI26000
aI26382
aI26510
aI26511
aI26619
aI26737
aI26766
aI26893
aI26894
aI26982
aI27022
aI27023
aI27124
aI27150
aI27151
aI27237
aI27241
aI27277
aI27278
aI27279
aI27280
aI27366
aI27378
aI27494
aI27498
aI27502
aI27619
aI27625
aI27626
aI27627
aI27629
aI27744
aI27750
aI27752
aI27754
aI27755
aI27756
aI27758
aI27759
aI27762
aI27763
aI27767
aI27768
aI27878
aI27882
aI27883
aI27884
aI27887
aI27890
aI28002
aI28004
aI28006
aI28008
aI28009
aI28010
aI28011
aI28012
aI28013
aI28014
aI28016
aI28017
aI28018
aI28019
aI28021
aI28023
aI28132
aI28134
aI28136
aI28137
aI28138
aI28139
aI28140
aI28142
aI28143
aI28144
aI28147
aI28148
aI28150
aI28152
aI28157
aI28257
aI28259
aI28261
aI28263
aI28264
aI28265
aI28266
aI28267
aI28268
aI28269
aI28271
aI28272
aI28273
aI28275
aI28276
aI28277
aI28286
aI28302
aI28382
aI28385
aI28386
aI28387
aI28388
aI28390
aI28391
aI28392
aI28393
aI28394
aI28395
aI28397
aI28398
aI28399
aI28400
aI28401
aI28402
aI28403
aI28404
aI28405
aI28406
aI28407
aI28408
aI28409
aI28430
aI28511
aI28514
aI28515
aI28516
aI28517
aI28518
aI28519
aI28520
aI28521
aI28522
aI28523
aI28524
aI28526
aI28527
aI28528
aI28529
aI28530
aI28531
aI28532
aI28534
aI28535
aI28537
aI28558
aI28639
aI28641
aI28642
aI28643
aI28644
aI28645
aI28646
aI28647
aI28648
aI28649
aI28651
aI28652
aI28653
aI28654
aI28655
aI28657
aI28658
aI28659
aI28660
aI28661
aI28663
aI28667
aI28668
aI28669
aI28686
aI28764
aI28765
aI28766
aI28767
aI28769
aI28770
aI28771
aI28772
aI28773
aI28774
aI28775
aI28776
aI28777
aI28778
aI28779
aI28780
aI28781
aI28782
aI28783
aI28784
aI28785
aI28786
aI28787
aI28788
aI28789
aI28790
aI28792
aI28793
aI28794
aI28795
aI28796
aI28797
aI28893
aI28894
aI28896
aI28897
aI28898
aI28899
aI28900
aI28901
aI28902
aI28903
aI28904
aI28905
aI28906
aI28907
aI28908
aI28909
aI28910
aI28911
aI28912
aI28913
aI28915
aI28916
aI28917
aI28918
aI28919
aI28920
aI28921
aI28922
aI28923
aI28924
aI28925
aI28926
aI28927
aI29021
aI29022
aI29023
aI29024
aI29025
aI29026
aI29027
aI29029
aI29030
aI29031
aI29032
aI29033
aI29034
aI29035
aI29036
aI29037
aI29038
aI29039
aI29040
aI29041
aI29042
aI29043
aI29044
aI29045
aI29046
aI29047
aI29048
aI29049
aI29050
aI29051
aI29053
aI29054
aI29143
aI29149
aI29152
aI29153
aI29154
aI29155
aI29156
aI29157
aI29158
aI29159
aI29160
aI29161
aI29162
aI29163
aI29164
aI29165
aI29166
aI29167
aI29168
aI29169
aI29170
aI29171
aI29172
aI29173
aI29174
aI29175
aI29176
aI29177
aI29178
aI29180
aI29181
aI29273
aI29274
aI29275
aI29277
aI29278
aI29279
aI29280
aI29281
aI29282
aI29283
aI29284
aI29285
aI29286
aI29287
aI29288
aI29289
aI29290
aI29291
aI29292
aI29293
aI29294
aI29295
aI29296
aI29297
aI29298
aI29300
aI29301
aI29304
aI29305
aI29306
aI29307
aI29308
aI29310
aI29311
aI29399
aI29400
aI29401
aI29402
aI29404
aI29405
aI29406
aI29407
aI29408
aI29409
aI29410
aI29411
aI29412
aI29413
aI29414
aI29415
aI29416
aI29417
aI29418
aI29419
aI29420
aI29421
aI29422
aI29423
aI29424
aI29425
aI29426
aI29427
aI29428
aI29429
aI29430
aI29431
aI29432
aI29433
aI29434
aI29436
aI29437
aI29439
aI29529
aI29530
aI29531
aI29532
aI29533
aI29534
aI29535
aI29536
aI29537
aI29538
aI29539
aI29540
aI29541
aI29542
aI29543
aI29544
aI29545
aI29546
aI29547
aI29548
aI29549
aI29550
aI29551
aI29553
aI29554
aI29555
aI29556
aI29557
aI29558
aI29559
aI29560
aI29561
aI29562
aI29563
aI29564
aI29565
aI29566
aI29567
aI29581
aI29582
aI29658
aI29659
aI29660
aI29661
aI29662
aI29663
aI29665
aI29666
aI29667
aI29668
aI29669
aI29670
aI29671
aI29672
aI29673
aI29674
aI29675
aI29676
aI29677
aI29678
aI29679
aI29680
aI29681
aI29682
aI29683
aI29684
aI29685
aI29686
aI29687
aI29690
aI29691
aI29692
aI29694
aI29783
aI29785
aI29786
aI29788
aI29789
aI29790
aI29791
aI29792
aI29793
aI29794
aI29795
aI29796
aI29797
aI29798
aI29799
aI29800
aI29801
aI29802
aI29803
aI29804
aI29805
aI29806
aI29807
aI29808
aI29809
aI29810
aI29811
aI29812
aI29813
aI29814
aI29815
aI29816
aI29817
aI29818
aI29819
aI29820
aI29821
aI29911
aI29912
aI29913
aI29914
aI29915
aI29917
aI29918
aI29919
aI29920
aI29921
aI29922
aI29923
aI29924
aI29925
aI29926
aI29927
aI29928
aI29929
aI29930
aI29931
aI29932
aI29933
aI29934
aI29935
aI29936
aI29937
aI29938
aI29939
aI29940
aI29941
aI29942
aI29943
aI29944
aI29945
aI29946
aI29947
aI29948
aI29949
aI29950
aI29951
aI29966
aI30033
aI30036
aI30037
aI30038
aI30039
aI30040
aI30042
aI30043
aI30044
aI30045
aI30046
aI30047
aI30048
aI30049
aI30050
aI30051
aI30052
aI30053
aI30054
aI30055
aI30056
aI30057
aI30058
aI30059
aI30060
aI30061
aI30062
aI30063
aI30064
aI30065
aI30066
aI30068
aI30069
aI30070
aI30071
aI30074
aI30075
aI30076
aI30077
aI30093
aI30094
aI30164
aI30166
aI30167
aI30168
aI30169
aI30170
aI30171
aI30172
aI30173
aI30174
aI30175
aI30176
aI30177
aI30178
aI30179
aI30180
aI30181
aI30182
aI30183
aI30184
aI30185
aI30186
aI30187
aI30188
aI30189
aI30190
aI30191
aI30192
aI30193
aI30194
aI30195
aI30196
aI30197
aI30198
aI30199
aI30200
aI30201
aI30202
aI30203
aI30204
aI30205
aI30206
aI30207
aI30287
aI30288
aI30290
aI30292
aI30295
aI30296
aI30297
aI30298
aI30299
aI30300
aI30301
aI30302
aI30303
aI30304
aI30305
aI30306
aI30307
aI30308
aI30310
aI30311
aI30312
aI30313
aI30314
aI30315
aI30316
aI30317
aI30318
aI30319
aI30320
aI30321
aI30322
aI30323
aI30324
aI30325
aI30326
aI30327
aI30328
aI30329
aI30330
aI30331
aI30332
aI30333
aI30334
aI30335
aI30352
aI30414
aI30419
aI30420
aI30422
aI30423
aI30424
aI30425
aI30426
aI30427
aI30428
aI30429
aI30430
aI30431
aI30432
aI30433
aI30434
aI30435
aI30436
aI30437
aI30438
aI30439
aI30440
aI30441
aI30442
aI30443
aI30444
aI30445
aI30446
aI30447
aI30448
aI30449
aI30450
aI30451
aI30452
aI30453
aI30454
aI30455
aI30456
aI30457
aI30459
aI30460
aI30461
aI30462
aI30463
aI30477
aI30478
aI30479
aI30546
aI30548
aI30550
aI30551
aI30553
aI30555
aI30556
aI30557
aI30558
aI30559
aI30560
aI30561
aI30562
aI30563
aI30564
aI30565
aI30566
aI30567
aI30568
aI30569
aI30570
aI30571
aI30572
aI30573
aI30574
aI30575
aI30576
aI30577
aI30578
aI30579
aI30580
aI30581
aI30582
aI30583
aI30584
aI30585
aI30586
aI30587
aI30588
aI30589
aI30590
aI30591
aI30669
aI30672
aI30673
aI30674
aI30675
aI30676
aI30677
aI30678
aI30679
aI30680
aI30681
aI30682
aI30683
aI30684
aI30685
aI30686
aI30687
aI30688
aI30689
aI30690
aI30691
aI30692
aI30693
aI30694
aI30695
aI30696
aI30697
aI30698
aI30699
aI30700
aI30701
aI30702
aI30703
aI30704
aI30705
aI30706
aI30707
aI30708
aI30709
aI30710
aI30711
aI30712
aI30713
aI30714
aI30715
aI30716
aI30717
aI30718
aI30719
aI30732
aI30734
aI30791
aI30794
aI30800
aI30801
aI30802
aI30803
aI30804
aI30805
aI30806
aI30807
aI30808
aI30810
aI30811
aI30812
aI30813
aI30814
aI30815
aI30816
aI30817
aI30818
aI30819
aI30820
aI30821
aI30822
aI30823
aI30824
aI30825
aI30826
aI30827
aI30828
aI30829
aI30830
aI30831
aI30832
aI30833
aI30834
aI30835
aI30836
aI30837
aI30838
aI30839
aI30840
aI30841
aI30842
aI30843
aI30844
aI30845
aI30846
aI30847
aI30860
aI30922
aI30925
aI30928
aI30929
aI30930
aI30931
aI30932
aI30933
aI30934
aI30935
aI30936
aI30937
aI30938
aI30939
aI30940
aI30941
aI30942
aI30943
aI30944
aI30945
aI30946
aI30947
aI30948
aI30949
aI30950
aI30951
aI30953
aI30954
aI30955
aI30956
aI30957
aI30958
aI30959
aI30960
aI30961
aI30962
aI30964
aI30965
aI30966
aI30967
aI30968
aI30969
aI30970
aI30971
aI30972
aI30973
aI30974
aI30975
aI30989
aI30990
aI30993
aI31051
aI31053
aI31054
aI31056
aI31057
aI31058
aI31059
aI31060
aI31062
aI31063
aI31064
aI31065
aI31066
aI31067
aI31068
aI31069
aI31070
aI31071
aI31072
aI31073
aI31074
aI31075
aI31076
aI31077
aI31078
aI31079
aI31080
aI31081
aI31082
aI31083
aI31084
aI31085
aI31086
aI31087
aI31088
aI31089
aI31090
aI31091
aI31092
aI31093
aI31094
aI31095
aI31096
aI31097
aI31098
aI31099
aI31100
aI31101
aI31102
aI31103
aI31117
aI31118
aI31178
aI31182
aI31183
aI31184
aI31185
aI31186
aI31187
aI31188
aI31189
aI31190
aI31191
aI31192
aI31193
aI31194
aI31195
aI31196
aI31197
aI31198
aI31199
aI31201
aI31202
aI31203
aI31204
aI31205
aI31206
aI31207
aI31208
aI31209
aI31210
aI31211
aI31212
aI31213
aI31214
aI31215
aI31216
aI31217
aI31218
aI31219
aI31221
aI31222
aI31223
aI31224
aI31225
aI31226
aI31227
aI31228
aI31229
aI31231
aI31246
aI31304
aI31305
aI31306
aI31312
aI31313
aI31314
aI31315
aI31316
aI31317
aI31318
aI31319
aI31320
aI31321
aI31322
aI31323
aI31324
aI31325
aI31326
aI31327
aI31328
aI31329
aI31330
aI31331
aI31332
aI31333
aI31334
aI31335
aI31336
aI31337
aI31338
aI31339
aI31340
aI31341
aI31342
aI31343
aI31344
aI31345
aI31346
aI31347
aI31348
aI31349
aI31350
aI31351
aI31352
aI31353
aI31354
aI31355
aI31356
aI31357
aI31359
aI31373
aI31374
aI31430
aI31431
aI31440
aI31443
aI31444
aI31445
aI31446
aI31447
aI31448
aI31449
aI31450
aI31451
aI31452
aI31454
aI31455
aI31456
aI31457
aI31458
aI31459
aI31460
aI31461
aI31462
aI31463
aI31464
aI31465
aI31466
aI31467
aI31468
aI31469
aI31470
aI31472
aI31474
aI31475
aI31476
aI31477
aI31478
aI31479
aI31481
aI31482
aI31502
aI31512
aI31570
aI31572
aI31573
aI31575
aI31576
aI31578
aI31580
aI31582
aI31584
aI31588
aI31589
aI31590
aI31591
aI31597
aI31599
aI31601
aI31602
aI31603
aI31605
aI31627
aI31632
aI31701
aI31704
aI31708
aI31709
aI31880
aI31907
aI31908
aI31909
aI31910
aI31911
aI31912
aI31913
aI31914
aI31915
aI31916
aI31917
aI31918
aI31919
aI31920
aI31921
aI31922
aI31923
aI31924
aI32139
aI32378
aI32379
aI32381
aI32383
aI32397
aI32398
aI32482
aI32483
aI32484
aI32486
aI32487
aI32488
aI32489
aI32490
aI32491
aI32492
aI32493
aI32494
aI32495
aI32496
aI32497
aI32498
aI32499
aI32500
aI32501
aI32502
aI32507
aI32510
aI32511
aI32525
aI32526
aI32583
aI32585
aI32586
aI32587
aI32588
aI32589
aI32590
aI32591
aI32592
aI32593
aI32594
aI32595
aI32596
aI32597
aI32598
aI32599
aI32600
aI32601
aI32602
aI32604
aI32608
aI32609
aI32610
aI32612
aI32613
aI32616
aI32618
aI32621
aI32622
aI32623
aI32626
aI32628
aI32629
aI32631
aI32632
aI32633
aI32635
aI32641
aI32656
aI32682
aI32684
aI32686
aI32688
aI32690
aI32691
aI32692
aI32694
aI32697
aI32715
aI32735
aI32737
aI32738
aI32739
aI32743
aI32744
aI32746
aI32747
aI32748
aI32749
aI32750
aI32751
aI32752
aI32753
aI32754
aI32755
aI32756
aI32757
aI32758
aI32760
aI32761
aI32762
aI32763
aI32764
aa(lp4
a(lp5
a(lp6
a(lp7
a(lp8
a(lp9
a.