(lp1
(lp2
a(lp3
a(lp4
a(lp5
a(lp6
a(lp7
a(lp8
I104
aI105
aI232
aI8371
aI14194
aa(lp9
I3
aI11
aI103
aI106
aI233
aI235
aI268
aI359
aI360
aI361
aI362
aI488
aI489
aI680
aI794
aI906
aI983
aI1159
aI1282
aI1284
aI1288
aI1306
aI1315
aI1329
aI1485
aI1594
aI1608
aI1609
aI1668
aI1717
aI1725
aI1738
aI1758
aI1792
aI1872
aI1936
aI1942
aI1973
aI1983
aI2093
aI2098
aI2197
aI2198
aI2284
aI2309
aI2312
aI2318
aI2460
aI2671
aI2738
aI2776
aI2868
aI2952
aI2990
aI3028
aI3100
aI3119
aI3120
aI3121
aI3216
aI3228
aI3295
aI3304
aI3422
aI3427
aI3440
aI3471
aI3524
aI3550
aI3585
aI3650
aI3672
aI3677
aI3678
aI3721
aI3740
aI3745
aI3763
aI3799
aI3806
aI3895
aI3983
aI4263
aI4318
aI4323
aI4355
aI4407
aI4524
aI4613
aI4683
aI4733
aI4772
aI4866
aI4900
aI4907
aI4989
aI5215
aI5467
aI5625
aI5675
aI5687
aI5705
aI5762
aI5786
aI6017
aI6021
aI6022
aI6048
aI6057
aI6093
aI6096
aI6120
aI6168
aI6192
aI6195
aI6201
aI6320
aI6323
aI6326
aI6329
aI6362
aI6365
aI6401
aI6426
aI6427
aI6452
aI6453
aI6454
aI6455
aI6456
aI6461
aI6529
aI6555
aI6580
aI6587
aI6631
aI6672
aI6720
aI6749
aI6766
aI6840
aI6854
aI7026
aI7071
aI7199
aI7206
aI7233
aI7290
aI7357
aI7361
aI7421
aI7429
aI7458
aI7488
aI7489
aI7490
aI7496
aI7512
aI7536
aI7547
aI7548
aI7613
aI7621
aI7623
aI7683
aI7905
aI7967
aI8018
aI8048
aI8087
aI8114
aI8138
aI8156
aI8237
aI8248
aI8264
aI8274
aI8286
aI8292
aI8301
aI8310
aI8398
aI8399
aI8408
aI8491
aI8642
aI8682
aI8698
aI8732
aI8788
aI8812
aI8821
aI8961
aI9027
aI9035
aI9045
aI9050
aI9079
aI9099
aI9125
aI9139
aI9142
aI9144
aI9190
aI9200
aI9260
aI9347
aI9416
aI9521
aI9550
aI9563
aI9602
aI9644
aI9654
aI9658
aI9723
aI9747
aI9759
aI9761
aI9789
aI9801
aI9821
aI9893
aI9896
aI9904
aI9909
aI9914
aI9915
aI9962
aI9963
aI9967
aI9973
aI10027
aI10034
aI10077
aI10082
aI10095
aI10218
aI10219
aI10223
aI10266
aI10308
aI10311
aI10320
aI10341
aI10352
aI10366
aI10469
aI10485
aI10487
aI10505
aI10507
aI10565
aI10615
aI10624
aI10627
aI10634
aI10707
aI10732
aI10747
aI10748
aI10866
aI10914
aI11026
aI11031
aI11095
aI11142
aI11151
aI11159
aI11269
aI11390
aI11397
aI11438
aI11441
aI11448
aI11539
aI11540
aI11602
aI11605
aI11625
aI11641
aI11699
aI11754
aI11770
aI11801
aI11890
aI11912
aI11914
aI11922
aI11937
aI11946
aI11981
aI11993
aI12044
aI12073
aI12074
aI12111
aI12142
aI12176
aI12187
aI12232
aI12308
aI12416
aI12429
aI12445
aI12452
aI12453
aI12480
aI12503
aI12506
aI12512
aI12514
aI12529
aI12531
aI12601
aI12607
aI12613
aI12617
aI12622
aI12652
aI12653
aI12682
aI12683
aI12716
aI12730
aI12744
aI12745
aI12768
aI12804
aI12805
aI12827
aI12852
aI12853
aI12855
aI12873
aI12877
aI12937
aI12950
aI12962
aI12963
aI12978
aI13002
aI13072
aI13131
aI13162
aI13184
aI13204
aI13229
aI13242
aI13327
aI13343
aI13356
aI13400
aI13455
aI13456
aI13471
aI13501
aI13626
aI13644
aI13647
aI13696
aI13773
aI13797
aI13802
aI13834
aI13841
aI13848
aI13851
aI13852
aI13869
aI13870
aI13931
aI13962
aI13991
aI14052
aI14057
aI14059
aI14064
aI14081
aI14096
aI14104
aI14105
aI14120
aI14133
aI14134
aI14135
aI14143
aI14191
aI14209
aI14211
aI14212
aI14218
aI14221
aI14231
aI14232
aI14252
aI14258
aI14284
aI14308
aI14345
aI14346
aI14392
aI14479
aI14518
aI14603
aI14607
aI14608
aI14620
aI14709
aI14723
aI14768
aI14861
aI14862
aI14928
aI14980
aI14981
aI14986
aI14988
aI14992
aI15019
aI15029
aI15030
aI15063
aI15113
aI15125
aI15250
aI15255
aI15269
aI15407
aI15477
aI15505
aI15612
aI15761
aI15793
aI15873
aI15875
aI15883
aI15908
aI15918
aI15968
aI16019
aI16022
aI16085
aI16086
aI16093
aI16121
aI16133
aI16141
aI16181
aI16218
aI16249
aI16392
aI16497
aI16624
aI16625
aI16824
aI16948
aI17014
aI17067
aI17161
aI17209
aI17238
aI17292
aI17302
aI17318
aI17319
aI17447
aI17452
aI17746
aI17799
aI17870
aI18095
aI18233
aI18240
aI18241
aI18348
aI18364
aI18441
aI19245
aI19279
aI19292
aI19388
aI19389
aI19403
aI19404
aI19536
aI19599
aI19639
aI19735
aI19778
aI19856
aI19905
aI19942
aI20310
aI20312
aI20315
aI20398
aI20443
aI20445
aI20504
aI20511
aI20528
aI20568
aI20729
aI20900
aI20946
aI20954
aI20956
aI21052
aI21094
aI21122
aI21144
aI21183
aI21204
aI21220
aI21279
aI21304
aI21338
aI21377
aI21380
aI21412
aI21420
aI21438
aI21486
aI21810
aI21837
aI21860
aI21865
aI21961
aI21968
aI22165
aI22305
aI22327
aI22358
aI22359
aI22365
aI22367
aI22382
aI22385
aI22439
aI22491
aI22495
aI22510
aI22755
aI22756
aI22758
aI22762
aI22781
aI22893
aI22932
aI22943
aI23029
aI23038
aI23080
aI23098
aI23138
aI23246
aI23269
aI23342
aI23345
aI23347
aI23401
aI23421
aI23473
aI23484
aI23533
aI23551
aI23573
aI23638
aI23786
aI23981
aI23999
aI24062
aI24139
aI24156
aI24229
aI24256
aI24395
aI24411
aI24485
aI24486
aI24552
aI24554
aI24561
aI24679
aI24682
aI24812
aI24934
aI24952
aI25041
aI25045
aI25065
aI25133
aI25141
aI25148
aI25343
aI25416
aI25601
aI25624
aI25701
aI25717
aI25798
aI25813
aI25869
aI25885
aI25965
aI26025
aI26089
aI26148
aI26150
aI26159
aI26162
aI26234
aI26328
aI26371
aI26496
aI26543
aI26585
aI26601
aI26751
aI26764
aI26770
aI26805
aI26807
aI26859
aI26932
aI26958
aI26967
aI27146
aI27156
aI27158
aI27160
aI27224
aI27354
aI27363
aI27396
aI27397
aI27474
aI27499
aI27602
aI27646
aI27660
aI27745
aI27950
aI27973
aI27982
aI28193
aI28209
aI28214
aI28254
aI28268
aI28333
aI28575
aI28644
aI28651
aI28677
aI28827
aI28847
aI28863
aI28869
aI28878
aI28905
aI28910
aI28911
aI28959
aI28961
aI28962
aI29059
aI29075
aI29143
aI29369
aI29384
aI29470
aI29493
aI29557
aI29593
aI29633
aI29751
aI29764
aI29799
aI29892
aI29907
aI29935
aI29987
aI29996
aI30013
aI30034
aI30063
aI30150
aI30164
aI30270
aI30377
aI30395
aI30477
aI30497
aI30592
aI30754
aI30771
aI30797
aI30801
aI30871
aI30925
aI31052
aI31053
aI31125
aI31138
aI31140
aI31157
aI31171
aI31193
aI31267
aI31293
aI31352
aI31491
aI31538
aI31541
aI31564
aI31579
aI31666
aI31921
aI31923
aI32021
aI32025
aI32110
aI32115
aI32120
aI32269
aI32452
aI32533
aI32579
aI32738
aa.