(lp1
(lp2
I6650
aI6651
aI6652
aI6778
aI6779
aI6780
aI6905
aI6906
aI7033
aI7034
aI7161
aI7162
aI7287
aI7288
aI7289
aI7290
aI7415
aI7416
aI7417
aI7543
aI7544
aI7545
aI7670
aI7671
aI7672
aI7798
aI7799
aI7800
aI7801
aI7928
aI7929
aI8059
aI8060
aI8061
aI8062
aI8188
aI8189
aI8190
aI18085
aI21990
aI22255
aI22271
aI22390
aI22399
aI22510
aI22526
aI22527
aI22641
aI22654
aI22655
aI22755
aI22782
aI22783
aI22897
aI22905
aI22910
aI22911
aI23025
aI23030
aI23031
aI23039
aI23157
aI23158
aI23159
aI23285
aI23286
aI23412
aI23413
aI23414
aI23537
aI23538
aI23539
aI23540
aI23665
aI23666
aI23667
aI23668
aI23792
aI23793
aI23794
aI23920
aI23921
aI23922
aI23981
aI24048
aI24049
aI24050
aI24177
aI24178
aI24305
aI24306
aI24401
aI24403
aI24433
aI24434
aI24561
aI24562
aI24689
aI24690
aI24817
aI24818
aI24819
aI24945
aI24946
aI24947
aI25073
aI25074
aI25075
aI25076
aI25077
aI25204
aI25205
aI25206
aI25207
aI25334
aI25335
aI25338
aI25339
aI25340
aI25341
aI25466
aI25467
aI25469
aI25470
aI25497
aI25598
aI25599
aI25726
aI25727
aI25854
aI25855
aI25982
aI25983
aI26725
aa(lp3
I6651
aI6779
aI6780
aI6906
aI7033
aI7034
aI7161
aI7162
aI7289
aI7290
aI7415
aI7416
aI7543
aI7544
aI7670
aI7671
aI7800
aI7928
aI7929
aI8060
aI8061
aI8189
aI22655
aI22911
aI23030
aI23031
aI23158
aI23285
aI23538
aI23539
aI23540
aI23666
aI23793
aI23794
aI23921
aI23922
aI24049
aI24050
aI24177
aI24178
aI24305
aI24306
aI24433
aI24434
aI24561
aI24689
aI24818
aI24945
aI24946
aI25077
aI25727
aa(lp4
I7033
aI7034
aI7161
aI7929
aI23540
aI23666
aI23921
aI24049
aI24177
aa(lp5
a(lp6
a(lp7
a(lp8
a(lp9
a.