(lp1
(lp2
I5561
aI5562
aI5689
aI5690
aI5817
aI5818
aI5945
aI5946
aI6071
aI6072
aI6073
aI6074
aI6193
aI6194
aI6198
aI6199
aI6320
aI6322
aI6328
aI6438
aI6439
aI6440
aI6442
aI6554
aI6555
aI6562
aI6566
aI6567
aI6568
aI6569
aI6681
aI6682
aI6683
aI6810
aI6811
aI8090
aI8091
aI8217
aI8218
aI8219
aI8345
aI8347
aI8363
aI8364
aI8492
aI8620
aI8621
aI8622
aI8749
aI8750
aI8878
aI9006
aI9008
aI9134
aI9136
aI9252
aI9262
aI9264
aI9380
aI9390
aI9518
aI9519
aI9646
aI9772
aI9773
aI9900
aI9901
aI10025
aI10026
aI10153
aI10154
aI10278
aI10279
aI10535
aI21922
aI21924
aI21925
aI21929
aI22054
aI22055
aI22056
aI22176
aI22177
aI22304
aI22305
aI22432
aI22433
aI22560
aI22561
aI22688
aI22689
aI22816
aI22817
aI22944
aI22945
aI25371
aI25499
aI25500
aI25627
aI25628
aI25638
aI25639
aI25755
aI25766
aI25767
aI25883
aI25884
aI25885
aI26011
aI26012
aI26013
aI26141
aI26142
aI26143
aI26268
aI26269
aI26270
aI26271
aI26398
aI26399
aI26400
aI26401
aI26526
aI26527
aI26528
aI26529
aI26657
aI26786
aa(lp3
I5561
aI5690
aI5818
aI5946
aI6682
aI6683
aI8750
aI9518
aI9646
aI9901
aI10154
aI22816
aI22817
aI22944
aI26141
aI26142
aI26269
aI26270
aI26528
aa(lp4
a(lp5
a(lp6
a(lp7
a(lp8
a(lp9
a.