(lp1
(lp2
a(lp3
a(lp4
a(lp5
a(lp6
a(lp7
a(lp8
I14755
aI14944
aI18692
aI19271
aa(lp9
I27
aI31
aI69
aI132
aI367
aI425
aI446
aI563
aI640
aI650
aI687
aI769
aI770
aI822
aI866
aI1027
aI1078
aI1079
aI1127
aI1207
aI1216
aI1240
aI1576
aI1628
aI1654
aI1685
aI1686
aI1741
aI1742
aI1811
aI1923
aI1928
aI2051
aI2124
aI2207
aI2441
aI2466
aI2492
aI2500
aI2607
aI2637
aI2638
aI3079
aI3150
aI3153
aI3156
aI3246
aI3255
aI3284
aI3285
aI3347
aI3373
aI3383
aI3413
aI3447
aI3505
aI3541
aI3688
aI3859
aI3982
aI4045
aI4128
aI4222
aI4253
aI4256
aI4264
aI4265
aI4315
aI4316
aI4366
aI4389
aI4393
aI4413
aI4445
aI4494
aI4540
aI4541
aI4565
aI4596
aI4601
aI4718
aI4729
aI4737
aI4768
aI4881
aI4924
aI4953
aI5077
aI5178
aI5207
aI5226
aI5390
aI5403
aI5473
aI5531
aI5544
aI5643
aI5672
aI5729
aI5829
aI5845
aI5895
aI5900
aI5916
aI5917
aI5966
aI5979
aI5984
aI5986
aI6086
aI6106
aI6151
aI6204
aI6217
aI6219
aI6279
aI6303
aI6320
aI6347
aI6365
aI6421
aI6422
aI6430
aI6431
aI6549
aI6587
aI6675
aI6689
aI6712
aI6767
aI6781
aI6825
aI6835
aI6892
aI6908
aI6961
aI7023
aI7037
aI7087
aI7088
aI7094
aI7166
aI7233
aI7245
aI7342
aI7356
aI7468
aI7485
aI7563
aI7574
aI7595
aI7596
aI7630
aI7682
aI7697
aI7822
aI7875
aI7925
aI7934
aI7973
aI7975
aI8044
aI8045
aI8047
aI8097
aI8141
aI8296
aI8567
aI8568
aI8629
aI8641
aI8651
aI8674
aI8694
aI8735
aI8736
aI8743
aI8883
aI8968
aI9143
aI9189
aI9213
aI9236
aI9263
aI9264
aI9293
aI9299
aI9337
aI9387
aI9402
aI9414
aI9468
aI9470
aI9479
aI9516
aI9551
aI9565
aI9566
aI9579
aI9589
aI9627
aI9656
aI9660
aI9661
aI9674
aI9692
aI9698
aI9699
aI9704
aI9705
aI9706
aI9798
aI9859
aI9877
aI9888
aI9898
aI9905
aI10013
aI10032
aI10033
aI10034
aI10039
aI10082
aI10083
aI10093
aI10095
aI10158
aI10160
aI10177
aI10266
aI10344
aI10351
aI10504
aI10514
aI10527
aI10536
aI10570
aI10572
aI10576
aI10577
aI10602
aI10604
aI10642
aI10692
aI10693
aI10790
aI10831
aI10832
aI10843
aI10844
aI10860
aI10871
aI10987
aI11049
aI11052
aI11126
aI11142
aI11159
aI11202
aI11265
aI11283
aI11285
aI11290
aI11304
aI11313
aI11354
aI11384
aI11385
aI11482
aI11487
aI11488
aI11512
aI11513
aI11543
aI11640
aI11645
aI11698
aI11732
aI11801
aI11810
aI11870
aI12031
aI12036
aI12039
aI12075
aI12081
aI12082
aI12084
aI12181
aI12193
aI12212
aI12217
aI12249
aI12250
aI12251
aI12253
aI12254
aI12266
aI12331
aI12336
aI12378
aI12379
aI12386
aI12404
aI12432
aI12464
aI12470
aI12473
aI12475
aI12493
aI12503
aI12506
aI12531
aI12532
aI12601
aI12659
aI12708
aI12727
aI12784
aI12845
aI12864
aI12865
aI13078
aI13090
aI13093
aI13102
aI13126
aI13129
aI13134
aI13140
aI13244
aI13245
aI13313
aI13320
aI13345
aI13515
aI13550
aI13587
aI13597
aI13600
aI13611
aI13637
aI13639
aI13705
aI13740
aI13759
aI13778
aI13809
aI13848
aI13854
aI13871
aI13872
aI13899
aI13959
aI13977
aI13984
aI14040
aI14064
aI14096
aI14099
aI14115
aI14135
aI14153
aI14156
aI14184
aI14218
aI14219
aI14223
aI14227
aI14236
aI14256
aI14261
aI14266
aI14271
aI14275
aI14336
aI14347
aI14351
aI14363
aI14395
aI14396
aI14399
aI14412
aI14416
aI14476
aI14544
aI14547
aI14556
aI14595
aI14603
aI14629
aI14634
aI14647
aI14652
aI14706
aI14720
aI14733
aI14748
aI14754
aI14762
aI14790
aI14804
aI14861
aI14863
aI14903
aI14904
aI14932
aI14989
aI15074
aI15084
aI15106
aI15127
aI15142
aI15146
aI15159
aI15160
aI15205
aI15216
aI15244
aI15255
aI15340
aI15369
aI15474
aI15606
aI15649
aI15659
aI15660
aI15771
aI15816
aI15897
aI15913
aI15940
aI15942
aI15955
aI15981
aI16015
aI16085
aI16131
aI16155
aI16200
aI16201
aI16230
aI16256
aI16264
aI16291
aI16308
aI16353
aI16365
aI16367
aI16370
aI16392
aI16704
aI16705
aI16713
aI16768
aI16899
aI17197
aI17744
aI17796
aI17850
aI17855
aI17862
aI17871
aI17929
aI17948
aI17949
aI18083
aI18247
aI18341
aI18369
aI18488
aI18523
aI18619
aI18700
aI18751
aI18771
aI18821
aI18852
aI18898
aI18978
aI19028
aI19096
aI19100
aI19206
aI19211
aI19287
aI19360
aI19401
aI19475
aI19558
aI19559
aI19633
aI19660
aI19674
aI19686
aI19687
aI19981
aI19982
aI20112
aI20183
aI20198
aI20304
aI20396
aI20438
aI20522
aI20577
aI20739
aI20824
aI21024
aI21032
aI21047
aI21048
aI21087
aI21091
aI21291
aI21321
aI21602
aI21629
aI21710
aI21730
aI21785
aI21822
aI21833
aI21853
aI21963
aI21986
aI21987
aI22031
aI22036
aI22063
aI22100
aI22122
aI22123
aI22127
aI22142
aI22143
aI22215
aI22238
aI22244
aI22250
aI22264
aI22265
aI22303
aI22344
aI22358
aI22366
aI22377
aI22512
aI22556
aI22610
aI22617
aI22763
aI22777
aI22866
aI22885
aI22891
aI22912
aI22962
aI22968
aI23013
aI23014
aI23015
aI23025
aI23031
aI23068
aI23103
aI23107
aI23176
aI23218
aI23403
aI23465
aI23578
aI23621
aI23668
aI23707
aI23881
aI24241
aI24365
aI24397
aI24439
aI24468
aI24492
aI24493
aI24516
aI24681
aI24771
aI24997
aI25004
aI25045
aI25052
aI25055
aI25064
aI25206
aI25207
aI25290
aI25306
aI25319
aI25431
aI25461
aI25462
aI25469
aI25591
aI25599
aI25656
aI25727
aI25857
aI26028
aI26062
aI26144
aI26145
aI26205
aI26242
aI26246
aI26305
aI26308
aI26428
aI26431
aI26639
aI26668
aI26684
aI26739
aI26759
aI26773
aI26796
aI26845
aI26943
aI26947
aI27074
aI27204
aI27267
aI27309
aI27335
aI27340
aI27393
aI27408
aI27418
aI27473
aI27475
aI27500
aI27523
aI27549
aI27625
aI27848
aI27911
aI27922
aI27923
aI27953
aI28009
aI28049
aI28072
aI28217
aI28298
aI28311
aI28393
aI28525
aI28558
aI28559
aI28614
aI28687
aI28691
aI28696
aI28698
aI28742
aI28800
aI28819
aI28867
aI28869
aI28982
aI29023
aI29025
aI29078
aI29081
aI29094
aI29120
aI29122
aI29131
aI29140
aI29145
aI29152
aI29159
aI29251
aI29338
aI29352
aI29370
aI29384
aI29389
aI29483
aI29509
aI29541
aI29572
aI29590
aI29616
aI29643
aI29676
aI29690
aI29718
aI29798
aI29845
aI29902
aI29916
aI29926
aI30017
aI30018
aI30025
aI30028
aI30030
aI30055
aI30351
aI30427
aI30496
aI30497
aI30507
aI30508
aI30729
aI30758
aI30831
aI30903
aI30919
aI30978
aI31210
aI31211
aI31294
aI31307
aI31411
aI31515
aI31625
aI31631
aI31684
aI31689
aI31691
aI31700
aI31762
aI31815
aI31878
aI31915
aI31931
aI32020
aI32049
aI32146
aI32180
aI32346
aI32386
aI32393
aI32436
aI32462
aI32476
aI32498
aI32501
aI32535
aI32536
aI32561
aI32602
aI32608
aI32644
aI32731
aI32744
aa.