(lp1
(lp2
a(lp3
a(lp4
a(lp5
a(lp6
a(lp7
a(lp8
I23350
aI29825
aI32585
aa(lp9
I8
aI29
aI226
aI227
aI257
aI642
aI1126
aI1318
aI1337
aI1412
aI1420
aI1445
aI1555
aI1562
aI1595
aI1630
aI1700
aI1795
aI1848
aI1950
aI1971
aI1980
aI1984
aI1985
aI1997
aI2088
aI2129
aI2182
aI2186
aI2515
aI2562
aI2637
aI2638
aI2752
aI2895
aI3064
aI3176
aI3714
aI3752
aI3766
aI3871
aI3903
aI3947
aI4012
aI4077
aI4111
aI4112
aI4132
aI4143
aI4144
aI4303
aI4514
aI4651
aI4683
aI4696
aI4795
aI4801
aI4825
aI4826
aI4999
aI5009
aI5134
aI5141
aI5142
aI5144
aI5145
aI5174
aI5262
aI5270
aI5321
aI5323
aI5345
aI5391
aI5401
aI5461
aI5474
aI5571
aI5697
aI5711
aI5726
aI5729
aI5730
aI5784
aI5877
aI5962
aI5970
aI6028
aI6124
aI6157
aI6210
aI6211
aI6285
aI6556
aI6577
aI6593
aI6597
aI6599
aI6600
aI6611
aI6732
aI6783
aI6800
aI6802
aI6813
aI6847
aI7482
aI7625
aI7626
aI7630
aI7698
aI7867
aI7934
aI8050
aI8051
aI8056
aI8137
aI8211
aI8237
aI8243
aI8300
aI8365
aI8367
aI8384
aI8537
aI8541
aI8642
aI8680
aI8702
aI8782
aI8798
aI8811
aI8813
aI8814
aI8930
aI8935
aI9022
aI9081
aI9127
aI9181
aI9186
aI9222
aI9240
aI9254
aI9333
aI9478
aI9584
aI9586
aI9731
aI9757
aI9760
aI9778
aI9816
aI9818
aI9833
aI9854
aI9859
aI9999
aI10034
aI10091
aI10173
aI10185
aI10239
aI10253
aI10389
aI10392
aI10450
aI10453
aI10460
aI10480
aI10518
aI10554
aI10559
aI10562
aI10692
aI10693
aI10728
aI10768
aI10828
aI10858
aI10859
aI10889
aI10891
aI10917
aI10967
aI10974
aI11030
aI11313
aI11326
aI11366
aI11532
aI11553
aI11609
aI11611
aI11685
aI11696
aI11702
aI11731
aI11738
aI11764
aI11812
aI11859
aI11861
aI11864
aI11881
aI11917
aI12010
aI12062
aI12089
aI12100
aI12119
aI12161
aI12188
aI12218
aI12228
aI12251
aI12310
aI12317
aI12402
aI12405
aI12416
aI12458
aI12489
aI12506
aI12547
aI12595
aI12697
aI12764
aI12794
aI12875
aI12889
aI12911
aI12947
aI12958
aI12960
aI12997
aI13021
aI13059
aI13111
aI13137
aI13196
aI13211
aI13255
aI13261
aI13281
aI13305
aI13306
aI13319
aI13331
aI13333
aI13334
aI13336
aI13435
aI13452
aI13459
aI13464
aI13571
aI13624
aI13626
aI13679
aI13803
aI13848
aI13934
aI14081
aI14083
aI14088
aI14113
aI14140
aI14144
aI14162
aI14164
aI14182
aI14192
aI14251
aI14413
aI14449
aI14507
aI14510
aI14665
aI14736
aI14889
aI14946
aI14990
aI15022
aI15029
aI15084
aI15104
aI15152
aI15164
aI15165
aI15191
aI15237
aI15249
aI15385
aI15393
aI15415
aI15416
aI15470
aI15489
aI15497
aI15520
aI15544
aI15925
aI15933
aI15941
aI15985
aI15986
aI16062
aI16083
aI16264
aI16277
aI16297
aI16405
aI16547
aI16645
aI16687
aI16688
aI16768
aI16907
aI17024
aI17046
aI17078
aI17156
aI17165
aI17287
aI17299
aI17319
aI17338
aI17672
aI17704
aI17712
aI17737
aI17859
aI18051
aI18054
aI18071
aI18112
aI18115
aI18199
aI18225
aI18228
aI18269
aI18363
aI18509
aI18510
aI18564
aI18627
aI18646
aI18671
aI18738
aI18745
aI18764
aI18768
aI18770
aI18876
aI18951
aI19003
aI19025
aI19075
aI19086
aI19107
aI19123
aI19162
aI19347
aI19377
aI19378
aI19480
aI19483
aI19484
aI19501
aI19502
aI19518
aI19601
aI19611
aI19612
aI19677
aI19721
aI19742
aI19760
aI19763
aI19868
aI19873
aI19898
aI19963
aI20009
aI20138
aI20390
aI20464
aI20555
aI20620
aI20621
aI20622
aI20674
aI20683
aI20734
aI20737
aI20778
aI20827
aI20860
aI20945
aI20957
aI20959
aI21087
aI21218
aI21416
aI21435
aI21436
aI21440
aI21474
aI21520
aI21565
aI21689
aI21699
aI21837
aI21841
aI21844
aI21887
aI21908
aI21920
aI21926
aI21927
aI22000
aI22002
aI22017
aI22036
aI22117
aI22132
aI22215
aI22274
aI22280
aI22323
aI22350
aI22356
aI22363
aI22395
aI22410
aI22414
aI22421
aI22468
aI22471
aI22483
aI22487
aI22559
aI22615
aI22627
aI22659
aI22687
aI22716
aI22727
aI22744
aI22755
aI22774
aI22969
aI23010
aI23022
aI23073
aI23220
aI23228
aI23251
aI23264
aI23405
aI23408
aI23488
aI23517
aI23555
aI23605
aI23629
aI23681
aI24110
aI24118
aI24126
aI24243
aI24253
aI24304
aI24309
aI24385
aI24387
aI24423
aI24432
aI24451
aI24543
aI24547
aI24557
aI24579
aI24620
aI24867
aI24896
aI24904
aI25212
aI25213
aI25269
aI25404
aI25460
aI25514
aI25612
aI25708
aI25731
aI25748
aI25757
aI25771
aI25778
aI25783
aI25786
aI25795
aI25799
aI25812
aI25821
aI25836
aI25838
aI25890
aI25906
aI25945
aI26005
aI26024
aI26065
aI26105
aI26163
aI26181
aI26186
aI26236
aI26241
aI26459
aI26488
aI26490
aI26491
aI26529
aI26548
aI26596
aI26607
aI26651
aI26673
aI26695
aI26708
aI26723
aI26724
aI26852
aI26853
aI26932
aI26960
aI26967
aI27092
aI27094
aI27095
aI27097
aI27206
aI27280
aI27353
aI27361
aI27372
aI27420
aI27425
aI27464
aI27530
aI27531
aI27539
aI27558
aI27586
aI27599
aI27603
aI27606
aI27610
aI27625
aI27632
aI27634
aI27638
aI27642
aI27668
aI27686
aI27687
aI27731
aI27739
aI27742
aI27754
aI27755
aI27756
aI27814
aI27815
aI27841
aI27864
aI27881
aI27949
aI28024
aI28162
aI28256
aI28261
aI28274
aI28278
aI28443
aI28444
aI28456
aI28457
aI28459
aI28470
aI28471
aI28511
aI28532
aI28591
aI28683
aI28749
aI28808
aI28818
aI28828
aI28877
aI28881
aI28908
aI28934
aI29061
aI29064
aI29066
aI29074
aI29075
aI29076
aI29101
aI29115
aI29118
aI29122
aI29125
aI29139
aI29172
aI29174
aI29175
aI29182
aI29205
aI29210
aI29229
aI29232
aI29233
aI29250
aI29254
aI29255
aI29263
aI29268
aI29293
aI29328
aI29365
aI29369
aI29371
aI29388
aI29396
aI29411
aI29423
aI29430
aI29434
aI29507
aI29543
aI29587
aI29597
aI29643
aI29696
aI29697
aI29712
aI29725
aI29727
aI29741
aI29742
aI29824
aI29829
aI29833
aI29839
aI29853
aI29854
aI29855
aI29888
aI29982
aI30004
aI30011
aI30016
aI30018
aI30019
aI30044
aI30049
aI30093
aI30097
aI30108
aI30145
aI30157
aI30197
aI30198
aI30224
aI30250
aI30315
aI30339
aI30363
aI30376
aI30400
aI30402
aI30416
aI30429
aI30517
aI30571
aI30604
aI30616
aI30627
aI30628
aI30650
aI30654
aI30662
aI30692
aI30759
aI30782
aI30795
aI30854
aI30887
aI30909
aI30960
aI31004
aI31009
aI31018
aI31052
aI31060
aI31112
aI31150
aI31191
aI31199
aI31217
aI31261
aI31287
aI31307
aI31312
aI31320
aI31348
aI31388
aI31451
aI31505
aI31533
aI31537
aI31555
aI31583
aI31597
aI31624
aI31663
aI31668
aI31697
aI31790
aI31794
aI31809
aI31818
aI31836
aI31850
aI31878
aI31893
aI31898
aI31923
aI31924
aI31946
aI31952
aI31964
aI32000
aI32015
aI32032
aI32050
aI32128
aI32152
aI32155
aI32396
aI32398
aI32416
aI32449
aI32470
aI32486
aI32579
aI32584
aI32619
aI32639
aI32650
aI32667
aI32685
aI32709
aI32755
aI32756
aa.