(lp1
(lp2
I1700
aI1701
aI6143
aI6266
aI6267
aI6392
aI6394
aI6395
aI6513
aI6514
aI6516
aI6629
aI6630
aI6641
aI6758
aI6759
aI6884
aI6885
aI6886
aI7012
aI7013
aI7140
aI7141
aI7268
aI7269
aI7393
aI7394
aI7395
aI7521
aI7522
aI7523
aI7648
aI7649
aI7650
aI7776
aI7777
aI7778
aI7779
aI7906
aI7907
aI7908
aI8035
aI8036
aI8038
aI8039
aI8167
aI8168
aI8310
aI8311
aI8438
aI8439
aI8440
aI8567
aI8568
aI8569
aI8696
aI8697
aI8698
aI8825
aI8826
aI8953
aI8954
aI9081
aI9082
aI9199
aI9209
aI9210
aI9337
aI9338
aI9465
aI9466
aI9593
aI9594
aI9720
aI9848
aI9849
aI9973
aI9974
aI10101
aI10102
aI10103
aI17957
aI18083
aI18341
aI22000
aI22002
aI22126
aI22128
aI22129
aI22250
aI22251
aI22252
aI22377
aI22378
aI22379
aI22380
aI22485
aI22505
aI22633
aI22761
aI22762
aI22816
aI22890
aI22891
aI23009
aI23010
aI23018
aI23136
aI23137
aI23262
aI23263
aI23264
aI23390
aI23391
aI23517
aI23518
aI23644
aI23645
aI23771
aI23772
aI23899
aI23900
aI24027
aI24028
aI24110
aI24155
aI24156
aI24281
aI24282
aI24283
aI24411
aI24499
aI24538
aI24924
aI25052
aI25053
aI25055
aI25163
aI25182
aI25183
aI25310
aI25311
aI25312
aI25313
aI25317
aI25394
aI25417
aI25445
aI25447
aI25576
aI25704
aI25705
aI25832
aI25833
aI25961
aI26036
aI26090
aI26218
aI26735
aa(lp3
I6630
aI6758
aI6885
aI7012
aI7013
aI7140
aI7141
aI7394
aI7395
aI7649
aI7777
aI7906
aI7907
aI8167
aI8311
aI8568
aI8697
aI8825
aI8953
aI8954
aI9081
aI9082
aI9209
aI9337
aI9465
aI9593
aI9594
aI9974
aI10102
aI22128
aI22250
aI22251
aI22378
aI22379
aI22890
aI23009
aI23136
aI23645
aI23772
aI25833
aI25961
aa(lp4
I6630
aI6758
aI7012
aI7013
aI7907
aI8697
aa(lp5
a(lp6
a(lp7
a(lp8
a(lp9
a.