(lp1
(lp2
a(lp3
I31004
aa(lp4
I28079
aI28177
aI28185
aI28208
aI28299
aI28301
aI28335
aI28336
aI28338
aI28347
aI28349
aI28436
aI28595
aI28681
aI28685
aI28695
aI28696
aI28699
aI28700
aI28703
aI28710
aI28711
aI28810
aI28822
aI28823
aI28824
aI28828
aI28849
aI28853
aI28956
aI28959
aI28974
aI28979
aI28991
aI28995
aI28996
aI29059
aI29062
aI29095
aI29118
aI29211
aI29215
aI29219
aI29236
aI29237
aI29238
aI29249
aI29250
aI29251
aI29268
aI29316
aI29317
aI29322
aI29328
aI29332
aI29349
aI29360
aI29375
aI29390
aI29459
aI29472
aI29473
aI29480
aI29483
aI29487
aI29488
aI29490
aI29494
aI29500
aI29504
aI29506
aI29520
aI29523
aI29524
aI29533
aI29576
aI29583
aI29584
aI29595
aI29596
aI29601
aI29602
aI29603
aI29606
aI29607
aI29643
aI29708
aI29712
aI29729
aI29736
aI29739
aI29742
aI29755
aI29774
aI29848
aI29849
aI29858
aI29866
aI29878
aI29960
aI29961
aI29963
aI29966
aI29973
aI29980
aI29984
aI29986
aI29989
aI30035
aI30090
aI30097
aI30105
aI30112
aI30113
aI30117
aI30123
aI30124
aI30125
aI30127
aI30130
aI30162
aI30218
aI30219
aI30221
aI30222
aI30224
aI30225
aI30226
aI30227
aI30229
aI30231
aI30241
aI30249
aI30255
aI30256
aI30257
aI30263
aI30352
aI30363
aI30372
aI30375
aI30378
aI30379
aI30382
aI30384
aI30385
aI30406
aI30411
aI30475
aI30480
aI30498
aI30505
aI30506
aI30511
aI30512
aI30513
aI30539
aI30607
aI30608
aI30610
aI30611
aI30618
aI30621
aI30636
aI30642
aI30646
aI30676
aI30745
aI30749
aI30752
aI30758
aI30771
aI30774
aI30800
aI30867
aI30872
aI30894
aI30895
aI30897
aI30899
aI30900
aI30936
aI30978
aI30991
aI30997
aI31010
aI31022
aI31023
aI31032
aI31063
aI31120
aI31125
aI31161
aI31174
aI31189
aI31190
aI31241
aI31267
aI31277
aI31278
aI31319
aI31414
aI31503
aI31505
aI31534
aI31572
aI31573
aI31641
aI31663
aI31757
aI31763
aI31764
aI31785
aI31843
aI31924
aI32527
aI32529
aI32563
aI32657
aI32727
aa(lp5
I25913
aI25914
aI26166
aI26298
aI26301
aI26302
aI26303
aI26551
aI26553
aI26555
aI26563
aI26672
aI26675
aI26677
aI26678
aI26686
aI26692
aI26704
aI26800
aI26803
aI26805
aI26814
aI26934
aI26937
aI26942
aI26948
aI26954
aI26957
aI26961
aI27044
aI27054
aI27062
aI27065
aI27066
aI27067
aI27075
aI27076
aI27175
aI27176
aI27182
aI27186
aI27187
aI27188
aI27190
aI27194
aI27199
aI27298
aI27304
aI27310
aI27311
aI27315
aI27316
aI27317
aI27318
aI27319
aI27321
aI27326
aI27332
aI27341
aI27348
aI27352
aI27407
aI27408
aI27409
aI27428
aI27429
aI27434
aI27435
aI27439
aI27440
aI27441
aI27442
aI27443
aI27447
aI27448
aI27451
aI27452
aI27455
aI27458
aI27459
aI27460
aI27462
aI27467
aI27468
aI27472
aI27476
aI27522
aI27527
aI27546
aI27550
aI27556
aI27557
aI27559
aI27562
aI27567
aI27568
aI27570
aI27573
aI27578
aI27580
aI27583
aI27585
aI27588
aI27589
aI27590
aI27593
aI27595
aI27614
aI27649
aI27650
aI27657
aI27658
aI27659
aI27665
aI27669
aI27671
aI27674
aI27675
aI27676
aI27680
aI27682
aI27687
aI27688
aI27690
aI27691
aI27693
aI27696
aI27697
aI27698
aI27699
aI27701
aI27702
aI27705
aI27707
aI27708
aI27717
aI27718
aI27719
aI27721
aI27725
aI27727
aI27784
aI27785
aI27786
aI27793
aI27800
aI27803
aI27804
aI27810
aI27811
aI27814
aI27816
aI27819
aI27821
aI27822
aI27825
aI27829
aI27831
aI27835
aI27838
aI27846
aI27849
aI27853
aI27860
aI27862
aI27864
aI27906
aI27913
aI27915
aI27918
aI27929
aI27931
aI27933
aI27938
aI27940
aI27941
aI27942
aI27943
aI27944
aI27945
aI27946
aI27948
aI27953
aI27954
aI27955
aI27956
aI27957
aI27958
aI27961
aI27964
aI27967
aI27973
aI27974
aI27978
aI27979
aI27981
aI27990
aI27992
aI28036
aI28037
aI28042
aI28043
aI28049
aI28052
aI28053
aI28055
aI28056
aI28057
aI28059
aI28060
aI28061
aI28066
aI28067
aI28068
aI28069
aI28071
aI28072
aI28073
aI28077
aI28078
aI28080
aI28081
aI28083
aI28084
aI28086
aI28089
aI28102
aI28103
aI28106
aI28110
aI28111
aI28118
aI28119
aI28167
aI28169
aI28170
aI28171
aI28173
aI28174
aI28175
aI28176
aI28178
aI28179
aI28180
aI28181
aI28182
aI28184
aI28187
aI28188
aI28189
aI28190
aI28191
aI28192
aI28193
aI28194
aI28196
aI28197
aI28200
aI28201
aI28202
aI28203
aI28204
aI28207
aI28209
aI28210
aI28211
aI28212
aI28213
aI28215
aI28217
aI28218
aI28219
aI28220
aI28221
aI28224
aI28227
aI28230
aI28231
aI28237
aI28246
aI28291
aI28292
aI28295
aI28296
aI28297
aI28298
aI28300
aI28302
aI28303
aI28304
aI28305
aI28306
aI28308
aI28309
aI28310
aI28311
aI28312
aI28313
aI28314
aI28315
aI28316
aI28318
aI28323
aI28324
aI28326
aI28328
aI28329
aI28330
aI28331
aI28332
aI28333
aI28334
aI28337
aI28339
aI28340
aI28341
aI28343
aI28345
aI28346
aI28348
aI28350
aI28351
aI28352
aI28353
aI28354
aI28355
aI28358
aI28359
aI28361
aI28363
aI28364
aI28367
aI28368
aI28374
aI28383
aI28418
aI28419
aI28420
aI28421
aI28422
aI28423
aI28424
aI28425
aI28426
aI28427
aI28428
aI28429
aI28430
aI28431
aI28432
aI28433
aI28434
aI28435
aI28437
aI28438
aI28439
aI28440
aI28442
aI28443
aI28446
aI28447
aI28448
aI28449
aI28450
aI28451
aI28452
aI28453
aI28454
aI28457
aI28458
aI28459
aI28460
aI28461
aI28462
aI28463
aI28464
aI28465
aI28466
aI28467
aI28468
aI28469
aI28471
aI28473
aI28474
aI28475
aI28476
aI28477
aI28478
aI28481
aI28483
aI28486
aI28490
aI28492
aI28493
aI28496
aI28497
aI28501
aI28502
aI28504
aI28505
aI28507
aI28508
aI28545
aI28546
aI28550
aI28553
aI28554
aI28555
aI28556
aI28560
aI28562
aI28563
aI28565
aI28566
aI28567
aI28568
aI28569
aI28570
aI28571
aI28572
aI28573
aI28574
aI28575
aI28576
aI28579
aI28580
aI28581
aI28582
aI28583
aI28586
aI28587
aI28588
aI28593
aI28594
aI28596
aI28597
aI28599
aI28600
aI28601
aI28602
aI28603
aI28604
aI28606
aI28607
aI28609
aI28610
aI28613
aI28614
aI28615
aI28616
aI28617
aI28618
aI28621
aI28628
aI28629
aI28630
aI28677
aI28678
aI28680
aI28682
aI28686
aI28687
aI28689
aI28690
aI28691
aI28692
aI28693
aI28694
aI28697
aI28698
aI28702
aI28704
aI28705
aI28706
aI28707
aI28708
aI28709
aI28712
aI28713
aI28715
aI28717
aI28718
aI28719
aI28720
aI28721
aI28722
aI28725
aI28726
aI28727
aI28728
aI28729
aI28730
aI28732
aI28736
aI28738
aI28740
aI28741
aI28742
aI28743
aI28744
aI28745
aI28746
aI28747
aI28750
aI28751
aI28753
aI28754
aI28756
aI28758
aI28767
aI28805
aI28809
aI28811
aI28813
aI28814
aI28815
aI28816
aI28817
aI28820
aI28821
aI28825
aI28826
aI28827
aI28830
aI28831
aI28832
aI28833
aI28834
aI28835
aI28836
aI28837
aI28838
aI28839
aI28840
aI28841
aI28842
aI28844
aI28845
aI28846
aI28847
aI28848
aI28850
aI28851
aI28854
aI28855
aI28856
aI28858
aI28859
aI28860
aI28861
aI28862
aI28863
aI28866
aI28867
aI28868
aI28869
aI28870
aI28871
aI28872
aI28873
aI28875
aI28879
aI28880
aI28881
aI28882
aI28883
aI28884
aI28932
aI28933
aI28937
aI28938
aI28939
aI28941
aI28942
aI28944
aI28945
aI28946
aI28947
aI28951
aI28953
aI28954
aI28955
aI28957
aI28958
aI28960
aI28961
aI28962
aI28963
aI28964
aI28965
aI28966
aI28967
aI28968
aI28969
aI28970
aI28971
aI28972
aI28973
aI28975
aI28977
aI28978
aI28981
aI28982
aI28983
aI28984
aI28987
aI28990
aI28992
aI28994
aI28997
aI28998
aI28999
aI29000
aI29001
aI29004
aI29005
aI29006
aI29010
aI29012
aI29019
aI29057
aI29058
aI29060
aI29061
aI29063
aI29064
aI29065
aI29066
aI29067
aI29068
aI29069
aI29071
aI29073
aI29074
aI29075
aI29077
aI29079
aI29080
aI29081
aI29082
aI29083
aI29084
aI29085
aI29086
aI29087
aI29088
aI29089
aI29090
aI29091
aI29092
aI29093
aI29094
aI29096
aI29098
aI29099
aI29100
aI29101
aI29102
aI29104
aI29106
aI29107
aI29108
aI29109
aI29110
aI29112
aI29114
aI29116
aI29117
aI29119
aI29120
aI29121
aI29122
aI29123
aI29124
aI29125
aI29126
aI29127
aI29128
aI29132
aI29134
aI29135
aI29136
aI29137
aI29138
aI29139
aI29140
aI29141
aI29142
aI29143
aI29145
aI29146
aI29148
aI29149
aI29150
aI29186
aI29189
aI29191
aI29192
aI29193
aI29194
aI29195
aI29197
aI29198
aI29201
aI29202
aI29203
aI29205
aI29206
aI29207
aI29208
aI29210
aI29212
aI29213
aI29214
aI29216
aI29217
aI29218
aI29220
aI29221
aI29222
aI29223
aI29224
aI29225
aI29226
aI29229
aI29230
aI29231
aI29232
aI29233
aI29234
aI29235
aI29239
aI29240
aI29241
aI29242
aI29243
aI29244
aI29246
aI29247
aI29248
aI29252
aI29253
aI29254
aI29255
aI29257
aI29258
aI29259
aI29261
aI29262
aI29263
aI29265
aI29266
aI29269
aI29270
aI29271
aI29281
aI29284
aI29315
aI29318
aI29321
aI29323
aI29325
aI29326
aI29327
aI29329
aI29330
aI29331
aI29333
aI29334
aI29335
aI29336
aI29337
aI29338
aI29339
aI29340
aI29341
aI29342
aI29343
aI29344
aI29345
aI29346
aI29347
aI29348
aI29350
aI29351
aI29352
aI29353
aI29354
aI29355
aI29357
aI29358
aI29359
aI29361
aI29362
aI29364
aI29365
aI29366
aI29367
aI29368
aI29369
aI29370
aI29371
aI29372
aI29374
aI29376
aI29377
aI29378
aI29379
aI29380
aI29381
aI29382
aI29383
aI29384
aI29385
aI29386
aI29387
aI29388
aI29389
aI29391
aI29392
aI29393
aI29394
aI29395
aI29396
aI29397
aI29398
aI29399
aI29401
aI29402
aI29405
aI29406
aI29409
aI29410
aI29411
aI29413
aI29441
aI29442
aI29443
aI29444
aI29445
aI29448
aI29449
aI29450
aI29451
aI29452
aI29453
aI29454
aI29455
aI29456
aI29458
aI29460
aI29461
aI29462
aI29463
aI29464
aI29465
aI29466
aI29467
aI29468
aI29469
aI29474
aI29475
aI29476
aI29477
aI29479
aI29481
aI29482
aI29484
aI29489
aI29491
aI29492
aI29493
aI29495
aI29496
aI29497
aI29498
aI29499
aI29501
aI29502
aI29503
aI29505
aI29507
aI29508
aI29509
aI29510
aI29511
aI29512
aI29513
aI29514
aI29515
aI29516
aI29518
aI29519
aI29521
aI29522
aI29525
aI29526
aI29529
aI29532
aI29534
aI29535
aI29536
aI29541
aI29571
aI29574
aI29575
aI29577
aI29578
aI29579
aI29581
aI29586
aI29587
aI29588
aI29589
aI29590
aI29591
aI29592
aI29593
aI29594
aI29597
aI29598
aI29599
aI29600
aI29604
aI29605
aI29608
aI29609
aI29610
aI29612
aI29613
aI29614
aI29615
aI29616
aI29618
aI29619
aI29620
aI29621
aI29622
aI29623
aI29625
aI29626
aI29627
aI29628
aI29629
aI29630
aI29634
aI29635
aI29637
aI29640
aI29641
aI29644
aI29645
aI29646
aI29649
aI29651
aI29652
aI29653
aI29655
aI29660
aI29699
aI29704
aI29705
aI29706
aI29707
aI29709
aI29710
aI29711
aI29713
aI29714
aI29715
aI29716
aI29717
aI29718
aI29719
aI29720
aI29721
aI29722
aI29723
aI29724
aI29725
aI29726
aI29727
aI29728
aI29730
aI29731
aI29732
aI29733
aI29734
aI29735
aI29737
aI29738
aI29741
aI29743
aI29744
aI29745
aI29746
aI29748
aI29749
aI29750
aI29751
aI29754
aI29756
aI29757
aI29758
aI29760
aI29761
aI29762
aI29763
aI29764
aI29765
aI29767
aI29768
aI29769
aI29770
aI29771
aI29772
aI29773
aI29776
aI29777
aI29778
aI29779
aI29780
aI29781
aI29783
aI29784
aI29787
aI29788
aI29791
aI29792
aI29794
aI29832
aI29833
aI29834
aI29835
aI29836
aI29837
aI29838
aI29839
aI29840
aI29841
aI29842
aI29843
aI29845
aI29846
aI29847
aI29850
aI29851
aI29852
aI29853
aI29854
aI29855
aI29856
aI29857
aI29859
aI29860
aI29861
aI29862
aI29863
aI29864
aI29865
aI29867
aI29868
aI29869
aI29870
aI29871
aI29872
aI29873
aI29874
aI29876
aI29877
aI29879
aI29881
aI29882
aI29883
aI29884
aI29885
aI29886
aI29887
aI29888
aI29889
aI29890
aI29891
aI29892
aI29893
aI29894
aI29895
aI29896
aI29897
aI29898
aI29899
aI29901
aI29902
aI29903
aI29904
aI29905
aI29906
aI29907
aI29908
aI29912
aI29915
aI29916
aI29917
aI29918
aI29919
aI29921
aI29922
aI29958
aI29959
aI29962
aI29964
aI29965
aI29967
aI29968
aI29969
aI29970
aI29971
aI29974
aI29975
aI29976
aI29977
aI29978
aI29979
aI29983
aI29985
aI29987
aI29988
aI29990
aI29991
aI29992
aI29993
aI29994
aI29996
aI29997
aI29998
aI29999
aI30000
aI30001
aI30002
aI30003
aI30004
aI30005
aI30006
aI30007
aI30008
aI30009
aI30010
aI30011
aI30013
aI30014
aI30015
aI30016
aI30017
aI30018
aI30019
aI30020
aI30021
aI30023
aI30025
aI30026
aI30027
aI30028
aI30029
aI30030
aI30031
aI30032
aI30034
aI30036
aI30037
aI30038
aI30039
aI30040
aI30044
aI30052
aI30084
aI30085
aI30086
aI30089
aI30091
aI30092
aI30094
aI30095
aI30096
aI30098
aI30099
aI30100
aI30101
aI30102
aI30103
aI30104
aI30106
aI30107
aI30108
aI30109
aI30110
aI30111
aI30114
aI30115
aI30116
aI30118
aI30119
aI30120
aI30121
aI30122
aI30126
aI30128
aI30129
aI30131
aI30133
aI30135
aI30136
aI30142
aI30143
aI30144
aI30145
aI30147
aI30148
aI30149
aI30153
aI30154
aI30155
aI30156
aI30157
aI30158
aI30159
aI30160
aI30161
aI30163
aI30164
aI30165
aI30166
aI30167
aI30169
aI30170
aI30171
aI30173
aI30174
aI30176
aI30177
aI30178
aI30180
aI30181
aI30214
aI30215
aI30216
aI30217
aI30223
aI30228
aI30230
aI30234
aI30235
aI30236
aI30237
aI30239
aI30240
aI30242
aI30243
aI30244
aI30245
aI30246
aI30247
aI30248
aI30250
aI30251
aI30252
aI30253
aI30254
aI30258
aI30259
aI30260
aI30261
aI30262
aI30264
aI30265
aI30266
aI30268
aI30271
aI30272
aI30273
aI30274
aI30275
aI30276
aI30278
aI30279
aI30281
aI30282
aI30283
aI30284
aI30285
aI30286
aI30287
aI30289
aI30290
aI30291
aI30292
aI30293
aI30294
aI30296
aI30300
aI30303
aI30304
aI30305
aI30306
aI30307
aI30308
aI30311
aI30340
aI30341
aI30342
aI30343
aI30345
aI30346
aI30347
aI30348
aI30350
aI30351
aI30353
aI30354
aI30355
aI30356
aI30357
aI30358
aI30359
aI30360
aI30362
aI30364
aI30365
aI30366
aI30367
aI30369
aI30371
aI30373
aI30374
aI30376
aI30377
aI30380
aI30381
aI30383
aI30386
aI30387
aI30388
aI30389
aI30390
aI30391
aI30392
aI30393
aI30394
aI30395
aI30396
aI30397
aI30399
aI30400
aI30401
aI30402
aI30403
aI30404
aI30405
aI30408
aI30409
aI30410
aI30412
aI30413
aI30414
aI30415
aI30416
aI30418
aI30419
aI30420
aI30421
aI30422
aI30423
aI30425
aI30426
aI30427
aI30428
aI30429
aI30431
aI30432
aI30433
aI30434
aI30435
aI30439
aI30468
aI30469
aI30470
aI30471
aI30472
aI30473
aI30474
aI30476
aI30477
aI30478
aI30479
aI30481
aI30483
aI30484
aI30485
aI30486
aI30487
aI30488
aI30489
aI30490
aI30491
aI30492
aI30493
aI30494
aI30495
aI30496
aI30497
aI30499
aI30500
aI30501
aI30502
aI30503
aI30504
aI30507
aI30508
aI30509
aI30510
aI30514
aI30515
aI30516
aI30517
aI30518
aI30519
aI30520
aI30521
aI30523
aI30525
aI30526
aI30528
aI30529
aI30530
aI30531
aI30533
aI30535
aI30536
aI30537
aI30538
aI30540
aI30542
aI30544
aI30545
aI30546
aI30547
aI30548
aI30549
aI30551
aI30554
aI30557
aI30558
aI30563
aI30565
aI30566
aI30595
aI30598
aI30601
aI30603
aI30605
aI30606
aI30609
aI30613
aI30614
aI30615
aI30616
aI30617
aI30619
aI30620
aI30622
aI30623
aI30624
aI30626
aI30627
aI30628
aI30629
aI30630
aI30631
aI30632
aI30633
aI30634
aI30635
aI30637
aI30638
aI30639
aI30640
aI30641
aI30643
aI30644
aI30645
aI30647
aI30648
aI30649
aI30650
aI30651
aI30652
aI30654
aI30655
aI30656
aI30657
aI30658
aI30659
aI30660
aI30661
aI30663
aI30664
aI30665
aI30666
aI30667
aI30670
aI30671
aI30672
aI30673
aI30674
aI30675
aI30677
aI30678
aI30679
aI30682
aI30683
aI30684
aI30685
aI30686
aI30689
aI30723
aI30724
aI30725
aI30726
aI30727
aI30728
aI30729
aI30730
aI30731
aI30732
aI30733
aI30734
aI30735
aI30737
aI30738
aI30739
aI30740
aI30741
aI30743
aI30744
aI30746
aI30747
aI30750
aI30751
aI30753
aI30754
aI30755
aI30756
aI30757
aI30759
aI30760
aI30761
aI30762
aI30763
aI30764
aI30765
aI30766
aI30767
aI30768
aI30769
aI30770
aI30772
aI30773
aI30775
aI30776
aI30778
aI30782
aI30789
aI30792
aI30794
aI30795
aI30797
aI30798
aI30801
aI30802
aI30803
aI30804
aI30805
aI30806
aI30808
aI30811
aI30812
aI30814
aI30825
aI30826
aI30827
aI30852
aI30853
aI30854
aI30855
aI30856
aI30857
aI30859
aI30860
aI30861
aI30862
aI30863
aI30865
aI30866
aI30868
aI30869
aI30870
aI30871
aI30873
aI30875
aI30877
aI30878
aI30879
aI30880
aI30881
aI30882
aI30883
aI30884
aI30885
aI30886
aI30887
aI30888
aI30889
aI30890
aI30891
aI30892
aI30893
aI30896
aI30898
aI30901
aI30902
aI30903
aI30904
aI30905
aI30906
aI30910
aI30916
aI30917
aI30918
aI30920
aI30922
aI30923
aI30924
aI30926
aI30928
aI30929
aI30931
aI30933
aI30934
aI30935
aI30937
aI30938
aI30939
aI30942
aI30945
aI30948
aI30979
aI30981
aI30982
aI30983
aI30984
aI30987
aI30988
aI30989
aI30990
aI30992
aI30993
aI30994
aI30995
aI30996
aI30998
aI30999
aI31000
aI31003
aI31005
aI31006
aI31007
aI31008
aI31009
aI31011
aI31012
aI31014
aI31015
aI31016
aI31017
aI31018
aI31019
aI31020
aI31021
aI31024
aI31025
aI31027
aI31028
aI31029
aI31030
aI31031
aI31033
aI31034
aI31035
aI31036
aI31037
aI31038
aI31039
aI31041
aI31045
aI31046
aI31050
aI31051
aI31052
aI31053
aI31054
aI31056
aI31057
aI31058
aI31059
aI31060
aI31061
aI31062
aI31064
aI31068
aI31070
aI31072
aI31078
aI31079
aI31106
aI31107
aI31108
aI31112
aI31113
aI31114
aI31115
aI31117
aI31118
aI31119
aI31121
aI31123
aI31124
aI31126
aI31128
aI31129
aI31130
aI31131
aI31132
aI31133
aI31135
aI31136
aI31137
aI31138
aI31140
aI31141
aI31143
aI31144
aI31145
aI31146
aI31147
aI31148
aI31149
aI31150
aI31151
aI31152
aI31153
aI31154
aI31155
aI31156
aI31157
aI31158
aI31159
aI31160
aI31162
aI31163
aI31165
aI31170
aI31171
aI31172
aI31175
aI31176
aI31177
aI31179
aI31181
aI31182
aI31183
aI31184
aI31185
aI31187
aI31188
aI31191
aI31192
aI31193
aI31194
aI31195
aI31197
aI31200
aI31204
aI31205
aI31210
aI31211
aI31238
aI31240
aI31242
aI31243
aI31244
aI31245
aI31246
aI31248
aI31249
aI31250
aI31251
aI31252
aI31253
aI31254
aI31255
aI31258
aI31261
aI31266
aI31268
aI31269
aI31271
aI31273
aI31275
aI31276
aI31279
aI31280
aI31281
aI31282
aI31283
aI31284
aI31285
aI31286
aI31287
aI31288
aI31289
aI31290
aI31293
aI31294
aI31295
aI31296
aI31299
aI31300
aI31301
aI31302
aI31303
aI31305
aI31306
aI31309
aI31310
aI31312
aI31313
aI31314
aI31315
aI31316
aI31317
aI31318
aI31320
aI31321
aI31323
aI31324
aI31325
aI31327
aI31329
aI31330
aI31331
aI31332
aI31333
aI31338
aI31363
aI31364
aI31365
aI31366
aI31368
aI31370
aI31371
aI31372
aI31374
aI31375
aI31376
aI31377
aI31378
aI31380
aI31382
aI31385
aI31387
aI31388
aI31393
aI31394
aI31396
aI31397
aI31398
aI31399
aI31403
aI31404
aI31406
aI31407
aI31408
aI31409
aI31410
aI31411
aI31412
aI31413
aI31420
aI31421
aI31425
aI31427
aI31430
aI31431
aI31432
aI31433
aI31434
aI31435
aI31436
aI31437
aI31441
aI31442
aI31443
aI31445
aI31446
aI31449
aI31450
aI31452
aI31456
aI31457
aI31458
aI31461
aI31463
aI31465
aI31490
aI31491
aI31492
aI31493
aI31494
aI31495
aI31496
aI31498
aI31499
aI31501
aI31502
aI31504
aI31506
aI31508
aI31510
aI31512
aI31513
aI31514
aI31515
aI31516
aI31519
aI31520
aI31523
aI31524
aI31525
aI31526
aI31530
aI31531
aI31532
aI31533
aI31535
aI31536
aI31538
aI31539
aI31540
aI31541
aI31543
aI31548
aI31554
aI31555
aI31563
aI31564
aI31565
aI31566
aI31568
aI31569
aI31570
aI31574
aI31577
aI31578
aI31580
aI31582
aI31584
aI31585
aI31586
aI31587
aI31588
aI31589
aI31590
aI31591
aI31592
aI31593
aI31597
aI31620
aI31621
aI31623
aI31624
aI31625
aI31626
aI31627
aI31628
aI31629
aI31630
aI31631
aI31633
aI31635
aI31636
aI31637
aI31638
aI31639
aI31640
aI31642
aI31643
aI31644
aI31648
aI31649
aI31651
aI31652
aI31653
aI31654
aI31655
aI31656
aI31659
aI31660
aI31661
aI31662
aI31664
aI31666
aI31668
aI31669
aI31670
aI31671
aI31673
aI31674
aI31675
aI31682
aI31683
aI31687
aI31690
aI31691
aI31696
aI31697
aI31699
aI31700
aI31701
aI31702
aI31703
aI31704
aI31712
aI31713
aI31714
aI31715
aI31716
aI31717
aI31719
aI31722
aI31725
aI31747
aI31749
aI31751
aI31752
aI31753
aI31754
aI31755
aI31756
aI31758
aI31759
aI31760
aI31761
aI31762
aI31765
aI31767
aI31768
aI31769
aI31770
aI31771
aI31772
aI31777
aI31779
aI31780
aI31784
aI31786
aI31787
aI31788
aI31789
aI31790
aI31792
aI31793
aI31794
aI31796
aI31797
aI31798
aI31800
aI31801
aI31804
aI31816
aI31817
aI31820
aI31823
aI31827
aI31829
aI31831
aI31832
aI31833
aI31834
aI31835
aI31836
aI31839
aI31842
aI31845
aI31846
aI31848
aI31874
aI31875
aI31876
aI31877
aI31879
aI31880
aI31881
aI31882
aI31883
aI31885
aI31886
aI31887
aI31888
aI31889
aI31891
aI31892
aI31896
aI31898
aI31899
aI31900
aI31904
aI31908
aI31910
aI31912
aI31913
aI31915
aI31916
aI31917
aI31918
aI31919
aI31920
aI31921
aI31922
aI31923
aI31925
aI31926
aI31927
aI31932
aI31944
aI31945
aI31946
aI31948
aI31949
aI31955
aI31956
aI31957
aI31959
aI31960
aI31961
aI31962
aI31963
aI31964
aI31965
aI31966
aI31967
aI31968
aI31970
aI31971
aI31973
aI31975
aI32002
aI32004
aI32005
aI32006
aI32008
aI32009
aI32010
aI32011
aI32012
aI32013
aI32015
aI32016
aI32017
aI32018
aI32019
aI32021
aI32022
aI32026
aI32027
aI32028
aI32032
aI32036
aI32037
aI32038
aI32039
aI32040
aI32041
aI32042
aI32044
aI32045
aI32046
aI32047
aI32048
aI32049
aI32050
aI32051
aI32052
aI32054
aI32057
aI32060
aI32061
aI32069
aI32071
aI32072
aI32073
aI32075
aI32076
aI32077
aI32078
aI32079
aI32080
aI32082
aI32084
aI32085
aI32086
aI32087
aI32088
aI32091
aI32094
aI32098
aI32099
aI32102
aI32109
aI32130
aI32131
aI32132
aI32133
aI32134
aI32135
aI32136
aI32137
aI32138
aI32139
aI32140
aI32141
aI32142
aI32143
aI32144
aI32145
aI32146
aI32147
aI32148
aI32149
aI32150
aI32151
aI32152
aI32153
aI32155
aI32157
aI32160
aI32162
aI32163
aI32168
aI32169
aI32170
aI32173
aI32175
aI32176
aI32177
aI32178
aI32179
aI32180
aI32182
aI32185
aI32189
aI32196
aI32198
aI32203
aI32205
aI32207
aI32208
aI32211
aI32212
aI32213
aI32215
aI32216
aI32219
aI32220
aI32224
aI32225
aI32226
aI32227
aI32228
aI32229
aI32233
aI32240
aI32258
aI32260
aI32261
aI32262
aI32263
aI32264
aI32265
aI32266
aI32267
aI32268
aI32269
aI32270
aI32272
aI32273
aI32274
aI32275
aI32276
aI32278
aI32281
aI32282
aI32284
aI32287
aI32289
aI32293
aI32294
aI32296
aI32299
aI32301
aI32302
aI32303
aI32304
aI32305
aI32307
aI32308
aI32310
aI32313
aI32318
aI32331
aI32332
aI32333
aI32336
aI32338
aI32339
aI32340
aI32348
aI32349
aI32350
aI32353
aI32356
aI32357
aI32386
aI32388
aI32389
aI32390
aI32391
aI32392
aI32394
aI32395
aI32396
aI32399
aI32400
aI32401
aI32402
aI32403
aI32404
aI32405
aI32406
aI32411
aI32416
aI32421
aI32422
aI32423
aI32427
aI32428
aI32429
aI32430
aI32431
aI32432
aI32434
aI32435
aI32437
aI32442
aI32443
aI32458
aI32461
aI32470
aI32484
aI32490
aI32492
aI32514
aI32515
aI32516
aI32517
aI32518
aI32519
aI32520
aI32521
aI32522
aI32523
aI32524
aI32525
aI32526
aI32528
aI32530
aI32531
aI32533
aI32534
aI32535
aI32536
aI32537
aI32538
aI32539
aI32544
aI32547
aI32550
aI32551
aI32554
aI32556
aI32557
aI32558
aI32559
aI32560
aI32561
aI32562
aI32564
aI32566
aI32567
aI32568
aI32569
aI32571
aI32572
aI32590
aI32596
aI32600
aI32601
aI32605
aI32606
aI32610
aI32611
aI32612
aI32620
aI32642
aI32643
aI32644
aI32645
aI32646
aI32647
aI32648
aI32649
aI32650
aI32651
aI32652
aI32653
aI32654
aI32655
aI32656
aI32658
aI32659
aI32661
aI32663
aI32664
aI32666
aI32667
aI32672
aI32674
aI32675
aI32676
aI32679
aI32680
aI32681
aI32682
aI32683
aI32685
aI32686
aI32687
aI32689
aI32690
aI32691
aI32693
aI32696
aI32699
aI32710
aI32716
aI32718
aI32724
aI32725
aI32726
aI32742
aI32744
aI32746
aI32747
aI32752
aa(lp6
I18885
aI19458
aI19586
aI20028
aI21195
aI22068
aI22069
aI22582
aI22586
aI22714
aI22848
aI23088
aI23346
aI23348
aI23354
aI23357
aI23474
aI23475
aI23479
aI23480
aI23604
aI23609
aI23728
aI23732
aI23856
aI23857
aI23863
aI23864
aI23868
aI23983
aI23990
aI23994
aI23995
aI23996
aI23999
aI24002
aI24117
aI24125
aI24246
aI24371
aI24372
aI24375
aI24376
aI24380
aI24381
aI24382
aI24496
aI24497
aI24498
aI24502
aI24505
aI24508
aI24622
aI24623
aI24624
aI24625
aI24626
aI24627
aI24628
aI24630
aI24633
aI24634
aI24635
aI24636
aI24637
aI24639
aI24751
aI24752
aI24761
aI24762
aI24763
aI24764
aI24765
aI24766
aI24767
aI24882
aI24883
aI24884
aI24885
aI24886
aI24887
aI24888
aI24891
aI25010
aI25011
aI25012
aI25013
aI25017
aI25018
aI25020
aI25022
aI25023
aI25085
aI25147
aI25148
aI25151
aI25261
aI25263
aI25265
aI25267
aI25269
aI25270
aI25271
aI25272
aI25274
aI25276
aI25279
aI25393
aI25394
aI25395
aI25396
aI25398
aI25399
aI25401
aI25402
aI25403
aI25404
aI25405
aI25406
aI25521
aI25522
aI25523
aI25524
aI25525
aI25526
aI25527
aI25528
aI25529
aI25530
aI25531
aI25532
aI25533
aI25649
aI25650
aI25651
aI25652
aI25653
aI25655
aI25657
aI25658
aI25659
aI25660
aI25662
aI25663
aI25670
aI25774
aI25777
aI25778
aI25779
aI25780
aI25781
aI25782
aI25783
aI25784
aI25785
aI25786
aI25787
aI25788
aI25791
aI25795
aI25904
aI25906
aI25907
aI25908
aI25909
aI25910
aI25915
aI25916
aI25918
aI25920
aI25921
aI25922
aI25924
aI26029
aI26031
aI26033
aI26034
aI26036
aI26037
aI26038
aI26039
aI26040
aI26041
aI26042
aI26043
aI26044
aI26046
aI26048
aI26058
aI26061
aI26080
aI26157
aI26158
aI26159
aI26160
aI26161
aI26162
aI26163
aI26165
aI26168
aI26170
aI26172
aI26173
aI26174
aI26201
aI26207
aI26284
aI26286
aI26287
aI26288
aI26289
aI26290
aI26294
aI26295
aI26296
aI26297
aI26299
aI26304
aI26308
aI26309
aI26310
aI26311
aI26326
aI26327
aI26330
aI26337
aI26361
aI26409
aI26411
aI26413
aI26414
aI26419
aI26420
aI26421
aI26422
aI26423
aI26424
aI26425
aI26426
aI26427
aI26428
aI26429
aI26431
aI26432
aI26433
aI26434
aI26435
aI26437
aI26438
aI26439
aI26440
aI26441
aI26442
aI26443
aI26448
aI26453
aI26454
aI26457
aI26458
aI26459
aI26462
aI26497
aI26501
aI26502
aI26526
aI26527
aI26528
aI26532
aI26537
aI26538
aI26539
aI26540
aI26542
aI26543
aI26544
aI26545
aI26546
aI26547
aI26548
aI26549
aI26550
aI26552
aI26554
aI26556
aI26557
aI26558
aI26559
aI26560
aI26561
aI26564
aI26565
aI26566
aI26567
aI26568
aI26569
aI26570
aI26572
aI26573
aI26574
aI26576
aI26577
aI26578
aI26579
aI26580
aI26581
aI26582
aI26585
aI26586
aI26592
aI26593
aI26594
aI26595
aI26628
aI26630
aI26631
aI26632
aI26635
aI26636
aI26646
aI26647
aI26648
aI26650
aI26658
aI26659
aI26664
aI26666
aI26667
aI26668
aI26669
aI26670
aI26671
aI26673
aI26674
aI26676
aI26679
aI26680
aI26681
aI26682
aI26683
aI26684
aI26685
aI26687
aI26688
aI26689
aI26690
aI26691
aI26693
aI26694
aI26695
aI26696
aI26697
aI26698
aI26699
aI26702
aI26703
aI26705
aI26706
aI26707
aI26711
aI26712
aI26713
aI26714
aI26716
aI26717
aI26718
aI26719
aI26721
aI26724
aI26727
aI26728
aI26735
aI26753
aI26754
aI26755
aI26758
aI26759
aI26760
aI26761
aI26762
aI26764
aI26771
aI26774
aI26775
aI26776
aI26778
aI26787
aI26793
aI26794
aI26795
aI26796
aI26799
aI26801
aI26802
aI26804
aI26806
aI26808
aI26809
aI26810
aI26811
aI26812
aI26813
aI26815
aI26816
aI26817
aI26818
aI26819
aI26820
aI26821
aI26822
aI26823
aI26825
aI26827
aI26828
aI26829
aI26830
aI26831
aI26832
aI26833
aI26834
aI26835
aI26836
aI26839
aI26840
aI26841
aI26842
aI26844
aI26845
aI26847
aI26848
aI26850
aI26882
aI26886
aI26892
aI26895
aI26896
aI26897
aI26901
aI26903
aI26904
aI26905
aI26911
aI26913
aI26914
aI26915
aI26916
aI26919
aI26920
aI26921
aI26924
aI26925
aI26926
aI26927
aI26928
aI26929
aI26930
aI26931
aI26933
aI26935
aI26936
aI26938
aI26939
aI26940
aI26941
aI26943
aI26944
aI26946
aI26947
aI26949
aI26950
aI26951
aI26952
aI26953
aI26955
aI26958
aI26960
aI26962
aI26964
aI26965
aI26966
aI26968
aI26969
aI26970
aI26971
aI26978
aI27009
aI27010
aI27011
aI27012
aI27015
aI27017
aI27018
aI27019
aI27021
aI27022
aI27023
aI27024
aI27025
aI27026
aI27027
aI27028
aI27035
aI27036
aI27042
aI27043
aI27046
aI27047
aI27048
aI27049
aI27050
aI27051
aI27052
aI27053
aI27055
aI27056
aI27057
aI27058
aI27059
aI27060
aI27061
aI27063
aI27064
aI27068
aI27069
aI27070
aI27071
aI27072
aI27073
aI27078
aI27079
aI27080
aI27081
aI27082
aI27083
aI27084
aI27085
aI27088
aI27089
aI27090
aI27091
aI27092
aI27093
aI27095
aI27096
aI27099
aI27100
aI27104
aI27105
aI27137
aI27138
aI27139
aI27142
aI27143
aI27145
aI27146
aI27147
aI27148
aI27150
aI27154
aI27155
aI27156
aI27157
aI27160
aI27161
aI27162
aI27163
aI27164
aI27165
aI27166
aI27167
aI27168
aI27169
aI27170
aI27171
aI27172
aI27173
aI27174
aI27177
aI27178
aI27179
aI27180
aI27181
aI27183
aI27184
aI27185
aI27189
aI27191
aI27192
aI27193
aI27196
aI27197
aI27198
aI27200
aI27201
aI27202
aI27203
aI27204
aI27205
aI27206
aI27207
aI27208
aI27209
aI27210
aI27211
aI27212
aI27213
aI27214
aI27216
aI27217
aI27218
aI27220
aI27221
aI27222
aI27223
aI27224
aI27225
aI27226
aI27227
aI27230
aI27231
aI27233
aI27237
aI27265
aI27266
aI27267
aI27268
aI27269
aI27270
aI27271
aI27272
aI27273
aI27274
aI27275
aI27276
aI27277
aI27278
aI27279
aI27280
aI27284
aI27287
aI27288
aI27289
aI27291
aI27292
aI27293
aI27294
aI27295
aI27296
aI27297
aI27299
aI27300
aI27301
aI27302
aI27303
aI27305
aI27306
aI27307
aI27308
aI27309
aI27312
aI27313
aI27314
aI27320
aI27322
aI27323
aI27324
aI27325
aI27327
aI27328
aI27329
aI27330
aI27331
aI27333
aI27334
aI27335
aI27336
aI27337
aI27338
aI27339
aI27340
aI27342
aI27343
aI27344
aI27345
aI27346
aI27347
aI27349
aI27350
aI27351
aI27355
aI27356
aI27357
aI27358
aI27359
aI27360
aI27361
aI27364
aI27395
aI27396
aI27398
aI27399
aI27400
aI27401
aI27402
aI27403
aI27404
aI27410
aI27411
aI27412
aI27413
aI27414
aI27415
aI27416
aI27417
aI27418
aI27420
aI27421
aI27422
aI27423
aI27424
aI27425
aI27426
aI27427
aI27430
aI27431
aI27432
aI27433
aI27436
aI27437
aI27438
aI27444
aI27445
aI27446
aI27449
aI27450
aI27453
aI27454
aI27456
aI27457
aI27461
aI27463
aI27464
aI27465
aI27466
aI27469
aI27470
aI27471
aI27474
aI27475
aI27477
aI27478
aI27479
aI27480
aI27481
aI27482
aI27485
aI27486
aI27487
aI27488
aI27489
aI27490
aI27491
aI27492
aI27495
aI27521
aI27524
aI27525
aI27526
aI27530
aI27531
aI27532
aI27533
aI27534
aI27535
aI27536
aI27537
aI27538
aI27539
aI27540
aI27541
aI27542
aI27543
aI27544
aI27545
aI27547
aI27548
aI27549
aI27551
aI27552
aI27553
aI27554
aI27555
aI27558
aI27560
aI27563
aI27564
aI27565
aI27566
aI27569
aI27571
aI27572
aI27574
aI27575
aI27576
aI27577
aI27579
aI27581
aI27582
aI27584
aI27586
aI27587
aI27591
aI27592
aI27594
aI27596
aI27597
aI27598
aI27599
aI27600
aI27601
aI27602
aI27603
aI27604
aI27605
aI27606
aI27607
aI27608
aI27609
aI27610
aI27612
aI27613
aI27615
aI27616
aI27618
aI27619
aI27651
aI27652
aI27653
aI27654
aI27655
aI27656
aI27660
aI27661
aI27662
aI27663
aI27664
aI27666
aI27667
aI27668
aI27670
aI27672
aI27673
aI27677
aI27678
aI27679
aI27681
aI27683
aI27684
aI27685
aI27686
aI27689
aI27692
aI27694
aI27695
aI27700
aI27703
aI27704
aI27706
aI27709
aI27710
aI27711
aI27712
aI27713
aI27714
aI27715
aI27716
aI27720
aI27722
aI27723
aI27724
aI27726
aI27728
aI27729
aI27730
aI27732
aI27733
aI27734
aI27735
aI27736
aI27740
aI27741
aI27742
aI27743
aI27746
aI27748
aI27751
aI27752
aI27777
aI27778
aI27779
aI27780
aI27781
aI27782
aI27783
aI27787
aI27788
aI27789
aI27791
aI27792
aI27794
aI27795
aI27796
aI27797
aI27798
aI27799
aI27801
aI27802
aI27805
aI27806
aI27807
aI27808
aI27809
aI27812
aI27813
aI27815
aI27817
aI27818
aI27820
aI27823
aI27824
aI27826
aI27827
aI27828
aI27830
aI27832
aI27833
aI27834
aI27836
aI27837
aI27839
aI27840
aI27841
aI27842
aI27843
aI27844
aI27845
aI27847
aI27848
aI27850
aI27851
aI27852
aI27854
aI27855
aI27856
aI27857
aI27858
aI27859
aI27861
aI27863
aI27867
aI27869
aI27870
aI27871
aI27872
aI27873
aI27874
aI27876
aI27879
aI27885
aI27905
aI27907
aI27908
aI27909
aI27910
aI27911
aI27912
aI27914
aI27916
aI27917
aI27919
aI27920
aI27921
aI27922
aI27923
aI27924
aI27925
aI27926
aI27927
aI27928
aI27930
aI27932
aI27934
aI27936
aI27937
aI27939
aI27947
aI27949
aI27950
aI27951
aI27952
aI27959
aI27960
aI27962
aI27963
aI27965
aI27966
aI27968
aI27969
aI27970
aI27971
aI27972
aI27975
aI27976
aI27977
aI27980
aI27982
aI27983
aI27984
aI27985
aI27986
aI27987
aI27988
aI27989
aI27991
aI27993
aI27994
aI27995
aI27997
aI28001
aI28002
aI28003
aI28004
aI28005
aI28006
aI28007
aI28033
aI28034
aI28035
aI28038
aI28039
aI28040
aI28041
aI28044
aI28045
aI28046
aI28047
aI28048
aI28050
aI28051
aI28054
aI28058
aI28062
aI28063
aI28064
aI28065
aI28070
aI28074
aI28075
aI28076
aI28082
aI28085
aI28087
aI28088
aI28090
aI28091
aI28092
aI28093
aI28095
aI28096
aI28097
aI28098
aI28099
aI28100
aI28101
aI28104
aI28105
aI28107
aI28108
aI28109
aI28112
aI28113
aI28114
aI28115
aI28116
aI28117
aI28120
aI28121
aI28122
aI28123
aI28124
aI28125
aI28128
aI28129
aI28130
aI28132
aI28134
aI28161
aI28162
aI28163
aI28164
aI28165
aI28166
aI28168
aI28172
aI28183
aI28186
aI28195
aI28198
aI28199
aI28205
aI28206
aI28214
aI28216
aI28222
aI28223
aI28225
aI28226
aI28228
aI28229
aI28232
aI28233
aI28234
aI28235
aI28236
aI28238
aI28239
aI28240
aI28241
aI28242
aI28243
aI28244
aI28245
aI28247
aI28249
aI28251
aI28252
aI28253
aI28254
aI28256
aI28258
aI28259
aI28260
aI28262
aI28263
aI28289
aI28290
aI28293
aI28294
aI28307
aI28317
aI28319
aI28320
aI28321
aI28322
aI28325
aI28327
aI28342
aI28344
aI28356
aI28357
aI28360
aI28362
aI28365
aI28366
aI28369
aI28370
aI28371
aI28372
aI28373
aI28375
aI28376
aI28377
aI28378
aI28379
aI28380
aI28381
aI28382
aI28384
aI28385
aI28386
aI28387
aI28390
aI28417
aI28441
aI28444
aI28445
aI28455
aI28456
aI28470
aI28472
aI28479
aI28480
aI28482
aI28484
aI28485
aI28487
aI28488
aI28489
aI28491
aI28494
aI28495
aI28498
aI28499
aI28500
aI28503
aI28506
aI28509
aI28510
aI28511
aI28514
aI28516
aI28520
aI28521
aI28547
aI28548
aI28549
aI28551
aI28552
aI28557
aI28558
aI28559
aI28561
aI28564
aI28577
aI28578
aI28584
aI28585
aI28589
aI28590
aI28591
aI28592
aI28598
aI28605
aI28608
aI28611
aI28612
aI28619
aI28620
aI28622
aI28623
aI28624
aI28625
aI28626
aI28627
aI28631
aI28632
aI28633
aI28634
aI28635
aI28636
aI28637
aI28639
aI28640
aI28641
aI28642
aI28643
aI28644
aI28646
aI28647
aI28673
aI28674
aI28675
aI28676
aI28679
aI28683
aI28684
aI28688
aI28701
aI28714
aI28716
aI28723
aI28724
aI28731
aI28733
aI28734
aI28735
aI28737
aI28739
aI28748
aI28749
aI28752
aI28755
aI28757
aI28759
aI28760
aI28761
aI28762
aI28763
aI28764
aI28766
aI28768
aI28769
aI28771
aI28774
aI28775
aI28802
aI28803
aI28804
aI28806
aI28807
aI28808
aI28812
aI28818
aI28819
aI28829
aI28843
aI28852
aI28857
aI28864
aI28865
aI28874
aI28876
aI28877
aI28878
aI28885
aI28886
aI28887
aI28889
aI28890
aI28891
aI28892
aI28893
aI28894
aI28895
aI28896
aI28897
aI28899
aI28900
aI28901
aI28902
aI28903
aI28909
aI28929
aI28930
aI28931
aI28934
aI28935
aI28936
aI28940
aI28943
aI28948
aI28949
aI28950
aI28952
aI28976
aI28980
aI28985
aI28986
aI28988
aI28989
aI28993
aI29002
aI29003
aI29007
aI29008
aI29009
aI29011
aI29013
aI29014
aI29015
aI29016
aI29017
aI29018
aI29020
aI29021
aI29022
aI29023
aI29024
aI29025
aI29026
aI29027
aI29028
aI29029
aI29030
aI29070
aI29072
aI29076
aI29078
aI29097
aI29103
aI29105
aI29111
aI29113
aI29115
aI29129
aI29130
aI29131
aI29133
aI29144
aI29147
aI29151
aI29152
aI29153
aI29154
aI29155
aI29156
aI29157
aI29158
aI29159
aI29160
aI29161
aI29187
aI29188
aI29190
aI29196
aI29199
aI29200
aI29204
aI29209
aI29227
aI29228
aI29245
aI29256
aI29260
aI29264
aI29267
aI29272
aI29273
aI29274
aI29275
aI29276
aI29277
aI29278
aI29279
aI29280
aI29282
aI29283
aI29285
aI29288
aI29289
aI29290
aI29292
aI29313
aI29314
aI29319
aI29320
aI29324
aI29356
aI29363
aI29373
aI29400
aI29403
aI29404
aI29407
aI29408
aI29412
aI29414
aI29415
aI29416
aI29417
aI29446
aI29447
aI29457
aI29470
aI29471
aI29478
aI29485
aI29486
aI29517
aI29527
aI29528
aI29530
aI29531
aI29537
aI29538
aI29539
aI29540
aI29542
aI29543
aI29544
aI29545
aI29546
aI29549
aI29570
aI29572
aI29573
aI29580
aI29582
aI29585
aI29611
aI29617
aI29624
aI29631
aI29632
aI29633
aI29636
aI29638
aI29639
aI29642
aI29647
aI29648
aI29650
aI29654
aI29656
aI29657
aI29658
aI29659
aI29661
aI29662
aI29663
aI29664
aI29665
aI29666
aI29667
aI29668
aI29669
aI29671
aI29698
aI29700
aI29702
aI29703
aI29740
aI29747
aI29752
aI29753
aI29759
aI29766
aI29775
aI29782
aI29785
aI29786
aI29789
aI29790
aI29793
aI29795
aI29796
aI29797
aI29798
aI29799
aI29800
aI29801
aI29802
aI29803
aI29804
aI29826
aI29827
aI29828
aI29830
aI29831
aI29844
aI29875
aI29880
aI29900
aI29909
aI29910
aI29911
aI29913
aI29914
aI29920
aI29923
aI29924
aI29925
aI29926
aI29927
aI29928
aI29929
aI29930
aI29931
aI29932
aI29953
aI29954
aI29955
aI29956
aI29957
aI29972
aI29981
aI29982
aI29995
aI30012
aI30022
aI30024
aI30033
aI30041
aI30042
aI30043
aI30045
aI30046
aI30047
aI30048
aI30049
aI30050
aI30051
aI30053
aI30054
aI30056
aI30057
aI30058
aI30059
aI30060
aI30061
aI30062
aI30082
aI30083
aI30087
aI30088
aI30093
aI30132
aI30134
aI30137
aI30138
aI30139
aI30140
aI30141
aI30146
aI30150
aI30151
aI30152
aI30168
aI30172
aI30175
aI30179
aI30182
aI30183
aI30184
aI30188
aI30189
aI30192
aI30210
aI30211
aI30212
aI30213
aI30220
aI30232
aI30233
aI30238
aI30267
aI30269
aI30270
aI30277
aI30280
aI30288
aI30295
aI30297
aI30298
aI30299
aI30301
aI30302
aI30309
aI30310
aI30312
aI30313
aI30314
aI30315
aI30317
aI30318
aI30338
aI30339
aI30344
aI30349
aI30361
aI30368
aI30370
aI30398
aI30407
aI30417
aI30424
aI30430
aI30436
aI30437
aI30438
aI30440
aI30441
aI30442
aI30443
aI30444
aI30466
aI30467
aI30482
aI30522
aI30524
aI30527
aI30532
aI30534
aI30541
aI30543
aI30550
aI30552
aI30553
aI30555
aI30556
aI30559
aI30560
aI30561
aI30562
aI30564
aI30567
aI30568
aI30569
aI30570
aI30571
aI30572
aI30573
aI30594
aI30596
aI30597
aI30599
aI30600
aI30602
aI30604
aI30612
aI30625
aI30653
aI30662
aI30668
aI30669
aI30680
aI30681
aI30687
aI30688
aI30690
aI30691
aI30692
aI30693
aI30694
aI30695
aI30696
aI30697
aI30698
aI30699
aI30700
aI30701
aI30722
aI30736
aI30742
aI30748
aI30777
aI30779
aI30780
aI30781
aI30783
aI30784
aI30785
aI30786
aI30787
aI30788
aI30790
aI30791
aI30793
aI30796
aI30799
aI30807
aI30809
aI30810
aI30813
aI30815
aI30816
aI30817
aI30818
aI30819
aI30820
aI30821
aI30822
aI30823
aI30824
aI30829
aI30850
aI30851
aI30858
aI30864
aI30874
aI30876
aI30907
aI30908
aI30909
aI30911
aI30912
aI30913
aI30915
aI30919
aI30921
aI30925
aI30927
aI30930
aI30932
aI30940
aI30941
aI30943
aI30944
aI30946
aI30947
aI30949
aI30950
aI30951
aI30952
aI30953
aI30954
aI30955
aI30958
aI30980
aI30985
aI30986
aI31001
aI31002
aI31013
aI31026
aI31040
aI31042
aI31043
aI31044
aI31047
aI31048
aI31049
aI31055
aI31065
aI31066
aI31067
aI31069
aI31071
aI31073
aI31074
aI31075
aI31076
aI31077
aI31080
aI31082
aI31083
aI31084
aI31085
aI31086
aI31087
aI31109
aI31110
aI31111
aI31116
aI31122
aI31127
aI31134
aI31139
aI31142
aI31164
aI31166
aI31167
aI31168
aI31169
aI31173
aI31178
aI31180
aI31186
aI31196
aI31198
aI31199
aI31201
aI31202
aI31203
aI31206
aI31207
aI31208
aI31209
aI31213
aI31215
aI31219
aI31234
aI31235
aI31236
aI31237
aI31239
aI31247
aI31256
aI31257
aI31259
aI31260
aI31262
aI31263
aI31264
aI31265
aI31270
aI31272
aI31274
aI31291
aI31292
aI31297
aI31298
aI31304
aI31307
aI31308
aI31311
aI31322
aI31326
aI31334
aI31335
aI31336
aI31337
aI31339
aI31340
aI31341
aI31343
aI31345
aI31346
aI31347
aI31362
aI31367
aI31369
aI31373
aI31379
aI31381
aI31383
aI31384
aI31386
aI31389
aI31390
aI31391
aI31395
aI31400
aI31401
aI31402
aI31405
aI31415
aI31416
aI31417
aI31418
aI31419
aI31422
aI31423
aI31424
aI31426
aI31428
aI31429
aI31438
aI31440
aI31444
aI31447
aI31448
aI31451
aI31453
aI31454
aI31455
aI31459
aI31460
aI31462
aI31464
aI31466
aI31467
aI31468
aI31469
aI31471
aI31497
aI31500
aI31507
aI31509
aI31511
aI31517
aI31518
aI31521
aI31522
aI31527
aI31528
aI31529
aI31537
aI31542
aI31544
aI31545
aI31546
aI31547
aI31549
aI31550
aI31551
aI31552
aI31553
aI31556
aI31557
aI31558
aI31559
aI31560
aI31561
aI31562
aI31567
aI31571
aI31575
aI31576
aI31579
aI31581
aI31583
aI31594
aI31595
aI31596
aI31598
aI31599
aI31600
aI31618
aI31619
aI31622
aI31632
aI31634
aI31645
aI31646
aI31647
aI31650
aI31657
aI31658
aI31665
aI31667
aI31672
aI31676
aI31677
aI31678
aI31679
aI31680
aI31681
aI31684
aI31685
aI31686
aI31688
aI31689
aI31692
aI31693
aI31694
aI31695
aI31698
aI31705
aI31706
aI31707
aI31708
aI31709
aI31710
aI31711
aI31718
aI31720
aI31721
aI31723
aI31724
aI31726
aI31727
aI31728
aI31731
aI31733
aI31746
aI31748
aI31750
aI31766
aI31773
aI31775
aI31776
aI31778
aI31781
aI31782
aI31783
aI31791
aI31795
aI31799
aI31802
aI31803
aI31805
aI31806
aI31807
aI31808
aI31809
aI31810
aI31811
aI31812
aI31813
aI31814
aI31815
aI31818
aI31819
aI31821
aI31822
aI31824
aI31825
aI31826
aI31828
aI31830
aI31837
aI31838
aI31840
aI31841
aI31844
aI31847
aI31850
aI31851
aI31852
aI31853
aI31854
aI31855
aI31856
aI31857
aI31878
aI31884
aI31890
aI31893
aI31894
aI31895
aI31897
aI31901
aI31902
aI31903
aI31905
aI31906
aI31907
aI31909
aI31911
aI31914
aI31928
aI31929
aI31930
aI31931
aI31933
aI31934
aI31935
aI31936
aI31937
aI31938
aI31939
aI31940
aI31941
aI31942
aI31943
aI31947
aI31950
aI31951
aI31952
aI31953
aI31954
aI31958
aI31969
aI31972
aI31974
aI31976
aI31977
aI31978
aI31979
aI31980
aI31981
aI31982
aI31983
aI31984
aI31985
aI31988
aI32003
aI32007
aI32014
aI32020
aI32023
aI32024
aI32025
aI32029
aI32030
aI32031
aI32033
aI32034
aI32035
aI32043
aI32053
aI32055
aI32056
aI32058
aI32059
aI32062
aI32063
aI32064
aI32065
aI32066
aI32067
aI32068
aI32070
aI32074
aI32081
aI32083
aI32089
aI32090
aI32092
aI32093
aI32095
aI32096
aI32097
aI32100
aI32101
aI32103
aI32104
aI32105
aI32106
aI32107
aI32108
aI32110
aI32111
aI32112
aI32113
aI32115
aI32116
aI32117
aI32118
aI32154
aI32156
aI32158
aI32159
aI32161
aI32164
aI32166
aI32167
aI32171
aI32172
aI32174
aI32181
aI32183
aI32184
aI32186
aI32187
aI32188
aI32190
aI32191
aI32192
aI32193
aI32194
aI32195
aI32197
aI32199
aI32200
aI32201
aI32202
aI32204
aI32206
aI32209
aI32210
aI32214
aI32217
aI32218
aI32221
aI32222
aI32223
aI32230
aI32231
aI32232
aI32234
aI32235
aI32236
aI32237
aI32238
aI32239
aI32241
aI32242
aI32244
aI32259
aI32271
aI32277
aI32279
aI32280
aI32283
aI32285
aI32286
aI32288
aI32290
aI32291
aI32292
aI32295
aI32297
aI32298
aI32300
aI32306
aI32309
aI32311
aI32312
aI32314
aI32316
aI32317
aI32319
aI32320
aI32321
aI32322
aI32323
aI32324
aI32325
aI32326
aI32327
aI32328
aI32329
aI32330
aI32334
aI32335
aI32337
aI32341
aI32342
aI32343
aI32344
aI32345
aI32346
aI32347
aI32351
aI32352
aI32354
aI32355
aI32358
aI32359
aI32360
aI32361
aI32362
aI32363
aI32364
aI32365
aI32367
aI32368
aI32369
aI32370
aI32371
aI32373
aI32387
aI32393
aI32397
aI32398
aI32407
aI32408
aI32409
aI32410
aI32412
aI32413
aI32414
aI32415
aI32419
aI32420
aI32424
aI32425
aI32426
aI32433
aI32436
aI32438
aI32439
aI32440
aI32441
aI32444
aI32445
aI32446
aI32447
aI32449
aI32450
aI32452
aI32453
aI32455
aI32457
aI32459
aI32460
aI32462
aI32463
aI32464
aI32465
aI32466
aI32467
aI32468
aI32469
aI32471
aI32472
aI32474
aI32475
aI32476
aI32477
aI32478
aI32479
aI32480
aI32481
aI32482
aI32483
aI32485
aI32486
aI32487
aI32488
aI32489
aI32491
aI32493
aI32494
aI32495
aI32496
aI32497
aI32498
aI32499
aI32501
aI32503
aI32504
aI32532
aI32540
aI32541
aI32542
aI32543
aI32545
aI32546
aI32548
aI32549
aI32552
aI32553
aI32555
aI32565
aI32570
aI32573
aI32574
aI32575
aI32576
aI32577
aI32578
aI32579
aI32580
aI32582
aI32583
aI32584
aI32585
aI32586
aI32587
aI32588
aI32589
aI32591
aI32592
aI32593
aI32594
aI32595
aI32597
aI32598
aI32599
aI32602
aI32603
aI32604
aI32607
aI32608
aI32609
aI32613
aI32614
aI32615
aI32616
aI32617
aI32618
aI32619
aI32621
aI32622
aI32623
aI32625
aI32626
aI32627
aI32628
aI32629
aI32630
aI32631
aI32632
aI32660
aI32662
aI32665
aI32668
aI32669
aI32670
aI32671
aI32673
aI32677
aI32678
aI32684
aI32688
aI32692
aI32694
aI32695
aI32697
aI32698
aI32700
aI32701
aI32702
aI32703
aI32704
aI32705
aI32706
aI32707
aI32708
aI32709
aI32711
aI32712
aI32713
aI32714
aI32715
aI32717
aI32719
aI32720
aI32721
aI32722
aI32723
aI32728
aI32729
aI32730
aI32731
aI32732
aI32733
aI32734
aI32735
aI32736
aI32737
aI32738
aI32739
aI32740
aI32741
aI32743
aI32745
aI32748
aI32749
aI32750
aI32751
aI32753
aI32754
aI32755
aI32756
aI32757
aI32758
aI32759
aI32760
aa(lp7
I16643
aI16644
aI16899
aI16904
aI17154
aI17280
aI17282
aI17283
aI17544
aI17546
aI17793
aI17794
aI17795
aI17860
aI17928
aI17930
aI17995
aI17996
aI18050
aI18057
aI18133
aI18240
aI18244
aI18247
aI18254
aI18362
aI18363
aI18376
aI18377
aI18382
aI18496
aI18502
aI18503
aI18508
aI18563
aI18627
aI18631
aI18634
aI18746
aI18750
aI18751
aI18755
aI18757
aI18758
aI18762
aI18763
aI18766
aI18874
aI18875
aI18878
aI18884
aI18887
aI18890
aI18891
aI19001
aI19002
aI19006
aI19009
aI19010
aI19011
aI19012
aI19014
aI19015
aI19030
aI19077
aI19078
aI19080
aI19082
aI19083
aI19084
aI19121
aI19130
aI19131
aI19132
aI19136
aI19138
aI19140
aI19141
aI19143
aI19144
aI19145
aI19146
aI19150
aI19201
aI19203
aI19207
aI19208
aI19252
aI19256
aI19258
aI19259
aI19260
aI19262
aI19276
aI19278
aI19287
aI19332
aI19333
aI19383
aI19390
aI19398
aI19399
aI19401
aI19402
aI19403
aI19404
aI19457
aI19460
aI19462
aI19465
aI19505
aI19511
aI19513
aI19514
aI19517
aI19520
aI19524
aI19525
aI19528
aI19531
aI19585
aI19587
aI19588
aI19589
aI19597
aI19598
aI19599
aI19633
aI19641
aI19643
aI19645
aI19648
aI19652
aI19653
aI19655
aI19656
aI19657
aI19658
aI19659
aI19714
aI19715
aI19716
aI19720
aI19721
aI19722
aI19724
aI19725
aI19726
aI19740
aI19758
aI19764
aI19766
aI19770
aI19778
aI19779
aI19781
aI19782
aI19783
aI19784
aI19785
aI19788
aI19789
aI19799
aI19841
aI19842
aI19849
aI19854
aI19895
aI19905
aI19906
aI19907
aI19908
aI19909
aI19911
aI19914
aI19918
aI19919
aI19920
aI19969
aI19970
aI19972
aI19973
aI19976
aI19977
aI19978
aI19980
aI19983
aI20013
aI20016
aI20020
aI20023
aI20024
aI20025
aI20026
aI20027
aI20032
aI20033
aI20036
aI20037
aI20038
aI20039
aI20046
aI20047
aI20048
aI20051
aI20097
aI20098
aI20100
aI20101
aI20102
aI20104
aI20105
aI20106
aI20107
aI20108
aI20109
aI20111
aI20143
aI20144
aI20145
aI20146
aI20147
aI20148
aI20149
aI20150
aI20151
aI20152
aI20160
aI20161
aI20162
aI20163
aI20164
aI20165
aI20166
aI20167
aI20168
aI20169
aI20170
aI20173
aI20174
aI20175
aI20176
aI20178
aI20225
aI20226
aI20228
aI20230
aI20231
aI20232
aI20233
aI20234
aI20235
aI20236
aI20237
aI20238
aI20249
aI20251
aI20268
aI20273
aI20274
aI20277
aI20279
aI20282
aI20283
aI20285
aI20288
aI20289
aI20290
aI20292
aI20293
aI20298
aI20299
aI20300
aI20301
aI20302
aI20304
aI20353
aI20354
aI20362
aI20363
aI20364
aI20365
aI20369
aI20375
aI20390
aI20392
aI20400
aI20403
aI20405
aI20406
aI20410
aI20412
aI20413
aI20414
aI20415
aI20418
aI20426
aI20432
aI20438
aI20482
aI20488
aI20489
aI20490
aI20491
aI20495
aI20499
aI20517
aI20539
aI20540
aI20541
aI20542
aI20551
aI20555
aI20557
aI20559
aI20562
aI20609
aI20610
aI20611
aI20615
aI20616
aI20617
aI20618
aI20619
aI20623
aI20627
aI20628
aI20645
aI20659
aI20660
aI20668
aI20676
aI20679
aI20680
aI20681
aI20683
aI20688
aI20690
aI20693
aI20694
aI20738
aI20740
aI20745
aI20749
aI20750
aI20751
aI20752
aI20754
aI20755
aI20757
aI20770
aI20783
aI20788
aI20789
aI20790
aI20796
aI20807
aI20808
aI20809
aI20810
aI20812
aI20813
aI20820
aI20821
aI20822
aI20865
aI20867
aI20869
aI20871
aI20872
aI20873
aI20874
aI20875
aI20876
aI20878
aI20879
aI20880
aI20882
aI20886
aI20889
aI20917
aI20918
aI20922
aI20927
aI20935
aI20940
aI20993
aI20994
aI20999
aI21001
aI21002
aI21003
aI21011
aI21014
aI21015
aI21017
aI21018
aI21020
aI21029
aI21031
aI21043
aI21044
aI21062
aI21063
aI21064
aI21065
aI21068
aI21071
aI21073
aI21076
aI21077
aI21078
aI21121
aI21123
aI21124
aI21126
aI21130
aI21131
aI21133
aI21134
aI21135
aI21136
aI21137
aI21139
aI21143
aI21144
aI21146
aI21153
aI21157
aI21160
aI21164
aI21165
aI21166
aI21171
aI21172
aI21174
aI21187
aI21188
aI21189
aI21194
aI21201
aI21205
aI21206
aI21217
aI21219
aI21249
aI21250
aI21251
aI21258
aI21259
aI21260
aI21263
aI21265
aI21266
aI21267
aI21268
aI21271
aI21274
aI21275
aI21276
aI21289
aI21290
aI21294
aI21303
aI21305
aI21312
aI21314
aI21315
aI21320
aI21323
aI21325
aI21377
aI21378
aI21380
aI21381
aI21396
aI21398
aI21407
aI21416
aI21422
aI21425
aI21426
aI21446
aI21447
aI21452
aI21472
aI21508
aI21509
aI21525
aI21531
aI21532
aI21593
aI21595
aI21598
aI21600
aI21633
aI21636
aI21637
aI21651
aI21653
aI21659
aI21660
aI21661
aI21663
aI21666
aI21669
aI21686
aI21700
aI21721
aI21727
aI21728
aI21730
aI21761
aI21762
aI21767
aI21772
aI21773
aI21774
aI21778
aI21788
aI21793
aI21808
aI21809
aI21810
aI21813
aI21815
aI21817
aI21818
aI21819
aI21820
aI21821
aI21822
aI21824
aI21825
aI21831
aI21844
aI21848
aI21891
aI21892
aI21893
aI21894
aI21895
aI21901
aI21909
aI21916
aI21918
aI21922
aI21928
aI21929
aI21933
aI21935
aI21936
aI21937
aI21938
aI21939
aI21941
aI21942
aI21943
aI21944
aI21945
aI21947
aI21952
aI21956
aI21965
aI21979
aI22017
aI22018
aI22019
aI22021
aI22022
aI22024
aI22043
aI22049
aI22050
aI22056
aI22062
aI22063
aI22064
aI22065
aI22066
aI22067
aI22076
aI22079
aI22080
aI22088
aI22090
aI22094
aI22100
aI22103
aI22108
aI22112
aI22113
aI22117
aI22150
aI22188
aI22189
aI22191
aI22193
aI22195
aI22196
aI22198
aI22204
aI22205
aI22207
aI22210
aI22214
aI22220
aI22230
aI22231
aI22232
aI22234
aI22236
aI22245
aI22248
aI22254
aI22273
aI22283
aI22298
aI22305
aI22312
aI22314
aI22320
aI22321
aI22322
aI22323
aI22324
aI22325
aI22326
aI22329
aI22330
aI22331
aI22341
aI22349
aI22350
aI22359
aI22366
aI22403
aI22407
aI22408
aI22437
aI22438
aI22439
aI22447
aI22448
aI22449
aI22450
aI22451
aI22452
aI22453
aI22454
aI22457
aI22459
aI22460
aI22462
aI22486
aI22505
aI22506
aI22522
aI22554
aI22559
aI22560
aI22563
aI22574
aI22576
aI22577
aI22578
aI22579
aI22581
aI22583
aI22589
aI22614
aI22615
aI22618
aI22621
aI22624
aI22627
aI22635
aI22686
aI22691
aI22700
aI22702
aI22704
aI22705
aI22706
aI22707
aI22708
aI22709
aI22710
aI22711
aI22712
aI22715
aI22721
aI22722
aI22731
aI22741
aI22752
aI22754
aI22755
aI22820
aI22821
aI22827
aI22829
aI22830
aI22831
aI22832
aI22833
aI22834
aI22835
aI22836
aI22837
aI22838
aI22840
aI22841
aI22842
aI22843
aI22844
aI22845
aI22846
aI22847
aI22849
aI22850
aI22852
aI22880
aI22881
aI22905
aI22907
aI22909
aI22911
aI22913
aI22941
aI22947
aI22949
aI22952
aI22953
aI22954
aI22955
aI22956
aI22957
aI22958
aI22959
aI22961
aI22963
aI22964
aI22966
aI22967
aI22968
aI22969
aI22970
aI22971
aI22972
aI22973
aI22976
aI22977
aI22978
aI22981
aI23007
aI23008
aI23019
aI23036
aI23038
aI23039
aI23076
aI23077
aI23078
aI23080
aI23083
aI23084
aI23085
aI23086
aI23087
aI23089
aI23090
aI23091
aI23093
aI23094
aI23095
aI23096
aI23097
aI23099
aI23102
aI23104
aI23105
aI23107
aI23108
aI23135
aI23206
aI23207
aI23208
aI23210
aI23211
aI23213
aI23214
aI23216
aI23218
aI23219
aI23220
aI23221
aI23222
aI23223
aI23224
aI23225
aI23226
aI23227
aI23228
aI23229
aI23231
aI23232
aI23233
aI23234
aI23236
aI23267
aI23293
aI23294
aI23333
aI23337
aI23338
aI23339
aI23340
aI23341
aI23343
aI23344
aI23345
aI23347
aI23349
aI23350
aI23353
aI23355
aI23356
aI23358
aI23359
aI23360
aI23361
aI23362
aI23364
aI23403
aI23418
aI23419
aI23420
aI23462
aI23465
aI23466
aI23467
aI23468
aI23469
aI23470
aI23473
aI23476
aI23477
aI23478
aI23481
aI23482
aI23483
aI23484
aI23485
aI23486
aI23487
aI23488
aI23489
aI23490
aI23492
aI23546
aI23547
aI23588
aI23590
aI23591
aI23593
aI23594
aI23596
aI23597
aI23598
aI23599
aI23600
aI23601
aI23602
aI23603
aI23605
aI23606
aI23607
aI23608
aI23610
aI23611
aI23612
aI23613
aI23614
aI23615
aI23616
aI23617
aI23618
aI23668
aI23672
aI23674
aI23675
aI23676
aI23679
aI23716
aI23725
aI23726
aI23727
aI23729
aI23730
aI23731
aI23733
aI23734
aI23735
aI23736
aI23737
aI23738
aI23739
aI23740
aI23741
aI23742
aI23743
aI23744
aI23745
aI23746
aI23800
aI23807
aI23851
aI23852
aI23853
aI23854
aI23855
aI23859
aI23860
aI23861
aI23862
aI23865
aI23866
aI23867
aI23869
aI23870
aI23872
aI23873
aI23874
aI23875
aI23927
aI23928
aI23932
aI23933
aI23934
aI23935
aI23973
aI23975
aI23978
aI23979
aI23980
aI23981
aI23982
aI23984
aI23985
aI23986
aI23987
aI23988
aI23989
aI23991
aI23992
aI23993
aI23997
aI23998
aI24000
aI24001
aI24003
aI24005
aI24006
aI24059
aI24062
aI24100
aI24102
aI24103
aI24106
aI24107
aI24108
aI24110
aI24111
aI24112
aI24114
aI24115
aI24116
aI24118
aI24119
aI24120
aI24122
aI24123
aI24124
aI24126
aI24127
aI24128
aI24129
aI24130
aI24181
aI24184
aI24185
aI24186
aI24187
aI24189
aI24190
aI24191
aI24231
aI24235
aI24236
aI24239
aI24240
aI24241
aI24242
aI24243
aI24244
aI24245
aI24247
aI24248
aI24249
aI24250
aI24251
aI24252
aI24253
aI24255
aI24259
aI24263
aI24314
aI24317
aI24318
aI24363
aI24364
aI24365
aI24366
aI24367
aI24368
aI24370
aI24373
aI24374
aI24377
aI24378
aI24379
aI24383
aI24389
aI24391
aI24438
aI24439
aI24445
aI24446
aI24447
aI24490
aI24491
aI24492
aI24493
aI24494
aI24495
aI24499
aI24500
aI24501
aI24503
aI24504
aI24506
aI24507
aI24509
aI24510
aI24511
aI24512
aI24513
aI24517
aI24519
aI24563
aI24565
aI24566
aI24567
aI24569
aI24575
aI24616
aI24617
aI24618
aI24619
aI24621
aI24629
aI24631
aI24632
aI24638
aI24640
aI24642
aI24643
aI24645
aI24646
aI24647
aI24648
aI24697
aI24698
aI24700
aI24701
aI24744
aI24745
aI24746
aI24747
aI24749
aI24750
aI24753
aI24754
aI24755
aI24756
aI24757
aI24758
aI24759
aI24760
aI24768
aI24770
aI24774
aI24775
aI24776
aI24814
aI24819
aI24825
aI24828
aI24831
aI24872
aI24875
aI24876
aI24878
aI24879
aI24880
aI24881
aI24889
aI24890
aI24892
aI24893
aI24894
aI24895
aI24896
aI24897
aI24898
aI24899
aI24901
aI24904
aI24924
aI24952
aI24954
aI24955
aI24956
aI24957
aI24958
aI24959
aI25000
aI25001
aI25002
aI25003
aI25004
aI25005
aI25006
aI25007
aI25008
aI25009
aI25014
aI25015
aI25016
aI25019
aI25021
aI25024
aI25025
aI25026
aI25068
aI25076
aI25077
aI25079
aI25080
aI25081
aI25082
aI25083
aI25084
aI25086
aI25087
aI25128
aI25130
aI25131
aI25132
aI25133
aI25134
aI25135
aI25136
aI25137
aI25138
aI25139
aI25140
aI25141
aI25142
aI25143
aI25144
aI25145
aI25146
aI25149
aI25152
aI25153
aI25154
aI25190
aI25196
aI25199
aI25203
aI25204
aI25205
aI25206
aI25207
aI25209
aI25212
aI25213
aI25214
aI25254
aI25257
aI25260
aI25262
aI25264
aI25266
aI25268
aI25273
aI25275
aI25277
aI25278
aI25280
aI25281
aI25282
aI25284
aI25303
aI25320
aI25322
aI25331
aI25332
aI25333
aI25334
aI25339
aI25341
aI25385
aI25387
aI25388
aI25389
aI25390
aI25391
aI25392
aI25397
aI25400
aI25407
aI25410
aI25412
aI25413
aI25416
aI25417
aI25418
aI25422
aI25423
aI25425
aI25436
aI25445
aI25448
aI25450
aI25453
aI25459
aI25460
aI25461
aI25462
aI25466
aI25467
aI25469
aI25470
aI25471
aI25509
aI25511
aI25513
aI25514
aI25515
aI25516
aI25517
aI25518
aI25519
aI25520
aI25534
aI25535
aI25536
aI25537
aI25538
aI25539
aI25540
aI25541
aI25543
aI25544
aI25545
aI25546
aI25549
aI25553
aI25563
aI25564
aI25566
aI25577
aI25578
aI25579
aI25582
aI25585
aI25587
aI25588
aI25589
aI25590
aI25591
aI25594
aI25595
aI25596
aI25597
aI25598
aI25599
aI25637
aI25641
aI25642
aI25643
aI25644
aI25645
aI25646
aI25647
aI25648
aI25654
aI25656
aI25661
aI25664
aI25665
aI25666
aI25667
aI25668
aI25669
aI25671
aI25672
aI25673
aI25674
aI25677
aI25681
aI25682
aI25684
aI25685
aI25686
aI25687
aI25688
aI25692
aI25693
aI25695
aI25700
aI25702
aI25705
aI25715
aI25716
aI25717
aI25719
aI25720
aI25721
aI25722
aI25723
aI25725
aI25726
aI25727
aI25729
aI25765
aI25770
aI25771
aI25772
aI25773
aI25775
aI25776
aI25789
aI25790
aI25792
aI25793
aI25794
aI25796
aI25797
aI25798
aI25799
aI25800
aI25801
aI25802
aI25804
aI25805
aI25806
aI25808
aI25809
aI25810
aI25814
aI25815
aI25816
aI25821
aI25823
aI25824
aI25829
aI25830
aI25832
aI25833
aI25835
aI25840
aI25844
aI25845
aI25847
aI25848
aI25849
aI25850
aI25851
aI25852
aI25854
aI25855
aI25857
aI25858
aI25864
aI25865
aI25895
aI25896
aI25900
aI25901
aI25902
aI25903
aI25905
aI25911
aI25912
aI25917
aI25919
aI25923
aI25925
aI25926
aI25927
aI25928
aI25929
aI25930
aI25931
aI25932
aI25933
aI25935
aI25937
aI25938
aI25940
aI25941
aI25942
aI25943
aI25944
aI25947
aI25950
aI25951
aI25953
aI25954
aI25955
aI25956
aI25957
aI25958
aI25959
aI25960
aI25966
aI25967
aI25968
aI25969
aI25972
aI25974
aI25975
aI25976
aI25978
aI25979
aI25981
aI25983
aI25985
aI25987
aI25988
aI25989
aI25990
aI25991
aI25992
aI25993
aI26000
aI26002
aI26003
aI26020
aI26021
aI26026
aI26027
aI26028
aI26030
aI26032
aI26035
aI26045
aI26047
aI26049
aI26050
aI26051
aI26052
aI26053
aI26054
aI26055
aI26056
aI26057
aI26059
aI26060
aI26062
aI26063
aI26064
aI26065
aI26066
aI26067
aI26070
aI26071
aI26072
aI26075
aI26077
aI26078
aI26079
aI26081
aI26082
aI26083
aI26084
aI26085
aI26087
aI26089
aI26090
aI26091
aI26092
aI26094
aI26095
aI26102
aI26103
aI26104
aI26109
aI26114
aI26115
aI26119
aI26120
aI26121
aI26122
aI26128
aI26130
aI26135
aI26148
aI26149
aI26150
aI26151
aI26153
aI26156
aI26164
aI26167
aI26169
aI26171
aI26175
aI26176
aI26177
aI26178
aI26179
aI26180
aI26181
aI26182
aI26183
aI26186
aI26187
aI26188
aI26189
aI26190
aI26192
aI26193
aI26194
aI26195
aI26196
aI26199
aI26202
aI26204
aI26205
aI26206
aI26208
aI26209
aI26210
aI26211
aI26214
aI26217
aI26218
aI26220
aI26221
aI26223
aI26224
aI26225
aI26226
aI26228
aI26231
aI26232
aI26233
aI26234
aI26235
aI26236
aI26237
aI26238
aI26239
aI26242
aI26243
aI26244
aI26245
aI26246
aI26250
aI26256
aI26257
aI26263
aI26267
aI26274
aI26275
aI26276
aI26277
aI26278
aI26279
aI26280
aI26281
aI26282
aI26283
aI26285
aI26291
aI26292
aI26293
aI26300
aI26305
aI26306
aI26307
aI26312
aI26313
aI26314
aI26315
aI26317
aI26318
aI26319
aI26321
aI26322
aI26323
aI26324
aI26325
aI26328
aI26329
aI26331
aI26332
aI26333
aI26334
aI26335
aI26336
aI26338
aI26339
aI26340
aI26341
aI26342
aI26344
aI26345
aI26346
aI26347
aI26357
aI26359
aI26360
aI26362
aI26363
aI26365
aI26369
aI26370
aI26371
aI26372
aI26373
aI26374
aI26377
aI26378
aI26382
aI26383
aI26384
aI26385
aI26386
aI26387
aI26402
aI26403
aI26404
aI26405
aI26406
aI26407
aI26408
aI26410
aI26412
aI26415
aI26416
aI26417
aI26418
aI26430
aI26436
aI26444
aI26445
aI26446
aI26447
aI26449
aI26450
aI26451
aI26452
aI26455
aI26456
aI26460
aI26461
aI26463
aI26464
aI26465
aI26466
aI26469
aI26470
aI26471
aI26473
aI26474
aI26475
aI26476
aI26478
aI26480
aI26481
aI26483
aI26486
aI26488
aI26489
aI26493
aI26495
aI26498
aI26500
aI26504
aI26505
aI26506
aI26507
aI26508
aI26509
aI26510
aI26512
aI26513
aI26514
aI26515
aI26516
aI26517
aI26518
aI26519
aI26523
aI26524
aI26525
aI26529
aI26530
aI26531
aI26533
aI26534
aI26535
aI26536
aI26541
aI26562
aI26571
aI26575
aI26583
aI26584
aI26587
aI26588
aI26589
aI26590
aI26591
aI26596
aI26597
aI26598
aI26599
aI26600
aI26601
aI26602
aI26604
aI26605
aI26607
aI26608
aI26609
aI26610
aI26611
aI26614
aI26615
aI26618
aI26620
aI26625
aI26626
aI26627
aI26629
aI26633
aI26634
aI26637
aI26638
aI26639
aI26641
aI26642
aI26643
aI26644
aI26645
aI26649
aI26651
aI26652
aI26653
aI26654
aI26655
aI26656
aI26657
aI26660
aI26661
aI26662
aI26663
aI26665
aI26700
aI26701
aI26708
aI26709
aI26710
aI26715
aI26720
aI26722
aI26723
aI26725
aI26726
aI26729
aI26730
aI26731
aI26732
aI26733
aI26734
aI26736
aI26737
aI26739
aI26740
aI26741
aI26742
aI26743
aI26744
aI26746
aI26747
aI26748
aI26749
aI26751
aI26756
aI26757
aI26763
aI26765
aI26766
aI26767
aI26768
aI26769
aI26770
aI26772
aI26773
aI26777
aI26779
aI26780
aI26781
aI26782
aI26783
aI26784
aI26785
aI26786
aI26788
aI26789
aI26790
aI26791
aI26792
aI26797
aI26798
aI26807
aI26824
aI26826
aI26837
aI26838
aI26843
aI26846
aI26849
aI26851
aI26852
aI26853
aI26854
aI26855
aI26856
aI26857
aI26858
aI26859
aI26860
aI26861
aI26862
aI26863
aI26869
aI26871
aI26873
aI26874
aI26877
aI26879
aI26881
aI26883
aI26884
aI26885
aI26887
aI26888
aI26889
aI26890
aI26891
aI26893
aI26894
aI26898
aI26899
aI26900
aI26902
aI26906
aI26907
aI26908
aI26909
aI26910
aI26912
aI26917
aI26918
aI26923
aI26932
aI26945
aI26956
aI26959
aI26963
aI26967
aI26972
aI26973
aI26974
aI26975
aI26976
aI26977
aI26979
aI26980
aI26981
aI26982
aI26983
aI26984
aI26985
aI26986
aI26987
aI26989
aI26998
aI27006
aI27007
aI27008
aI27013
aI27014
aI27016
aI27020
aI27029
aI27030
aI27031
aI27032
aI27033
aI27034
aI27037
aI27038
aI27039
aI27040
aI27041
aI27045
aI27074
aI27077
aI27086
aI27087
aI27094
aI27097
aI27098
aI27101
aI27102
aI27103
aI27106
aI27107
aI27108
aI27109
aI27110
aI27111
aI27112
aI27113
aI27118
aI27119
aI27127
aI27140
aI27141
aI27144
aI27149
aI27151
aI27152
aI27153
aI27158
aI27159
aI27195
aI27215
aI27219
aI27228
aI27229
aI27232
aI27234
aI27235
aI27236
aI27239
aI27242
aI27243
aI27263
aI27281
aI27282
aI27283
aI27285
aI27286
aI27290
aI27353
aI27354
aI27362
aI27363
aI27365
aI27366
aI27367
aI27368
aI27369
aI27370
aI27371
aI27372
aI27374
aI27376
aI27377
aI27378
aI27384
aI27386
aI27393
aI27394
aI27397
aI27405
aI27406
aI27419
aI27473
aI27483
aI27484
aI27493
aI27494
aI27496
aI27497
aI27498
aI27499
aI27501
aI27502
aI27504
aI27512
aI27514
aI27523
aI27528
aI27529
aI27561
aI27611
aI27617
aI27620
aI27621
aI27622
aI27624
aI27625
aI27627
aI27635
aI27636
aI27643
aI27731
aI27737
aI27738
aI27739
aI27744
aI27745
aI27747
aI27749
aI27750
aI27753
aI27755
aI27757
aI27767
aI27776
aI27790
aI27865
aI27866
aI27868
aI27875
aI27877
aI27878
aI27880
aI27881
aI27883
aI27884
aI27886
aI27887
aI27904
aI27935
aI27996
aI27998
aI27999
aI28000
aI28008
aI28009
aI28010
aI28011
aI28012
aI28014
aI28021
aI28022
aI28094
aI28126
aI28127
aI28131
aI28133
aI28135
aI28136
aI28137
aI28138
aI28248
aI28250
aI28255
aI28257
aI28261
aI28264
aI28265
aI28266
aI28267
aI28268
aI28269
aI28273
aI28388
aI28389
aI28391
aI28392
aI28393
aI28395
aI28396
aI28397
aI28404
aI28405
aI28512
aI28513
aI28515
aI28517
aI28518
aI28519
aI28522
aI28524
aI28525
aI28528
aI28544
aI28638
aI28645
aI28648
aI28649
aI28650
aI28651
aI28652
aI28653
aI28654
aI28672
aI28765
aI28770
aI28772
aI28773
aI28776
aI28778
aI28779
aI28780
aI28781
aI28782
aI28783
aI28801
aI28888
aI28898
aI28904
aI28905
aI28906
aI28907
aI28908
aI28911
aI29031
aI29032
aI29033
aI29034
aI29035
aI29036
aI29037
aI29039
aI29162
aI29163
aI29164
aI29165
aI29185
aI29286
aI29287
aI29291
aI29293
aI29294
aI29418
aI29419
aI29420
aI29421
aI29422
aI29423
aI29424
aI29547
aI29550
aI29569
aI29670
aI29672
aI29673
aI29674
aI29675
aI29676
aI29677
aI29678
aI29679
aI29680
aI29697
aI29701
aI29805
aI29806
aI29807
aI29808
aI29809
aI29813
aI29829
aI29933
aI29934
aI29935
aI29936
aI30055
aI30063
aI30064
aI30065
aI30066
aI30068
aI30081
aI30185
aI30186
aI30187
aI30190
aI30191
aI30194
aI30209
aI30316
aI30319
aI30320
aI30321
aI30322
aI30337
aI30445
aI30446
aI30447
aI30448
aI30450
aI30451
aI30452
aI30465
aI30574
aI30575
aI30577
aI30593
aI30702
aI30703
aI30704
aI30705
aI30706
aI30709
aI30720
aI30721
aI30828
aI30830
aI30831
aI30832
aI30833
aI30835
aI30849
aI30914
aI30956
aI30957
aI30959
aI30960
aI30961
aI30962
aI30963
aI30976
aI30977
aI31081
aI31088
aI31089
aI31090
aI31091
aI31092
aI31093
aI31104
aI31105
aI31212
aI31214
aI31216
aI31217
aI31218
aI31220
aI31221
aI31232
aI31233
aI31328
aI31342
aI31344
aI31348
aI31360
aI31361
aI31392
aI31439
aI31470
aI31472
aI31473
aI31474
aI31475
aI31476
aI31478
aI31479
aI31489
aI31601
aI31602
aI31603
aI31604
aI31605
aI31616
aI31729
aI31730
aI31732
aI31734
aI31745
aI31774
aI31849
aI31858
aI31859
aI31860
aI31861
aI31863
aI31873
aI31986
aI31987
aI31989
aI31990
aI31991
aI32000
aI32001
aI32114
aI32119
aI32120
aI32121
aI32128
aI32165
aI32243
aI32245
aI32246
aI32247
aI32248
aI32256
aI32315
aI32366
aI32372
aI32374
aI32375
aI32376
aI32377
aI32378
aI32379
aI32380
aI32384
aI32385
aI32417
aI32418
aI32448
aI32451
aI32454
aI32456
aI32473
aI32500
aI32502
aI32505
aI32506
aI32508
aI32512
aI32513
aI32581
aI32624
aI32633
aI32634
aI32635
aI32640
aI32641
aI32761
aI32762
aI32764
aI32765
aI32766
aa(lp8
I121
aI124
aI125
aI126
aI127
aI253
aI254
aI255
aI378
aI382
aI383
aI511
aI639
aI16385
aI16386
aI16388
aI16390
aI16391
aI16393
aI16394
aI16395
aI16403
aI16512
aI16514
aI16515
aI16516
aI16517
aI16518
aI16519
aI16520
aI16522
aI16527
aI16533
aI16640
aI16641
aI16642
aI16645
aI16646
aI16647
aI16648
aI16650
aI16651
aI16652
aI16653
aI16654
aI16656
aI16659
aI16687
aI16700
aI16701
aI16768
aI16769
aI16770
aI16771
aI16772
aI16773
aI16776
aI16781
aI16782
aI16812
aI16831
aI16896
aI16897
aI16898
aI16900
aI16901
aI16902
aI16903
aI16905
aI16906
aI16907
aI16908
aI16909
aI16912
aI16925
aI16926
aI16927
aI16932
aI16939
aI16940
aI16943
aI16946
aI16958
aI16959
aI16974
aI17024
aI17025
aI17026
aI17027
aI17028
aI17029
aI17030
aI17033
aI17034
aI17035
aI17036
aI17037
aI17062
aI17071
aI17072
aI17091
aI17092
aI17093
aI17095
aI17101
aI17109
aI17152
aI17153
aI17155
aI17156
aI17157
aI17158
aI17159
aI17160
aI17162
aI17163
aI17164
aI17199
aI17200
aI17208
aI17213
aI17221
aI17223
aI17226
aI17227
aI17228
aI17229
aI17281
aI17284
aI17285
aI17286
aI17287
aI17288
aI17289
aI17290
aI17291
aI17292
aI17293
aI17294
aI17296
aI17299
aI17300
aI17305
aI17308
aI17309
aI17317
aI17327
aI17335
aI17336
aI17339
aI17342
aI17343
aI17348
aI17351
aI17355
aI17357
aI17358
aI17359
aI17361
aI17362
aI17410
aI17411
aI17412
aI17413
aI17414
aI17415
aI17416
aI17418
aI17419
aI17420
aI17421
aI17422
aI17423
aI17435
aI17455
aI17465
aI17470
aI17472
aI17474
aI17475
aI17476
aI17477
aI17478
aI17480
aI17484
aI17485
aI17486
aI17488
aI17537
aI17538
aI17539
aI17540
aI17541
aI17542
aI17545
aI17547
aI17548
aI17549
aI17551
aI17555
aI17558
aI17573
aI17589
aI17591
aI17593
aI17594
aI17597
aI17598
aI17600
aI17601
aI17602
aI17603
aI17604
aI17606
aI17608
aI17609
aI17612
aI17614
aI17664
aI17665
aI17666
aI17667
aI17668
aI17670
aI17672
aI17673
aI17674
aI17676
aI17677
aI17678
aI17679
aI17685
aI17686
aI17687
aI17715
aI17716
aI17717
aI17719
aI17722
aI17723
aI17724
aI17727
aI17730
aI17731
aI17736
aI17737
aI17740
aI17742
aI17744
aI17745
aI17746
aI17796
aI17797
aI17800
aI17802
aI17803
aI17804
aI17805
aI17806
aI17807
aI17834
aI17835
aI17843
aI17845
aI17847
aI17848
aI17852
aI17854
aI17855
aI17856
aI17857
aI17858
aI17859
aI17861
aI17862
aI17864
aI17865
aI17867
aI17868
aI17869
aI17870
aI17871
aI17872
aI17874
aI17876
aI17880
aI17886
aI17921
aI17922
aI17923
aI17924
aI17925
aI17926
aI17927
aI17929
aI17933
aI17934
aI17937
aI17971
aI17972
aI17973
aI17974
aI17981
aI17982
aI17983
aI17984
aI17985
aI17986
aI17987
aI17988
aI17989
aI17990
aI17991
aI17992
aI17993
aI17997
aI17998
aI17999
aI18001
aI18002
aI18004
aI18005
aI18049
aI18052
aI18053
aI18055
aI18056
aI18058
aI18061
aI18062
aI18065
aI18066
aI18076
aI18079
aI18101
aI18103
aI18104
aI18106
aI18109
aI18110
aI18111
aI18112
aI18113
aI18115
aI18117
aI18118
aI18119
aI18120
aI18121
aI18122
aI18123
aI18124
aI18125
aI18127
aI18128
aI18131
aI18132
aI18143
aI18179
aI18180
aI18181
aI18182
aI18183
aI18184
aI18185
aI18186
aI18192
aI18223
aI18227
aI18228
aI18229
aI18234
aI18235
aI18236
aI18237
aI18238
aI18239
aI18241
aI18242
aI18243
aI18245
aI18246
aI18248
aI18249
aI18250
aI18251
aI18253
aI18255
aI18256
aI18259
aI18305
aI18306
aI18307
aI18308
aI18309
aI18310
aI18311
aI18312
aI18313
aI18314
aI18319
aI18320
aI18337
aI18340
aI18353
aI18354
aI18355
aI18356
aI18357
aI18358
aI18359
aI18360
aI18361
aI18364
aI18365
aI18366
aI18368
aI18369
aI18371
aI18372
aI18373
aI18374
aI18375
aI18378
aI18379
aI18380
aI18381
aI18384
aI18385
aI18386
aI18387
aI18388
aI18389
aI18390
aI18391
aI18392
aI18434
aI18435
aI18436
aI18437
aI18438
aI18439
aI18440
aI18442
aI18446
aI18447
aI18448
aI18451
aI18471
aI18472
aI18479
aI18480
aI18481
aI18482
aI18483
aI18484
aI18485
aI18486
aI18487
aI18488
aI18489
aI18490
aI18491
aI18492
aI18493
aI18494
aI18495
aI18497
aI18498
aI18499
aI18500
aI18501
aI18504
aI18505
aI18506
aI18507
aI18509
aI18510
aI18511
aI18512
aI18513
aI18515
aI18517
aI18518
aI18519
aI18520
aI18521
aI18522
aI18524
aI18525
aI18560
aI18561
aI18564
aI18565
aI18566
aI18567
aI18568
aI18570
aI18572
aI18573
aI18574
aI18579
aI18598
aI18599
aI18600
aI18603
aI18609
aI18610
aI18611
aI18612
aI18613
aI18614
aI18615
aI18616
aI18617
aI18618
aI18619
aI18620
aI18621
aI18623
aI18624
aI18625
aI18626
aI18628
aI18629
aI18630
aI18632
aI18633
aI18635
aI18636
aI18637
aI18638
aI18639
aI18641
aI18642
aI18643
aI18644
aI18645
aI18646
aI18647
aI18649
aI18650
aI18652
aI18689
aI18690
aI18691
aI18692
aI18693
aI18694
aI18695
aI18696
aI18698
aI18700
aI18701
aI18702
aI18708
aI18728
aI18729
aI18735
aI18736
aI18737
aI18738
aI18739
aI18740
aI18741
aI18742
aI18743
aI18744
aI18745
aI18747
aI18748
aI18749
aI18752
aI18753
aI18754
aI18756
aI18759
aI18760
aI18761
aI18764
aI18765
aI18767
aI18768
aI18769
aI18770
aI18772
aI18773
aI18774
aI18775
aI18778
aI18779
aI18780
aI18781
aI18817
aI18818
aI18819
aI18820
aI18821
aI18822
aI18823
aI18824
aI18825
aI18827
aI18841
aI18842
aI18852
aI18865
aI18867
aI18868
aI18869
aI18870
aI18871
aI18872
aI18873
aI18876
aI18877
aI18879
aI18880
aI18881
aI18882
aI18883
aI18886
aI18888
aI18889
aI18892
aI18893
aI18894
aI18895
aI18896
aI18897
aI18898
aI18899
aI18900
aI18901
aI18902
aI18903
aI18905
aI18907
aI18944
aI18945
aI18946
aI18947
aI18948
aI18949
aI18950
aI18951
aI18952
aI18953
aI18954
aI18955
aI18956
aI18957
aI18958
aI18959
aI18968
aI18982
aI18983
aI18985
aI18991
aI18992
aI18993
aI18994
aI18995
aI18996
aI18997
aI18998
aI18999
aI19000
aI19003
aI19004
aI19005
aI19007
aI19008
aI19013
aI19016
aI19017
aI19018
aI19019
aI19020
aI19021
aI19022
aI19023
aI19024
aI19026
aI19027
aI19028
aI19029
aI19031
aI19034
aI19039
aI19043
aI19072
aI19073
aI19074
aI19075
aI19076
aI19079
aI19081
aI19085
aI19086
aI19087
aI19088
aI19090
aI19097
aI19099
aI19117
aI19122
aI19124
aI19125
aI19126
aI19127
aI19128
aI19129
aI19133
aI19134
aI19135
aI19137
aI19139
aI19142
aI19147
aI19148
aI19149
aI19151
aI19152
aI19154
aI19155
aI19157
aI19158
aI19159
aI19160
aI19161
aI19162
aI19163
aI19165
aI19166
aI19173
aI19202
aI19204
aI19205
aI19206
aI19209
aI19211
aI19212
aI19214
aI19217
aI19219
aI19220
aI19226
aI19245
aI19249
aI19250
aI19254
aI19255
aI19257
aI19261
aI19263
aI19264
aI19265
aI19266
aI19267
aI19268
aI19269
aI19270
aI19271
aI19272
aI19273
aI19274
aI19275
aI19277
aI19279
aI19280
aI19281
aI19282
aI19283
aI19285
aI19286
aI19288
aI19293
aI19294
aI19303
aI19328
aI19329
aI19330
aI19331
aI19334
aI19335
aI19336
aI19337
aI19338
aI19339
aI19341
aI19342
aI19343
aI19344
aI19345
aI19346
aI19351
aI19352
aI19362
aI19369
aI19373
aI19374
aI19377
aI19378
aI19379
aI19380
aI19382
aI19384
aI19385
aI19386
aI19387
aI19388
aI19389
aI19391
aI19392
aI19393
aI19395
aI19396
aI19397
aI19400
aI19405
aI19406
aI19407
aI19408
aI19409
aI19410
aI19413
aI19414
aI19415
aI19416
aI19418
aI19419
aI19421
aI19424
aI19425
aI19456
aI19459
aI19461
aI19463
aI19464
aI19466
aI19467
aI19468
aI19469
aI19470
aI19471
aI19472
aI19473
aI19474
aI19477
aI19478
aI19482
aI19483
aI19484
aI19496
aI19498
aI19499
aI19502
aI19503
aI19504
aI19506
aI19507
aI19508
aI19509
aI19510
aI19512
aI19515
aI19516
aI19518
aI19519
aI19521
aI19522
aI19523
aI19526
aI19527
aI19529
aI19530
aI19532
aI19533
aI19534
aI19535
aI19536
aI19537
aI19538
aI19539
aI19540
aI19548
aI19549
aI19550
aI19554
aI19584
aI19590
aI19591
aI19592
aI19593
aI19594
aI19595
aI19596
aI19600
aI19601
aI19602
aI19604
aI19605
aI19606
aI19608
aI19609
aI19610
aI19611
aI19612
aI19624
aI19626
aI19628
aI19629
aI19630
aI19632
aI19634
aI19635
aI19637
aI19638
aI19639
aI19640
aI19642
aI19644
aI19646
aI19647
aI19649
aI19650
aI19651
aI19654
aI19660
aI19661
aI19662
aI19663
aI19664
aI19665
aI19666
aI19667
aI19668
aI19670
aI19673
aI19676
aI19677
aI19681
aI19687
aI19713
aI19717
aI19718
aI19719
aI19723
aI19727
aI19728
aI19729
aI19730
aI19731
aI19732
aI19734
aI19735
aI19737
aI19739
aI19741
aI19742
aI19743
aI19748
aI19755
aI19756
aI19757
aI19759
aI19761
aI19762
aI19763
aI19765
aI19767
aI19768
aI19769
aI19771
aI19772
aI19773
aI19774
aI19775
aI19776
aI19777
aI19780
aI19786
aI19787
aI19790
aI19791
aI19792
aI19793
aI19794
aI19795
aI19796
aI19797
aI19798
aI19800
aI19801
aI19805
aI19806
aI19807
aI19808
aI19809
aI19810
aI19843
aI19844
aI19845
aI19846
aI19847
aI19848
aI19850
aI19851
aI19852
aI19853
aI19855
aI19856
aI19857
aI19858
aI19859
aI19860
aI19861
aI19862
aI19863
aI19865
aI19866
aI19867
aI19868
aI19869
aI19870
aI19871
aI19872
aI19875
aI19876
aI19878
aI19879
aI19880
aI19881
aI19882
aI19884
aI19885
aI19887
aI19888
aI19889
aI19890
aI19891
aI19892
aI19893
aI19894
aI19896
aI19897
aI19898
aI19899
aI19900
aI19902
aI19904
aI19910
aI19912
aI19913
aI19915
aI19916
aI19917
aI19921
aI19922
aI19923
aI19924
aI19926
aI19927
aI19928
aI19929
aI19930
aI19931
aI19932
aI19933
aI19934
aI19935
aI19936
aI19937
aI19968
aI19971
aI19974
aI19975
aI19979
aI19981
aI19982
aI19984
aI19985
aI19986
aI19987
aI19988
aI19989
aI19992
aI19993
aI19994
aI19995
aI19998
aI19999
aI20000
aI20002
aI20003
aI20004
aI20006
aI20008
aI20009
aI20010
aI20011
aI20012
aI20014
aI20015
aI20017
aI20018
aI20019
aI20021
aI20022
aI20029
aI20030
aI20031
aI20034
aI20035
aI20040
aI20041
aI20042
aI20043
aI20044
aI20045
aI20049
aI20050
aI20052
aI20053
aI20054
aI20055
aI20056
aI20057
aI20058
aI20059
aI20060
aI20061
aI20062
aI20064
aI20065
aI20066
aI20067
aI20096
aI20099
aI20103
aI20110
aI20112
aI20113
aI20114
aI20115
aI20116
aI20119
aI20120
aI20121
aI20122
aI20123
aI20124
aI20126
aI20127
aI20128
aI20129
aI20130
aI20132
aI20133
aI20135
aI20136
aI20137
aI20138
aI20139
aI20140
aI20141
aI20142
aI20153
aI20154
aI20155
aI20156
aI20157
aI20158
aI20159
aI20171
aI20172
aI20177
aI20179
aI20180
aI20181
aI20182
aI20183
aI20184
aI20185
aI20186
aI20187
aI20188
aI20189
aI20190
aI20192
aI20194
aI20195
aI20198
aI20201
aI20224
aI20227
aI20229
aI20239
aI20240
aI20241
aI20242
aI20243
aI20244
aI20245
aI20246
aI20247
aI20248
aI20250
aI20252
aI20253
aI20254
aI20255
aI20256
aI20257
aI20258
aI20259
aI20260
aI20261
aI20262
aI20264
aI20265
aI20267
aI20269
aI20270
aI20271
aI20272
aI20275
aI20276
aI20278
aI20280
aI20281
aI20284
aI20286
aI20287
aI20291
aI20294
aI20295
aI20296
aI20297
aI20303
aI20305
aI20306
aI20307
aI20308
aI20309
aI20310
aI20311
aI20312
aI20313
aI20316
aI20317
aI20318
aI20319
aI20320
aI20321
aI20322
aI20323
aI20325
aI20326
aI20355
aI20356
aI20357
aI20358
aI20359
aI20360
aI20361
aI20366
aI20367
aI20368
aI20370
aI20371
aI20372
aI20373
aI20374
aI20376
aI20377
aI20378
aI20379
aI20380
aI20387
aI20388
aI20389
aI20391
aI20393
aI20394
aI20395
aI20396
aI20397
aI20398
aI20399
aI20401
aI20402
aI20404
aI20407
aI20408
aI20409
aI20411
aI20416
aI20417
aI20419
aI20420
aI20421
aI20422
aI20423
aI20424
aI20425
aI20427
aI20428
aI20429
aI20431
aI20433
aI20434
aI20435
aI20436
aI20437
aI20439
aI20440
aI20441
aI20442
aI20443
aI20444
aI20445
aI20446
aI20447
aI20448
aI20455
aI20456
aI20480
aI20481
aI20483
aI20484
aI20485
aI20486
aI20487
aI20492
aI20493
aI20494
aI20496
aI20497
aI20498
aI20500
aI20501
aI20502
aI20503
aI20506
aI20507
aI20508
aI20509
aI20510
aI20511
aI20512
aI20514
aI20515
aI20516
aI20518
aI20519
aI20520
aI20522
aI20525
aI20526
aI20527
aI20528
aI20529
aI20530
aI20531
aI20532
aI20533
aI20534
aI20535
aI20536
aI20537
aI20538
aI20543
aI20544
aI20545
aI20546
aI20547
aI20548
aI20549
aI20550
aI20552
aI20553
aI20554
aI20556
aI20558
aI20560
aI20561
aI20563
aI20564
aI20565
aI20566
aI20567
aI20568
aI20569
aI20570
aI20571
aI20572
aI20573
aI20574
aI20577
aI20579
aI20580
aI20582
aI20586
aI20587
aI20588
aI20608
aI20613
aI20614
aI20620
aI20621
aI20622
aI20624
aI20625
aI20626
aI20629
aI20630
aI20631
aI20632
aI20633
aI20634
aI20635
aI20636
aI20637
aI20638
aI20639
aI20640
aI20642
aI20643
aI20644
aI20648
aI20649
aI20650
aI20651
aI20652
aI20653
aI20654
aI20655
aI20656
aI20657
aI20658
aI20661
aI20662
aI20663
aI20664
aI20665
aI20666
aI20667
aI20669
aI20670
aI20671
aI20672
aI20673
aI20674
aI20675
aI20677
aI20678
aI20682
aI20684
aI20685
aI20686
aI20687
aI20689
aI20691
aI20692
aI20695
aI20696
aI20697
aI20698
aI20699
aI20700
aI20701
aI20703
aI20704
aI20705
aI20706
aI20707
aI20712
aI20715
aI20716
aI20719
aI20736
aI20737
aI20739
aI20741
aI20742
aI20743
aI20744
aI20746
aI20747
aI20748
aI20753
aI20756
aI20758
aI20759
aI20760
aI20761
aI20762
aI20763
aI20764
aI20766
aI20767
aI20768
aI20771
aI20772
aI20773
aI20774
aI20775
aI20779
aI20781
aI20782
aI20784
aI20785
aI20786
aI20787
aI20791
aI20792
aI20793
aI20794
aI20795
aI20797
aI20798
aI20799
aI20800
aI20802
aI20803
aI20804
aI20805
aI20806
aI20811
aI20814
aI20815
aI20816
aI20817
aI20818
aI20819
aI20823
aI20824
aI20825
aI20830
aI20831
aI20833
aI20834
aI20841
aI20864
aI20866
aI20868
aI20870
aI20877
aI20881
aI20883
aI20884
aI20885
aI20887
aI20888
aI20890
aI20891
aI20893
aI20894
aI20895
aI20896
aI20899
aI20900
aI20901
aI20902
aI20903
aI20904
aI20906
aI20907
aI20908
aI20910
aI20911
aI20912
aI20913
aI20914
aI20915
aI20916
aI20919
aI20920
aI20921
aI20923
aI20924
aI20925
aI20926
aI20928
aI20929
aI20930
aI20931
aI20934
aI20936
aI20937
aI20938
aI20939
aI20941
aI20942
aI20943
aI20944
aI20945
aI20946
aI20947
aI20948
aI20949
aI20950
aI20951
aI20952
aI20953
aI20955
aI20956
aI20957
aI20959
aI20962
aI20963
aI20966
aI20969
aI20970
aI20971
aI20992
aI20995
aI20996
aI20997
aI20998
aI21000
aI21004
aI21005
aI21006
aI21007
aI21008
aI21009
aI21010
aI21012
aI21013
aI21016
aI21019
aI21021
aI21022
aI21023
aI21024
aI21025
aI21026
aI21027
aI21028
aI21030
aI21032
aI21033
aI21035
aI21036
aI21037
aI21038
aI21039
aI21040
aI21041
aI21042
aI21045
aI21046
aI21047
aI21048
aI21049
aI21051
aI21053
aI21054
aI21055
aI21056
aI21057
aI21059
aI21060
aI21061
aI21066
aI21067
aI21069
aI21070
aI21072
aI21074
aI21075
aI21079
aI21080
aI21081
aI21083
aI21084
aI21085
aI21086
aI21087
aI21088
aI21089
aI21090
aI21091
aI21094
aI21095
aI21098
aI21099
aI21120
aI21122
aI21125
aI21127
aI21128
aI21129
aI21132
aI21138
aI21140
aI21141
aI21142
aI21145
aI21147
aI21148
aI21149
aI21150
aI21151
aI21152
aI21154
aI21155
aI21156
aI21158
aI21159
aI21161
aI21162
aI21163
aI21167
aI21168
aI21169
aI21170
aI21173
aI21175
aI21176
aI21177
aI21178
aI21179
aI21180
aI21181
aI21182
aI21183
aI21184
aI21185
aI21186
aI21190
aI21191
aI21192
aI21193
aI21196
aI21197
aI21198
aI21199
aI21200
aI21202
aI21203
aI21204
aI21207
aI21208
aI21209
aI21210
aI21211
aI21212
aI21213
aI21214
aI21215
aI21216
aI21218
aI21220
aI21221
aI21222
aI21224
aI21225
aI21226
aI21227
aI21228
aI21229
aI21230
aI21232
aI21237
aI21239
aI21240
aI21241
aI21242
aI21252
aI21253
aI21254
aI21255
aI21256
aI21257
aI21261
aI21262
aI21264
aI21269
aI21270
aI21272
aI21273
aI21277
aI21278
aI21279
aI21280
aI21281
aI21282
aI21283
aI21285
aI21286
aI21287
aI21288
aI21291
aI21292
aI21293
aI21295
aI21296
aI21297
aI21298
aI21299
aI21300
aI21301
aI21302
aI21304
aI21306
aI21307
aI21308
aI21309
aI21310
aI21311
aI21313
aI21316
aI21317
aI21318
aI21319
aI21321
aI21322
aI21324
aI21326
aI21327
aI21328
aI21329
aI21330
aI21331
aI21332
aI21333
aI21335
aI21336
aI21339
aI21340
aI21341
aI21343
aI21344
aI21348
aI21349
aI21350
aI21351
aI21352
aI21354
aI21355
aI21356
aI21357
aI21358
aI21359
aI21360
aI21372
aI21379
aI21382
aI21383
aI21384
aI21385
aI21386
aI21387
aI21388
aI21389
aI21390
aI21391
aI21392
aI21393
aI21394
aI21395
aI21397
aI21399
aI21400
aI21401
aI21402
aI21403
aI21404
aI21405
aI21406
aI21408
aI21409
aI21410
aI21411
aI21412
aI21413
aI21414
aI21415
aI21418
aI21419
aI21420
aI21421
aI21423
aI21424
aI21427
aI21428
aI21429
aI21430
aI21431
aI21432
aI21433
aI21434
aI21435
aI21436
aI21437
aI21438
aI21439
aI21440
aI21441
aI21442
aI21445
aI21448
aI21449
aI21450
aI21451
aI21453
aI21454
aI21455
aI21456
aI21458
aI21460
aI21462
aI21463
aI21464
aI21465
aI21466
aI21467
aI21469
aI21470
aI21471
aI21473
aI21474
aI21475
aI21478
aI21480
aI21481
aI21483
aI21485
aI21491
aI21492
aI21493
aI21496
aI21502
aI21503
aI21504
aI21505
aI21506
aI21507
aI21510
aI21511
aI21513
aI21514
aI21515
aI21516
aI21517
aI21518
aI21519
aI21520
aI21521
aI21522
aI21523
aI21524
aI21526
aI21527
aI21528
aI21529
aI21530
aI21533
aI21534
aI21535
aI21536
aI21537
aI21538
aI21539
aI21540
aI21541
aI21542
aI21544
aI21545
aI21546
aI21547
aI21548
aI21549
aI21550
aI21551
aI21552
aI21553
aI21554
aI21555
aI21556
aI21557
aI21558
aI21559
aI21560
aI21561
aI21562
aI21563
aI21564
aI21565
aI21566
aI21567
aI21568
aI21569
aI21570
aI21571
aI21572
aI21573
aI21574
aI21575
aI21576
aI21578
aI21579
aI21580
aI21581
aI21582
aI21583
aI21584
aI21585
aI21586
aI21587
aI21588
aI21589
aI21590
aI21591
aI21592
aI21594
aI21597
aI21599
aI21601
aI21602
aI21603
aI21604
aI21606
aI21607
aI21608
aI21610
aI21611
aI21612
aI21615
aI21616
aI21617
aI21621
aI21626
aI21627
aI21632
aI21634
aI21635
aI21638
aI21639
aI21640
aI21641
aI21642
aI21643
aI21644
aI21647
aI21648
aI21649
aI21650
aI21652
aI21654
aI21655
aI21656
aI21657
aI21658
aI21662
aI21664
aI21665
aI21667
aI21670
aI21671
aI21672
aI21673
aI21674
aI21675
aI21676
aI21677
aI21678
aI21679
aI21680
aI21681
aI21682
aI21683
aI21684
aI21685
aI21687
aI21688
aI21689
aI21690
aI21691
aI21692
aI21693
aI21694
aI21695
aI21696
aI21697
aI21698
aI21699
aI21701
aI21702
aI21703
aI21704
aI21706
aI21707
aI21708
aI21709
aI21710
aI21711
aI21712
aI21713
aI21714
aI21715
aI21716
aI21717
aI21718
aI21719
aI21720
aI21722
aI21723
aI21725
aI21726
aI21729
aI21731
aI21732
aI21733
aI21734
aI21738
aI21740
aI21741
aI21742
aI21743
aI21744
aI21745
aI21747
aI21748
aI21749
aI21750
aI21752
aI21754
aI21755
aI21756
aI21763
aI21764
aI21765
aI21766
aI21768
aI21769
aI21770
aI21771
aI21775
aI21776
aI21777
aI21779
aI21780
aI21781
aI21782
aI21783
aI21784
aI21785
aI21786
aI21787
aI21789
aI21790
aI21791
aI21792
aI21794
aI21795
aI21796
aI21797
aI21798
aI21799
aI21800
aI21801
aI21802
aI21803
aI21804
aI21805
aI21806
aI21807
aI21811
aI21812
aI21814
aI21816
aI21823
aI21826
aI21827
aI21828
aI21829
aI21830
aI21832
aI21833
aI21834
aI21835
aI21836
aI21837
aI21838
aI21839
aI21840
aI21841
aI21842
aI21845
aI21846
aI21847
aI21849
aI21850
aI21851
aI21852
aI21853
aI21856
aI21858
aI21859
aI21860
aI21861
aI21862
aI21863
aI21864
aI21865
aI21868
aI21869
aI21873
aI21876
aI21877
aI21880
aI21882
aI21889
aI21890
aI21896
aI21897
aI21898
aI21899
aI21900
aI21902
aI21903
aI21904
aI21905
aI21906
aI21907
aI21908
aI21910
aI21911
aI21912
aI21913
aI21914
aI21915
aI21917
aI21919
aI21920
aI21921
aI21923
aI21924
aI21925
aI21926
aI21927
aI21930
aI21931
aI21932
aI21934
aI21940
aI21946
aI21948
aI21949
aI21950
aI21951
aI21953
aI21954
aI21955
aI21958
aI21959
aI21962
aI21963
aI21964
aI21966
aI21967
aI21968
aI21970
aI21971
aI21973
aI21974
aI21975
aI21976
aI21977
aI21978
aI21980
aI21981
aI21982
aI21983
aI21984
aI21989
aI21990
aI21991
aI21992
aI21993
aI21994
aI21995
aI21996
aI21997
aI21998
aI21999
aI22000
aI22002
aI22003
aI22004
aI22005
aI22006
aI22008
aI22014
aI22015
aI22020
aI22023
aI22025
aI22026
aI22027
aI22028
aI22029
aI22030
aI22031
aI22032
aI22034
aI22035
aI22037
aI22038
aI22039
aI22040
aI22041
aI22042
aI22044
aI22045
aI22046
aI22047
aI22051
aI22052
aI22053
aI22054
aI22055
aI22057
aI22058
aI22059
aI22060
aI22061
aI22070
aI22071
aI22072
aI22073
aI22074
aI22075
aI22077
aI22078
aI22081
aI22082
aI22083
aI22084
aI22085
aI22086
aI22087
aI22089
aI22091
aI22092
aI22093
aI22095
aI22096
aI22097
aI22098
aI22099
aI22101
aI22102
aI22104
aI22105
aI22106
aI22107
aI22109
aI22110
aI22111
aI22114
aI22115
aI22116
aI22118
aI22119
aI22120
aI22121
aI22123
aI22124
aI22125
aI22130
aI22131
aI22132
aI22133
aI22135
aI22138
aI22141
aI22142
aI22143
aI22145
aI22146
aI22147
aI22148
aI22149
aI22151
aI22152
aI22153
aI22154
aI22155
aI22156
aI22160
aI22162
aI22163
aI22164
aI22165
aI22167
aI22168
aI22169
aI22170
aI22171
aI22172
aI22173
aI22176
aI22177
aI22178
aI22179
aI22180
aI22181
aI22182
aI22183
aI22184
aI22185
aI22186
aI22187
aI22190
aI22192
aI22194
aI22197
aI22199
aI22200
aI22201
aI22202
aI22203
aI22206
aI22208
aI22209
aI22211
aI22212
aI22213
aI22215
aI22217
aI22218
aI22219
aI22221
aI22222
aI22223
aI22224
aI22225
aI22226
aI22227
aI22228
aI22229
aI22233
aI22235
aI22237
aI22238
aI22239
aI22240
aI22241
aI22242
aI22243
aI22244
aI22246
aI22247
aI22249
aI22250
aI22251
aI22252
aI22253
aI22256
aI22257
aI22258
aI22259
aI22260
aI22261
aI22263
aI22264
aI22265
aI22266
aI22267
aI22268
aI22269
aI22270
aI22274
aI22275
aI22276
aI22277
aI22278
aI22279
aI22280
aI22281
aI22282
aI22284
aI22286
aI22288
aI22289
aI22291
aI22293
aI22294
aI22296
aI22297
aI22299
aI22300
aI22301
aI22302
aI22303
aI22304
aI22306
aI22307
aI22309
aI22310
aI22311
aI22313
aI22315
aI22316
aI22317
aI22318
aI22319
aI22327
aI22328
aI22332
aI22333
aI22334
aI22335
aI22336
aI22337
aI22338
aI22340
aI22342
aI22343
aI22344
aI22345
aI22346
aI22347
aI22348
aI22353
aI22354
aI22355
aI22356
aI22357
aI22358
aI22360
aI22361
aI22362
aI22363
aI22364
aI22365
aI22367
aI22368
aI22369
aI22370
aI22371
aI22372
aI22373
aI22374
aI22375
aI22376
aI22378
aI22379
aI22380
aI22381
aI22382
aI22383
aI22385
aI22386
aI22387
aI22388
aI22391
aI22392
aI22393
aI22394
aI22395
aI22396
aI22397
aI22398
aI22399
aI22401
aI22402
aI22404
aI22405
aI22406
aI22409
aI22410
aI22411
aI22412
aI22413
aI22414
aI22415
aI22416
aI22417
aI22418
aI22419
aI22420
aI22421
aI22422
aI22423
aI22424
aI22425
aI22426
aI22427
aI22428
aI22429
aI22430
aI22431
aI22432
aI22433
aI22434
aI22435
aI22436
aI22440
aI22441
aI22442
aI22443
aI22444
aI22445
aI22446
aI22455
aI22456
aI22458
aI22461
aI22463
aI22464
aI22465
aI22466
aI22467
aI22468
aI22469
aI22470
aI22471
aI22473
aI22474
aI22476
aI22477
aI22478
aI22479
aI22480
aI22481
aI22482
aI22483
aI22484
aI22485
aI22487
aI22488
aI22489
aI22490
aI22492
aI22493
aI22494
aI22495
aI22496
aI22497
aI22498
aI22499
aI22501
aI22503
aI22504
aI22507
aI22508
aI22510
aI22511
aI22513
aI22514
aI22515
aI22516
aI22517
aI22518
aI22519
aI22520
aI22521
aI22523
aI22524
aI22525
aI22526
aI22527
aI22529
aI22530
aI22531
aI22532
aI22533
aI22535
aI22536
aI22537
aI22539
aI22541
aI22542
aI22543
aI22544
aI22545
aI22546
aI22551
aI22552
aI22553
aI22555
aI22556
aI22557
aI22558
aI22561
aI22562
aI22564
aI22565
aI22566
aI22567
aI22568
aI22569
aI22570
aI22571
aI22572
aI22573
aI22575
aI22580
aI22584
aI22585
aI22587
aI22588
aI22590
aI22591
aI22592
aI22593
aI22594
aI22595
aI22596
aI22597
aI22598
aI22599
aI22600
aI22601
aI22602
aI22603
aI22605
aI22606
aI22607
aI22608
aI22609
aI22610
aI22611
aI22612
aI22613
aI22616
aI22617
aI22620
aI22622
aI22623
aI22625
aI22626
aI22630
aI22631
aI22632
aI22633
aI22634
aI22636
aI22637
aI22638
aI22639
aI22640
aI22641
aI22643
aI22644
aI22646
aI22647
aI22648
aI22649
aI22650
aI22651
aI22652
aI22653
aI22654
aI22655
aI22657
aI22658
aI22659
aI22660
aI22661
aI22662
aI22664
aI22667
aI22669
aI22671
aI22674
aI22676
aI22679
aI22680
aI22681
aI22682
aI22683
aI22684
aI22685
aI22687
aI22688
aI22689
aI22690
aI22692
aI22693
aI22694
aI22695
aI22696
aI22697
aI22698
aI22699
aI22701
aI22703
aI22713
aI22716
aI22717
aI22718
aI22719
aI22720
aI22723
aI22724
aI22725
aI22726
aI22727
aI22728
aI22729
aI22730
aI22732
aI22733
aI22734
aI22736
aI22740
aI22742
aI22743
aI22744
aI22746
aI22748
aI22749
aI22750
aI22751
aI22753
aI22756
aI22757
aI22758
aI22759
aI22760
aI22761
aI22762
aI22763
aI22764
aI22765
aI22766
aI22767
aI22768
aI22769
aI22771
aI22772
aI22774
aI22776
aI22777
aI22778
aI22779
aI22780
aI22781
aI22782
aI22783
aI22785
aI22786
aI22787
aI22788
aI22789
aI22790
aI22792
aI22793
aI22794
aI22795
aI22796
aI22800
aI22802
aI22804
aI22805
aI22806
aI22808
aI22809
aI22810
aI22811
aI22812
aI22813
aI22814
aI22815
aI22817
aI22818
aI22819
aI22822
aI22823
aI22824
aI22825
aI22826
aI22828
aI22839
aI22851
aI22853
aI22855
aI22857
aI22858
aI22860
aI22862
aI22864
aI22865
aI22866
aI22868
aI22869
aI22870
aI22871
aI22872
aI22873
aI22874
aI22875
aI22876
aI22877
aI22878
aI22879
aI22882
aI22883
aI22884
aI22885
aI22886
aI22888
aI22889
aI22890
aI22891
aI22892
aI22893
aI22894
aI22895
aI22896
aI22897
aI22898
aI22899
aI22900
aI22901
aI22902
aI22903
aI22904
aI22906
aI22908
aI22910
aI22914
aI22916
aI22917
aI22918
aI22920
aI22921
aI22922
aI22927
aI22928
aI22930
aI22935
aI22936
aI22937
aI22939
aI22940
aI22942
aI22943
aI22944
aI22945
aI22946
aI22948
aI22950
aI22951
aI22960
aI22962
aI22965
aI22974
aI22975
aI22979
aI22980
aI22982
aI22983
aI22984
aI22985
aI22986
aI22987
aI22989
aI22991
aI22993
aI22994
aI22997
aI22998
aI22999
aI23000
aI23001
aI23002
aI23006
aI23009
aI23010
aI23011
aI23012
aI23013
aI23014
aI23015
aI23016
aI23018
aI23020
aI23021
aI23022
aI23023
aI23024
aI23025
aI23026
aI23027
aI23028
aI23029
aI23031
aI23032
aI23033
aI23034
aI23035
aI23037
aI23041
aI23042
aI23044
aI23045
aI23049
aI23058
aI23066
aI23067
aI23070
aI23071
aI23074
aI23079
aI23081
aI23082
aI23092
aI23098
aI23100
aI23101
aI23103
aI23106
aI23109
aI23110
aI23111
aI23112
aI23113
aI23114
aI23115
aI23116
aI23117
aI23122
aI23123
aI23126
aI23127
aI23130
aI23132
aI23133
aI23134
aI23136
aI23137
aI23138
aI23140
aI23141
aI23143
aI23144
aI23145
aI23146
aI23148
aI23149
aI23151
aI23152
aI23153
aI23154
aI23155
aI23156
aI23157
aI23158
aI23159
aI23160
aI23161
aI23162
aI23163
aI23164
aI23165
aI23166
aI23167
aI23170
aI23174
aI23191
aI23196
aI23197
aI23199
aI23201
aI23203
aI23204
aI23205
aI23209
aI23212
aI23215
aI23217
aI23230
aI23235
aI23237
aI23238
aI23241
aI23242
aI23243
aI23246
aI23247
aI23251
aI23252
aI23253
aI23254
aI23256
aI23257
aI23258
aI23263
aI23264
aI23265
aI23266
aI23268
aI23269
aI23270
aI23271
aI23274
aI23275
aI23276
aI23277
aI23278
aI23281
aI23282
aI23283
aI23284
aI23287
aI23288
aI23289
aI23290
aI23291
aI23292
aI23295
aI23300
aI23302
aI23325
aI23326
aI23327
aI23328
aI23329
aI23330
aI23334
aI23335
aI23336
aI23342
aI23351
aI23352
aI23363
aI23365
aI23366
aI23367
aI23368
aI23369
aI23376
aI23377
aI23381
aI23392
aI23394
aI23395
aI23396
aI23399
aI23402
aI23404
aI23406
aI23408
aI23409
aI23410
aI23411
aI23412
aI23413
aI23414
aI23415
aI23416
aI23417
aI23421
aI23422
aI23423
aI23425
aI23449
aI23452
aI23454
aI23455
aI23456
aI23457
aI23458
aI23459
aI23460
aI23461
aI23463
aI23464
aI23471
aI23472
aI23491
aI23494
aI23497
aI23499
aI23502
aI23503
aI23504
aI23508
aI23509
aI23516
aI23522
aI23523
aI23524
aI23526
aI23529
aI23530
aI23531
aI23532
aI23535
aI23536
aI23537
aI23538
aI23539
aI23540
aI23541
aI23542
aI23543
aI23544
aI23545
aI23548
aI23549
aI23550
aI23551
aI23583
aI23584
aI23586
aI23587
aI23589
aI23592
aI23595
aI23619
aI23620
aI23621
aI23624
aI23638
aI23639
aI23648
aI23653
aI23654
aI23655
aI23656
aI23657
aI23659
aI23663
aI23664
aI23665
aI23666
aI23667
aI23669
aI23670
aI23671
aI23673
aI23677
aI23678
aI23684
aI23685
aI23711
aI23712
aI23713
aI23714
aI23715
aI23718
aI23719
aI23721
aI23722
aI23723
aI23724
aI23747
aI23748
aI23749
aI23750
aI23751
aI23755
aI23758
aI23760
aI23764
aI23766
aI23767
aI23769
aI23770
aI23773
aI23776
aI23777
aI23778
aI23779
aI23780
aI23781
aI23787
aI23792
aI23793
aI23794
aI23796
aI23798
aI23799
aI23801
aI23802
aI23803
aI23804
aI23805
aI23806
aI23810
aI23839
aI23841
aI23842
aI23844
aI23845
aI23846
aI23847
aI23848
aI23849
aI23850
aI23858
aI23871
aI23876
aI23877
aI23878
aI23879
aI23880
aI23893
aI23894
aI23898
aI23899
aI23900
aI23906
aI23909
aI23911
aI23921
aI23922
aI23924
aI23925
aI23929
aI23930
aI23931
aI23937
aI23967
aI23969
aI23970
aI23971
aI23972
aI23974
aI23976
aI23977
aI24004
aI24007
aI24008
aI24010
aI24011
aI24012
aI24016
aI24026
aI24027
aI24032
aI24034
aI24035
aI24038
aI24039
aI24041
aI24047
aI24048
aI24049
aI24050
aI24051
aI24052
aI24053
aI24054
aI24055
aI24056
aI24057
aI24058
aI24060
aI24061
aI24063
aI24066
aI24093
aI24094
aI24096
aI24097
aI24099
aI24101
aI24104
aI24105
aI24109
aI24113
aI24121
aI24131
aI24132
aI24133
aI24134
aI24135
aI24136
aI24138
aI24139
aI24140
aI24145
aI24146
aI24152
aI24153
aI24154
aI24155
aI24156
aI24161
aI24162
aI24163
aI24166
aI24169
aI24170
aI24171
aI24176
aI24179
aI24180
aI24182
aI24183
aI24188
aI24227
aI24228
aI24229
aI24230
aI24232
aI24233
aI24234
aI24237
aI24238
aI24254
aI24256
aI24257
aI24258
aI24260
aI24261
aI24262
aI24267
aI24270
aI24273
aI24274
aI24275
aI24278
aI24279
aI24280
aI24281
aI24282
aI24289
aI24290
aI24291
aI24292
aI24297
aI24298
aI24299
aI24300
aI24301
aI24303
aI24305
aI24307
aI24308
aI24309
aI24310
aI24311
aI24312
aI24313
aI24315
aI24316
aI24319
aI24353
aI24354
aI24355
aI24356
aI24357
aI24358
aI24359
aI24360
aI24361
aI24362
aI24369
aI24384
aI24385
aI24386
aI24387
aI24388
aI24390
aI24393
aI24394
aI24396
aI24397
aI24400
aI24401
aI24404
aI24409
aI24411
aI24414
aI24418
aI24419
aI24420
aI24421
aI24423
aI24425
aI24427
aI24428
aI24429
aI24430
aI24431
aI24433
aI24434
aI24435
aI24436
aI24437
aI24440
aI24441
aI24442
aI24443
aI24444
aI24451
aI24483
aI24484
aI24485
aI24486
aI24488
aI24489
aI24514
aI24515
aI24516
aI24518
aI24520
aI24521
aI24522
aI24523
aI24525
aI24527
aI24529
aI24530
aI24532
aI24533
aI24537
aI24538
aI24539
aI24540
aI24547
aI24548
aI24549
aI24550
aI24552
aI24554
aI24555
aI24556
aI24557
aI24559
aI24561
aI24564
aI24568
aI24570
aI24571
aI24572
aI24573
aI24574
aI24611
aI24612
aI24613
aI24614
aI24615
aI24620
aI24641
aI24644
aI24649
aI24650
aI24651
aI24659
aI24660
aI24661
aI24662
aI24663
aI24668
aI24669
aI24670
aI24671
aI24673
aI24674
aI24675
aI24677
aI24678
aI24679
aI24681
aI24684
aI24685
aI24686
aI24687
aI24688
aI24690
aI24691
aI24692
aI24693
aI24694
aI24695
aI24696
aI24699
aI24702
aI24703
aI24737
aI24739
aI24740
aI24741
aI24742
aI24743
aI24748
aI24769
aI24771
aI24772
aI24773
aI24777
aI24778
aI24779
aI24781
aI24788
aI24789
aI24793
aI24796
aI24797
aI24798
aI24799
aI24801
aI24802
aI24803
aI24805
aI24806
aI24807
aI24809
aI24811
aI24812
aI24813
aI24815
aI24816
aI24817
aI24818
aI24820
aI24821
aI24822
aI24823
aI24824
aI24826
aI24827
aI24829
aI24830
aI24834
aI24864
aI24868
aI24869
aI24870
aI24871
aI24873
aI24874
aI24877
aI24900
aI24902
aI24903
aI24905
aI24906
aI24907
aI24908
aI24910
aI24911
aI24912
aI24913
aI24914
aI24918
aI24919
aI24920
aI24922
aI24923
aI24925
aI24926
aI24927
aI24928
aI24929
aI24930
aI24934
aI24936
aI24937
aI24938
aI24939
aI24940
aI24941
aI24942
aI24943
aI24944
aI24945
aI24946
aI24947
aI24948
aI24949
aI24950
aI24951
aI24953
aI24962
aI24996
aI24997
aI24998
aI24999
aI25027
aI25028
aI25029
aI25030
aI25031
aI25032
aI25033
aI25035
aI25036
aI25038
aI25040
aI25041
aI25042
aI25044
aI25046
aI25047
aI25048
aI25049
aI25052
aI25053
aI25055
aI25060
aI25062
aI25063
aI25066
aI25067
aI25069
aI25070
aI25071
aI25072
aI25073
aI25074
aI25075
aI25078
aI25124
aI25125
aI25126
aI25127
aI25129
aI25150
aI25155
aI25156
aI25157
aI25158
aI25159
aI25160
aI25161
aI25164
aI25166
aI25167
aI25169
aI25170
aI25171
aI25172
aI25175
aI25177
aI25178
aI25179
aI25180
aI25181
aI25182
aI25183
aI25185
aI25186
aI25187
aI25188
aI25189
aI25191
aI25192
aI25193
aI25194
aI25195
aI25197
aI25198
aI25200
aI25201
aI25202
aI25208
aI25210
aI25211
aI25215
aI25217
aI25218
aI25219
aI25250
aI25252
aI25253
aI25255
aI25256
aI25258
aI25259
aI25283
aI25285
aI25286
aI25288
aI25289
aI25290
aI25291
aI25292
aI25293
aI25297
aI25298
aI25299
aI25300
aI25305
aI25306
aI25308
aI25312
aI25314
aI25315
aI25316
aI25317
aI25319
aI25321
aI25323
aI25324
aI25325
aI25326
aI25327
aI25328
aI25329
aI25330
aI25335
aI25336
aI25337
aI25338
aI25340
aI25342
aI25343
aI25345
aI25346
aI25347
aI25349
aI25377
aI25378
aI25379
aI25380
aI25381
aI25386
aI25408
aI25409
aI25411
aI25414
aI25415
aI25419
aI25420
aI25421
aI25424
aI25426
aI25427
aI25428
aI25429
aI25430
aI25431
aI25432
aI25433
aI25434
aI25435
aI25437
aI25438
aI25439
aI25440
aI25441
aI25442
aI25443
aI25444
aI25446
aI25447
aI25449
aI25451
aI25452
aI25454
aI25455
aI25456
aI25457
aI25458
aI25463
aI25464
aI25465
aI25468
aI25473
aI25474
aI25475
aI25476
aI25477
aI25488
aI25497
aI25499
aI25504
aI25506
aI25507
aI25508
aI25510
aI25512
aI25542
aI25547
aI25548
aI25550
aI25551
aI25552
aI25554
aI25555
aI25556
aI25557
aI25558
aI25559
aI25560
aI25561
aI25562
aI25565
aI25567
aI25568
aI25569
aI25572
aI25573
aI25574
aI25575
aI25576
aI25580
aI25581
aI25583
aI25584
aI25586
aI25592
aI25593
aI25601
aI25602
aI25603
aI25604
aI25605
aI25606
aI25608
aI25609
aI25610
aI25612
aI25628
aI25632
aI25636
aI25638
aI25639
aI25640
aI25675
aI25676
aI25678
aI25679
aI25680
aI25683
aI25689
aI25690
aI25691
aI25694
aI25696
aI25697
aI25698
aI25699
aI25701
aI25703
aI25704
aI25706
aI25707
aI25708
aI25709
aI25710
aI25711
aI25712
aI25713
aI25714
aI25718
aI25724
aI25730
aI25731
aI25732
aI25733
aI25734
aI25735
aI25736
aI25737
aI25738
aI25739
aI25740
aI25746
aI25748
aI25749
aI25750
aI25759
aI25760
aI25761
aI25762
aI25766
aI25767
aI25768
aI25769
aI25803
aI25807
aI25811
aI25812
aI25813
aI25817
aI25818
aI25819
aI25820
aI25822
aI25825
aI25826
aI25827
aI25828
aI25831
aI25834
aI25836
aI25837
aI25838
aI25839
aI25841
aI25842
aI25843
aI25846
aI25853
aI25856
aI25859
aI25860
aI25861
aI25862
aI25863
aI25866
aI25867
aI25870
aI25871
aI25872
aI25873
aI25874
aI25875
aI25876
aI25878
aI25879
aI25882
aI25883
aI25884
aI25887
aI25889
aI25890
aI25891
aI25892
aI25893
aI25894
aI25897
aI25898
aI25899
aI25934
aI25936
aI25939
aI25945
aI25946
aI25948
aI25949
aI25952
aI25961
aI25962
aI25963
aI25964
aI25965
aI25970
aI25971
aI25973
aI25977
aI25980
aI25982
aI25984
aI25986
aI25994
aI25995
aI25996
aI25997
aI25998
aI25999
aI26001
aI26004
aI26005
aI26006
aI26007
aI26011
aI26012
aI26013
aI26016
aI26017
aI26018
aI26022
aI26023
aI26024
aI26025
aI26068
aI26069
aI26073
aI26074
aI26076
aI26086
aI26088
aI26093
aI26096
aI26097
aI26098
aI26099
aI26100
aI26101
aI26105
aI26106
aI26107
aI26108
aI26110
aI26111
aI26113
aI26116
aI26117
aI26118
aI26123
aI26124
aI26126
aI26127
aI26129
aI26131
aI26132
aI26133
aI26134
aI26136
aI26137
aI26138
aI26140
aI26141
aI26142
aI26143
aI26145
aI26146
aI26152
aI26154
aI26155
aI26184
aI26185
aI26191
aI26197
aI26198
aI26200
aI26203
aI26212
aI26213
aI26215
aI26216
aI26219
aI26222
aI26227
aI26229
aI26230
aI26241
aI26247
aI26248
aI26249
aI26251
aI26252
aI26253
aI26254
aI26255
aI26258
aI26259
aI26261
aI26262
aI26264
aI26265
aI26266
aI26268
aI26269
aI26270
aI26271
aI26272
aI26273
aI26316
aI26320
aI26343
aI26348
aI26349
aI26350
aI26351
aI26352
aI26353
aI26355
aI26356
aI26358
aI26364
aI26366
aI26367
aI26368
aI26375
aI26376
aI26379
aI26380
aI26381
aI26388
aI26389
aI26390
aI26391
aI26392
aI26393
aI26394
aI26395
aI26396
aI26397
aI26398
aI26399
aI26400
aI26401
aI26467
aI26468
aI26472
aI26477
aI26479
aI26482
aI26484
aI26485
aI26487
aI26490
aI26491
aI26492
aI26494
aI26499
aI26503
aI26511
aI26520
aI26521
aI26522
aI26603
aI26606
aI26612
aI26613
aI26616
aI26617
aI26619
aI26621
aI26622
aI26623
aI26624
aI26640
aI26738
aI26745
aI26750
aI26752
aI26864
aI26865
aI26866
aI26867
aI26868
aI26870
aI26872
aI26875
aI26876
aI26878
aI26880
aI26922
aI26988
aI26990
aI26991
aI26992
aI26993
aI26994
aI26996
aI26997
aI26999
aI27000
aI27001
aI27002
aI27003
aI27004
aI27005
aI27114
aI27115
aI27116
aI27117
aI27120
aI27121
aI27122
aI27123
aI27124
aI27125
aI27126
aI27128
aI27129
aI27130
aI27131
aI27132
aI27134
aI27135
aI27136
aI27238
aI27240
aI27241
aI27244
aI27245
aI27246
aI27247
aI27248
aI27249
aI27250
aI27251
aI27252
aI27253
aI27254
aI27255
aI27256
aI27257
aI27258
aI27259
aI27260
aI27261
aI27262
aI27373
aI27375
aI27379
aI27380
aI27381
aI27382
aI27383
aI27385
aI27387
aI27388
aI27389
aI27390
aI27391
aI27392
aI27500
aI27503
aI27505
aI27506
aI27507
aI27508
aI27509
aI27510
aI27511
aI27513
aI27515
aI27516
aI27517
aI27518
aI27519
aI27520
aI27623
aI27626
aI27628
aI27629
aI27630
aI27631
aI27632
aI27633
aI27634
aI27637
aI27638
aI27639
aI27640
aI27641
aI27642
aI27644
aI27646
aI27647
aI27648
aI27754
aI27756
aI27758
aI27759
aI27760
aI27761
aI27762
aI27766
aI27768
aI27769
aI27771
aI27772
aI27774
aI27775
aI27882
aI27888
aI27889
aI27891
aI27892
aI27894
aI27895
aI27896
aI27897
aI27898
aI27899
aI27900
aI27902
aI27903
aI28013
aI28015
aI28016
aI28017
aI28018
aI28019
aI28020
aI28023
aI28024
aI28026
aI28027
aI28030
aI28032
aI28139
aI28140
aI28141
aI28142
aI28143
aI28144
aI28145
aI28146
aI28147
aI28148
aI28149
aI28150
aI28151
aI28158
aI28159
aI28160
aI28270
aI28271
aI28272
aI28274
aI28275
aI28276
aI28277
aI28278
aI28280
aI28282
aI28284
aI28287
aI28288
aI28394
aI28398
aI28399
aI28400
aI28401
aI28402
aI28403
aI28406
aI28407
aI28409
aI28412
aI28416
aI28523
aI28526
aI28527
aI28529
aI28530
aI28531
aI28533
aI28534
aI28535
aI28538
aI28539
aI28540
aI28655
aI28656
aI28657
aI28658
aI28659
aI28660
aI28661
aI28662
aI28663
aI28664
aI28667
aI28777
aI28784
aI28785
aI28787
aI28789
aI28790
aI28791
aI28792
aI28793
aI28794
aI28800
aI28910
aI28912
aI28913
aI28915
aI28917
aI28919
aI28920
aI28921
aI28928
aI29038
aI29040
aI29042
aI29043
aI29044
aI29045
aI29046
aI29047
aI29048
aI29049
aI29050
aI29056
aI29166
aI29167
aI29168
aI29169
aI29171
aI29172
aI29174
aI29175
aI29176
aI29184
aI29295
aI29296
aI29297
aI29298
aI29299
aI29300
aI29301
aI29302
aI29303
aI29312
aI29425
aI29426
aI29427
aI29428
aI29429
aI29431
aI29440
aI29548
aI29551
aI29552
aI29553
aI29554
aI29555
aI29556
aI29557
aI29568
aI29681
aI29682
aI29683
aI29684
aI29685
aI29686
aI29810
aI29811
aI29812
aI29814
aI29815
aI29825
aI29937
aI29938
aI29939
aI29940
aI29941
aI29942
aI29944
aI29952
aI30067
aI30069
aI30080
aI30193
aI30195
aI30196
aI30197
aI30198
aI30200
aI30208
aI30323
aI30324
aI30325
aI30336
aI30449
aI30453
aI30454
aI30464
aI30576
aI30578
aI30579
aI30580
aI30581
aI30582
aI30592
aI30707
aI30708
aI30710
aI30711
aI30712
aI30713
aI30834
aI30836
aI30837
aI30838
aI30839
aI30841
aI30848
aI30964
aI30965
aI30966
aI30967
aI30968
aI30969
aI31094
aI31095
aI31096
aI31098
aI31101
aI31222
aI31224
aI31225
aI31349
aI31350
aI31351
aI31352
aI31353
aI31477
aI31480
aI31481
aI31482
aI31488
aI31606
aI31607
aI31608
aI31609
aI31610
aI31617
aI31735
aI31736
aI31737
aI31738
aI31739
aI31740
aI31741
aI31744
aI31862
aI31864
aI31865
aI31866
aI31869
aI31872
aI31992
aI31993
aI31994
aI31995
aI31996
aI31997
aI32122
aI32123
aI32124
aI32125
aI32129
aI32249
aI32250
aI32251
aI32252
aI32253
aI32254
aI32255
aI32257
aI32381
aI32382
aI32507
aI32509
aI32510
aI32511
aI32636
aI32637
aI32638
aI32639
aI32763
aI32767
aa(lp9
I117
aI118
aI119
aI120
aI122
aI123
aI246
aI247
aI248
aI249
aI250
aI251
aI252
aI369
aI375
aI376
aI377
aI379
aI380
aI381
aI502
aI504
aI505
aI506
aI507
aI508
aI509
aI510
aI627
aI629
aI630
aI633
aI634
aI635
aI636
aI637
aI638
aI755
aI756
aI757
aI758
aI759
aI761
aI762
aI763
aI764
aI765
aI766
aI767
aI890
aI891
aI892
aI893
aI894
aI895
aI1018
aI1019
aI1020
aI1021
aI1022
aI1023
aI1145
aI1147
aI1148
aI1149
aI1150
aI1151
aI1273
aI1274
aI1275
aI1276
aI1277
aI1278
aI1279
aI1401
aI1404
aI1405
aI1406
aI1407
aI1528
aI1533
aI1534
aI1535
aI1656
aI1659
aI1660
aI1661
aI1662
aI1663
aI1785
aI1786
aI1787
aI1788
aI1789
aI1790
aI1791
aI1913
aI1918
aI2041
aI16384
aI16387
aI16389
aI16392
aI16396
aI16397
aI16398
aI16399
aI16400
aI16401
aI16402
aI16404
aI16405
aI16406
aI16407
aI16408
aI16409
aI16410
aI16411
aI16413
aI16418
aI16419
aI16420
aI16421
aI16422
aI16423
aI16424
aI16425
aI16426
aI16429
aI16430
aI16431
aI16432
aI16433
aI16439
aI16440
aI16441
aI16442
aI16443
aI16444
aI16446
aI16447
aI16448
aI16449
aI16451
aI16452
aI16453
aI16454
aI16455
aI16460
aI16462
aI16463
aI16466
aI16467
aI16468
aI16469
aI16513
aI16521
aI16523
aI16524
aI16525
aI16526
aI16528
aI16529
aI16530
aI16531
aI16532
aI16534
aI16535
aI16536
aI16537
aI16538
aI16539
aI16541
aI16542
aI16543
aI16544
aI16546
aI16547
aI16548
aI16549
aI16550
aI16551
aI16552
aI16553
aI16554
aI16555
aI16557
aI16558
aI16559
aI16560
aI16561
aI16562
aI16564
aI16570
aI16571
aI16572
aI16574
aI16575
aI16576
aI16577
aI16579
aI16580
aI16581
aI16582
aI16583
aI16587
aI16588
aI16589
aI16590
aI16591
aI16592
aI16595
aI16596
aI16597
aI16649
aI16655
aI16657
aI16658
aI16660
aI16661
aI16662
aI16664
aI16665
aI16666
aI16667
aI16668
aI16669
aI16670
aI16671
aI16672
aI16673
aI16674
aI16675
aI16676
aI16677
aI16678
aI16679
aI16680
aI16681
aI16682
aI16683
aI16684
aI16685
aI16686
aI16688
aI16689
aI16690
aI16692
aI16693
aI16694
aI16699
aI16702
aI16703
aI16704
aI16705
aI16706
aI16707
aI16708
aI16709
aI16710
aI16711
aI16712
aI16713
aI16715
aI16716
aI16717
aI16719
aI16720
aI16721
aI16723
aI16774
aI16775
aI16777
aI16778
aI16779
aI16780
aI16783
aI16784
aI16785
aI16786
aI16787
aI16788
aI16789
aI16790
aI16791
aI16792
aI16793
aI16794
aI16795
aI16796
aI16797
aI16798
aI16799
aI16800
aI16801
aI16802
aI16803
aI16804
aI16805
aI16806
aI16807
aI16808
aI16809
aI16811
aI16813
aI16814
aI16816
aI16817
aI16818
aI16819
aI16820
aI16825
aI16827
aI16828
aI16829
aI16830
aI16832
aI16833
aI16836
aI16837
aI16838
aI16839
aI16840
aI16841
aI16842
aI16844
aI16845
aI16846
aI16847
aI16849
aI16851
aI16853
aI16910
aI16911
aI16913
aI16914
aI16915
aI16916
aI16917
aI16918
aI16919
aI16920
aI16921
aI16922
aI16923
aI16924
aI16928
aI16929
aI16930
aI16931
aI16933
aI16934
aI16935
aI16936
aI16937
aI16938
aI16941
aI16942
aI16944
aI16945
aI16947
aI16948
aI16949
aI16951
aI16952
aI16953
aI16954
aI16955
aI16956
aI16957
aI16960
aI16961
aI16962
aI16963
aI16964
aI16965
aI16966
aI16967
aI16969
aI16970
aI16971
aI16972
aI16973
aI16975
aI16976
aI16977
aI16978
aI16979
aI16980
aI16983
aI16984
aI16986
aI16988
aI17031
aI17032
aI17038
aI17039
aI17040
aI17041
aI17042
aI17043
aI17044
aI17045
aI17046
aI17048
aI17049
aI17050
aI17051
aI17052
aI17053
aI17054
aI17055
aI17056
aI17057
aI17058
aI17059
aI17060
aI17061
aI17063
aI17064
aI17065
aI17067
aI17069
aI17070
aI17073
aI17074
aI17075
aI17076
aI17079
aI17081
aI17083
aI17084
aI17085
aI17086
aI17087
aI17088
aI17089
aI17090
aI17094
aI17096
aI17097
aI17098
aI17099
aI17100
aI17102
aI17103
aI17105
aI17106
aI17107
aI17108
aI17110
aI17111
aI17112
aI17113
aI17114
aI17118
aI17161
aI17165
aI17166
aI17167
aI17168
aI17169
aI17170
aI17171
aI17172
aI17173
aI17174
aI17175
aI17176
aI17177
aI17178
aI17179
aI17180
aI17181
aI17182
aI17183
aI17184
aI17185
aI17187
aI17188
aI17189
aI17192
aI17194
aI17195
aI17197
aI17198
aI17201
aI17202
aI17203
aI17204
aI17205
aI17206
aI17207
aI17209
aI17210
aI17211
aI17212
aI17215
aI17216
aI17217
aI17218
aI17219
aI17220
aI17222
aI17224
aI17225
aI17230
aI17231
aI17232
aI17233
aI17234
aI17235
aI17237
aI17238
aI17239
aI17240
aI17295
aI17297
aI17298
aI17301
aI17302
aI17303
aI17304
aI17306
aI17307
aI17310
aI17311
aI17312
aI17313
aI17314
aI17316
aI17318
aI17319
aI17321
aI17322
aI17323
aI17324
aI17325
aI17326
aI17328
aI17329
aI17330
aI17331
aI17332
aI17333
aI17334
aI17337
aI17338
aI17340
aI17341
aI17344
aI17345
aI17346
aI17347
aI17349
aI17350
aI17352
aI17353
aI17354
aI17356
aI17360
aI17363
aI17364
aI17365
aI17366
aI17367
aI17368
aI17372
aI17408
aI17409
aI17417
aI17424
aI17425
aI17426
aI17427
aI17428
aI17429
aI17430
aI17431
aI17433
aI17434
aI17436
aI17437
aI17438
aI17439
aI17440
aI17441
aI17443
aI17444
aI17445
aI17446
aI17447
aI17448
aI17450
aI17452
aI17453
aI17454
aI17456
aI17457
aI17458
aI17459
aI17460
aI17461
aI17462
aI17463
aI17464
aI17466
aI17467
aI17468
aI17469
aI17471
aI17473
aI17479
aI17481
aI17482
aI17483
aI17487
aI17489
aI17490
aI17491
aI17492
aI17493
aI17494
aI17496
aI17497
aI17498
aI17500
aI17501
aI17503
aI17536
aI17543
aI17550
aI17552
aI17553
aI17554
aI17556
aI17557
aI17559
aI17561
aI17562
aI17563
aI17564
aI17565
aI17566
aI17567
aI17568
aI17571
aI17572
aI17574
aI17575
aI17578
aI17579
aI17580
aI17581
aI17582
aI17583
aI17584
aI17585
aI17586
aI17587
aI17588
aI17590
aI17592
aI17595
aI17596
aI17599
aI17605
aI17607
aI17610
aI17611
aI17613
aI17615
aI17616
aI17617
aI17618
aI17619
aI17620
aI17621
aI17622
aI17623
aI17624
aI17625
aI17626
aI17627
aI17628
aI17630
aI17631
aI17632
aI17669
aI17671
aI17675
aI17680
aI17681
aI17682
aI17683
aI17684
aI17688
aI17689
aI17691
aI17692
aI17693
aI17694
aI17695
aI17696
aI17697
aI17698
aI17699
aI17702
aI17704
aI17705
aI17706
aI17707
aI17708
aI17709
aI17710
aI17711
aI17712
aI17713
aI17714
aI17718
aI17720
aI17721
aI17725
aI17726
aI17728
aI17729
aI17732
aI17733
aI17734
aI17735
aI17738
aI17739
aI17741
aI17743
aI17747
aI17748
aI17749
aI17750
aI17751
aI17752
aI17756
aI17757
aI17792
aI17798
aI17799
aI17801
aI17808
aI17809
aI17810
aI17811
aI17812
aI17813
aI17814
aI17815
aI17816
aI17817
aI17818
aI17820
aI17821
aI17822
aI17823
aI17824
aI17825
aI17826
aI17827
aI17828
aI17829
aI17830
aI17831
aI17832
aI17833
aI17836
aI17837
aI17838
aI17839
aI17840
aI17841
aI17842
aI17844
aI17846
aI17849
aI17850
aI17851
aI17853
aI17863
aI17866
aI17873
aI17875
aI17877
aI17878
aI17879
aI17882
aI17883
aI17884
aI17885
aI17889
aI17890
aI17920
aI17931
aI17932
aI17935
aI17936
aI17938
aI17939
aI17940
aI17941
aI17942
aI17943
aI17944
aI17945
aI17946
aI17947
aI17948
aI17949
aI17950
aI17951
aI17952
aI17954
aI17955
aI17956
aI17957
aI17958
aI17959
aI17961
aI17964
aI17965
aI17966
aI17969
aI17970
aI17975
aI17976
aI17977
aI17978
aI17979
aI17980
aI17994
aI18000
aI18003
aI18006
aI18007
aI18008
aI18010
aI18011
aI18014
aI18015
aI18019
aI18022
aI18023
aI18048
aI18051
aI18054
aI18059
aI18060
aI18063
aI18064
aI18067
aI18068
aI18069
aI18070
aI18071
aI18072
aI18073
aI18074
aI18075
aI18077
aI18078
aI18080
aI18081
aI18082
aI18084
aI18085
aI18086
aI18087
aI18088
aI18089
aI18090
aI18091
aI18092
aI18093
aI18094
aI18095
aI18096
aI18097
aI18098
aI18099
aI18100
aI18102
aI18105
aI18107
aI18108
aI18114
aI18116
aI18126
aI18129
aI18130
aI18134
aI18135
aI18136
aI18137
aI18138
aI18139
aI18140
aI18141
aI18142
aI18144
aI18145
aI18146
aI18147
aI18176
aI18177
aI18178
aI18187
aI18188
aI18189
aI18190
aI18191
aI18193
aI18195
aI18196
aI18197
aI18198
aI18199
aI18201
aI18202
aI18203
aI18205
aI18206
aI18207
aI18208
aI18209
aI18210
aI18211
aI18212
aI18213
aI18217
aI18219
aI18220
aI18221
aI18222
aI18224
aI18225
aI18226
aI18230
aI18231
aI18232
aI18233
aI18252
aI18257
aI18258
aI18260
aI18261
aI18262
aI18263
aI18264
aI18265
aI18266
aI18267
aI18268
aI18269
aI18270
aI18271
aI18272
aI18273
aI18274
aI18275
aI18276
aI18304
aI18315
aI18316
aI18317
aI18318
aI18321
aI18323
aI18324
aI18325
aI18326
aI18328
aI18329
aI18330
aI18331
aI18332
aI18333
aI18334
aI18335
aI18336
aI18338
aI18339
aI18345
aI18347
aI18348
aI18349
aI18350
aI18351
aI18352
aI18367
aI18370
aI18383
aI18393
aI18394
aI18395
aI18396
aI18397
aI18398
aI18399
aI18400
aI18405
aI18432
aI18433
aI18441
aI18443
aI18444
aI18445
aI18449
aI18450
aI18452
aI18453
aI18454
aI18455
aI18456
aI18457
aI18458
aI18460
aI18461
aI18462
aI18463
aI18464
aI18465
aI18466
aI18467
aI18468
aI18469
aI18470
aI18473
aI18474
aI18475
aI18476
aI18477
aI18478
aI18514
aI18516
aI18523
aI18528
aI18529
aI18530
aI18531
aI18532
aI18533
aI18534
aI18535
aI18536
aI18538
aI18539
aI18562
aI18569
aI18571
aI18575
aI18576
aI18577
aI18578
aI18580
aI18581
aI18582
aI18583
aI18584
aI18585
aI18586
aI18587
aI18589
aI18590
aI18591
aI18592
aI18593
aI18595
aI18596
aI18597
aI18601
aI18602
aI18604
aI18605
aI18606
aI18607
aI18608
aI18622
aI18640
aI18648
aI18651
aI18653
aI18654
aI18655
aI18656
aI18657
aI18658
aI18659
aI18660
aI18661
aI18662
aI18663
aI18688
aI18697
aI18699
aI18703
aI18704
aI18705
aI18706
aI18707
aI18709
aI18710
aI18711
aI18712
aI18713
aI18714
aI18715
aI18717
aI18718
aI18719
aI18720
aI18721
aI18722
aI18723
aI18724
aI18725
aI18726
aI18727
aI18730
aI18731
aI18732
aI18733
aI18734
aI18771
aI18776
aI18777
aI18782
aI18783
aI18784
aI18785
aI18786
aI18788
aI18789
aI18791
aI18816
aI18826
aI18828
aI18829
aI18830
aI18831
aI18832
aI18833
aI18834
aI18835
aI18836
aI18837
aI18838
aI18839
aI18840
aI18843
aI18844
aI18845
aI18846
aI18847
aI18848
aI18849
aI18850
aI18851
aI18853
aI18854
aI18855
aI18856
aI18857
aI18858
aI18859
aI18860
aI18861
aI18862
aI18863
aI18864
aI18866
aI18904
aI18906
aI18908
aI18909
aI18910
aI18911
aI18912
aI18913
aI18914
aI18915
aI18916
aI18919
aI18920
aI18921
aI18960
aI18961
aI18962
aI18963
aI18964
aI18965
aI18966
aI18967
aI18969
aI18970
aI18971
aI18972
aI18973
aI18974
aI18975
aI18976
aI18977
aI18979
aI18980
aI18981
aI18984
aI18986
aI18987
aI18988
aI18989
aI18990
aI19025
aI19032
aI19033
aI19035
aI19036
aI19037
aI19038
aI19040
aI19041
aI19042
aI19044
aI19045
aI19046
aI19047
aI19048
aI19049
aI19050
aI19051
aI19055
aI19089
aI19091
aI19092
aI19093
aI19094
aI19095
aI19096
aI19098
aI19100
aI19101
aI19102
aI19103
aI19104
aI19105
aI19106
aI19107
aI19108
aI19109
aI19110
aI19111
aI19112
aI19113
aI19114
aI19115
aI19116
aI19118
aI19119
aI19120
aI19123
aI19153
aI19156
aI19164
aI19167
aI19168
aI19169
aI19170
aI19171
aI19172
aI19174
aI19175
aI19176
aI19177
aI19178
aI19179
aI19180
aI19200
aI19210
aI19213
aI19215
aI19216
aI19218
aI19221
aI19222
aI19223
aI19224
aI19225
aI19227
aI19228
aI19229
aI19230
aI19231
aI19232
aI19233
aI19234
aI19235
aI19236
aI19237
aI19238
aI19239
aI19240
aI19241
aI19242
aI19243
aI19244
aI19246
aI19247
aI19248
aI19251
aI19253
aI19284
aI19289
aI19290
aI19291
aI19292
aI19295
aI19296
aI19297
aI19298
aI19299
aI19300
aI19301
aI19302
aI19304
aI19305
aI19306
aI19309
aI19340
aI19347
aI19348
aI19349
aI19350
aI19353
aI19354
aI19355
aI19356
aI19357
aI19358
aI19359
aI19360
aI19361
aI19363
aI19364
aI19365
aI19366
aI19367
aI19368
aI19370
aI19371
aI19372
aI19375
aI19376
aI19381
aI19394
aI19411
aI19412
aI19417
aI19420
aI19422
aI19423
aI19426
aI19427
aI19428
aI19429
aI19430
aI19431
aI19432
aI19433
aI19436
aI19475
aI19476
aI19479
aI19480
aI19481
aI19485
aI19486
aI19487
aI19488
aI19489
aI19490
aI19491
aI19492
aI19493
aI19495
aI19497
aI19500
aI19501
aI19541
aI19542
aI19543
aI19544
aI19545
aI19546
aI19547
aI19551
aI19552
aI19553
aI19555
aI19556
aI19557
aI19558
aI19559
aI19560
aI19561
aI19562
aI19563
aI19564
aI19565
aI19566
aI19603
aI19607
aI19613
aI19614
aI19615
aI19616
aI19617
aI19618
aI19619
aI19620
aI19621
aI19625
aI19627
aI19631
aI19636
aI19669
aI19671
aI19672
aI19674
aI19675
aI19678
aI19679
aI19680
aI19682
aI19683
aI19684
aI19685
aI19688
aI19689
aI19690
aI19691
aI19692
aI19693
aI19712
aI19733
aI19736
aI19738
aI19744
aI19745
aI19746
aI19747
aI19749
aI19750
aI19751
aI19752
aI19753
aI19754
aI19760
aI19802
aI19803
aI19804
aI19811
aI19812
aI19815
aI19816
aI19817
aI19818
aI19819
aI19820
aI19821
aI19822
aI19823
aI19825
aI19840
aI19864
aI19873
aI19874
aI19877
aI19883
aI19886
aI19901
aI19903
aI19925
aI19938
aI19939
aI19940
aI19941
aI19942
aI19943
aI19944
aI19945
aI19946
aI19947
aI19948
aI19950
aI19951
aI19952
aI19990
aI19991
aI19996
aI19997
aI20001
aI20005
aI20007
aI20063
aI20068
aI20069
aI20071
aI20072
aI20073
aI20074
aI20075
aI20076
aI20077
aI20078
aI20079
aI20080
aI20083
aI20084
aI20085
aI20117
aI20118
aI20125
aI20131
aI20134
aI20191
aI20193
aI20196
aI20197
aI20199
aI20200
aI20202
aI20203
aI20205
aI20206
aI20209
aI20215
aI20263
aI20266
aI20314
aI20315
aI20324
aI20327
aI20328
aI20329
aI20330
aI20331
aI20332
aI20333
aI20334
aI20335
aI20336
aI20337
aI20342
aI20344
aI20345
aI20348
aI20352
aI20381
aI20382
aI20383
aI20384
aI20385
aI20386
aI20430
aI20449
aI20450
aI20451
aI20452
aI20453
aI20454
aI20457
aI20458
aI20459
aI20460
aI20461
aI20463
aI20464
aI20465
aI20466
aI20467
aI20469
aI20470
aI20471
aI20472
aI20473
aI20504
aI20505
aI20513
aI20521
aI20523
aI20524
aI20575
aI20576
aI20578
aI20581
aI20583
aI20584
aI20585
aI20589
aI20590
aI20591
aI20592
aI20594
aI20597
aI20598
aI20599
aI20600
aI20601
aI20602
aI20606
aI20607
aI20612
aI20641
aI20646
aI20647
aI20702
aI20708
aI20709
aI20710
aI20711
aI20713
aI20714
aI20717
aI20718
aI20720
aI20721
aI20722
aI20723
aI20724
aI20725
aI20726
aI20727
aI20728
aI20729
aI20730
aI20731
aI20732
aI20733
aI20734
aI20735
aI20765
aI20769
aI20776
aI20777
aI20778
aI20780
aI20801
aI20826
aI20827
aI20828
aI20829
aI20832
aI20835
aI20836
aI20837
aI20838
aI20839
aI20840
aI20842
aI20843
aI20844
aI20846
aI20847
aI20848
aI20850
aI20851
aI20852
aI20853
aI20856
aI20892
aI20897
aI20898
aI20905
aI20909
aI20932
aI20933
aI20954
aI20958
aI20960
aI20961
aI20964
aI20965
aI20967
aI20968
aI20972
aI20973
aI20975
aI20976
aI20978
aI20979
aI20980
aI20981
aI20982
aI20983
aI20984
aI20985
aI20989
aI20991
aI21034
aI21050
aI21052
aI21058
aI21082
aI21092
aI21093
aI21096
aI21097
aI21100
aI21101
aI21102
aI21103
aI21104
aI21105
aI21106
aI21107
aI21108
aI21109
aI21110
aI21111
aI21112
aI21113
aI21114
aI21115
aI21116
aI21117
aI21119
aI21223
aI21231
aI21233
aI21234
aI21235
aI21236
aI21238
aI21243
aI21244
aI21245
aI21246
aI21247
aI21248
aI21284
aI21334
aI21337
aI21338
aI21342
aI21345
aI21346
aI21347
aI21353
aI21361
aI21362
aI21363
aI21364
aI21365
aI21366
aI21367
aI21368
aI21369
aI21370
aI21371
aI21373
aI21374
aI21375
aI21376
aI21417
aI21443
aI21444
aI21457
aI21459
aI21461
aI21468
aI21476
aI21477
aI21479
aI21482
aI21484
aI21486
aI21487
aI21488
aI21489
aI21490
aI21494
aI21495
aI21497
aI21498
aI21499
aI21500
aI21501
aI21512
aI21543
aI21577
aI21596
aI21605
aI21609
aI21613
aI21614
aI21618
aI21619
aI21620
aI21622
aI21623
aI21624
aI21625
aI21628
aI21629
aI21630
aI21631
aI21645
aI21646
aI21668
aI21705
aI21724
aI21735
aI21736
aI21737
aI21739
aI21746
aI21751
aI21753
aI21757
aI21758
aI21759
aI21760
aI21843
aI21854
aI21855
aI21857
aI21866
aI21867
aI21870
aI21871
aI21872
aI21874
aI21875
aI21878
aI21879
aI21881
aI21883
aI21884
aI21885
aI21886
aI21887
aI21888
aI21957
aI21960
aI21961
aI21969
aI21972
aI21985
aI21986
aI21987
aI21988
aI22001
aI22007
aI22009
aI22010
aI22011
aI22012
aI22013
aI22016
aI22033
aI22036
aI22048
aI22122
aI22126
aI22127
aI22128
aI22129
aI22134
aI22136
aI22137
aI22139
aI22140
aI22144
aI22157
aI22158
aI22159
aI22161
aI22166
aI22174
aI22175
aI22216
aI22255
aI22262
aI22271
aI22272
aI22285
aI22287
aI22290
aI22292
aI22295
aI22308
aI22339
aI22351
aI22352
aI22377
aI22384
aI22389
aI22390
aI22400
aI22472
aI22475
aI22491
aI22500
aI22502
aI22509
aI22512
aI22528
aI22534
aI22538
aI22540
aI22547
aI22548
aI22549
aI22550
aI22604
aI22619
aI22628
aI22629
aI22642
aI22645
aI22656
aI22663
aI22665
aI22666
aI22668
aI22670
aI22672
aI22673
aI22675
aI22677
aI22678
aI22735
aI22737
aI22738
aI22739
aI22745
aI22747
aI22770
aI22773
aI22775
aI22784
aI22791
aI22797
aI22798
aI22799
aI22801
aI22803
aI22807
aI22816
aI22854
aI22856
aI22859
aI22861
aI22863
aI22867
aI22887
aI22912
aI22915
aI22919
aI22923
aI22924
aI22925
aI22926
aI22929
aI22931
aI22932
aI22933
aI22934
aI22938
aI22988
aI22990
aI22992
aI22995
aI22996
aI23003
aI23004
aI23005
aI23017
aI23030
aI23040
aI23043
aI23046
aI23047
aI23050
aI23051
aI23052
aI23053
aI23054
aI23055
aI23057
aI23059
aI23060
aI23061
aI23062
aI23063
aI23064
aI23065
aI23068
aI23069
aI23072
aI23073
aI23075
aI23118
aI23119
aI23120
aI23121
aI23124
aI23125
aI23128
aI23129
aI23131
aI23139
aI23142
aI23147
aI23150
aI23168
aI23169
aI23171
aI23172
aI23173
aI23175
aI23176
aI23177
aI23178
aI23183
aI23186
aI23187
aI23188
aI23189
aI23190
aI23192
aI23193
aI23194
aI23195
aI23198
aI23200
aI23202
aI23239
aI23240
aI23244
aI23245
aI23248
aI23249
aI23250
aI23255
aI23259
aI23260
aI23261
aI23262
aI23272
aI23273
aI23279
aI23280
aI23285
aI23286
aI23296
aI23297
aI23298
aI23299
aI23301
aI23305
aI23309
aI23310
aI23311
aI23314
aI23315
aI23316
aI23317
aI23318
aI23319
aI23320
aI23321
aI23322
aI23323
aI23324
aI23331
aI23332
aI23370
aI23371
aI23372
aI23373
aI23374
aI23375
aI23378
aI23379
aI23380
aI23382
aI23383
aI23384
aI23385
aI23387
aI23388
aI23389
aI23390
aI23391
aI23393
aI23397
aI23398
aI23400
aI23401
aI23405
aI23407
aI23424
aI23426
aI23427
aI23428
aI23429
aI23430
aI23431
aI23434
aI23436
aI23437
aI23438
aI23439
aI23440
aI23441
aI23444
aI23445
aI23446
aI23450
aI23451
aI23453
aI23493
aI23495
aI23496
aI23498
aI23500
aI23501
aI23505
aI23506
aI23507
aI23510
aI23511
aI23512
aI23513
aI23514
aI23515
aI23517
aI23518
aI23519
aI23520
aI23521
aI23525
aI23527
aI23528
aI23533
aI23534
aI23552
aI23553
aI23554
aI23555
aI23556
aI23557
aI23558
aI23559
aI23560
aI23561
aI23562
aI23566
aI23568
aI23571
aI23573
aI23577
aI23578
aI23579
aI23580
aI23581
aI23582
aI23585
aI23622
aI23623
aI23625
aI23626
aI23627
aI23628
aI23629
aI23630
aI23631
aI23632
aI23633
aI23634
aI23635
aI23636
aI23637
aI23640
aI23641
aI23642
aI23643
aI23644
aI23645
aI23646
aI23647
aI23649
aI23650
aI23651
aI23652
aI23658
aI23660
aI23661
aI23662
aI23681
aI23682
aI23683
aI23686
aI23687
aI23688
aI23689
aI23690
aI23694
aI23702
aI23703
aI23706
aI23708
aI23709
aI23710
aI23717
aI23720
aI23752
aI23753
aI23754
aI23756
aI23757
aI23759
aI23761
aI23762
aI23763
aI23765
aI23768
aI23771
aI23772
aI23774
aI23775
aI23782
aI23783
aI23784
aI23785
aI23786
aI23788
aI23789
aI23790
aI23791
aI23795
aI23797
aI23808
aI23809
aI23811
aI23812
aI23816
aI23817
aI23823
aI23830
aI23834
aI23835
aI23836
aI23837
aI23838
aI23840
aI23843
aI23881
aI23882
aI23883
aI23884
aI23885
aI23886
aI23887
aI23888
aI23889
aI23890
aI23891
aI23892
aI23895
aI23896
aI23897
aI23901
aI23902
aI23903
aI23904
aI23905
aI23907
aI23908
aI23910
aI23912
aI23913
aI23914
aI23915
aI23916
aI23917
aI23918
aI23919
aI23920
aI23923
aI23926
aI23936
aI23938
aI23939
aI23943
aI23945
aI23948
aI23962
aI23963
aI23964
aI23965
aI23966
aI23968
aI24009
aI24014
aI24017
aI24019
aI24020
aI24021
aI24022
aI24023
aI24025
aI24028
aI24029
aI24030
aI24031
aI24033
aI24036
aI24037
aI24040
aI24042
aI24043
aI24044
aI24045
aI24046
aI24064
aI24065
aI24067
aI24070
aI24072
aI24073
aI24083
aI24090
aI24091
aI24092
aI24095
aI24098
aI24137
aI24141
aI24142
aI24143
aI24144
aI24147
aI24148
aI24149
aI24150
aI24151
aI24157
aI24158
aI24159
aI24160
aI24164
aI24165
aI24167
aI24168
aI24172
aI24173
aI24174
aI24175
aI24177
aI24178
aI24193
aI24194
aI24195
aI24196
aI24197
aI24218
aI24220
aI24221
aI24222
aI24223
aI24224
aI24225
aI24226
aI24264
aI24265
aI24266
aI24268
aI24269
aI24271
aI24272
aI24276
aI24277
aI24283
aI24284
aI24285
aI24286
aI24287
aI24288
aI24293
aI24294
aI24295
aI24296
aI24302
aI24304
aI24306
aI24321
aI24322
aI24323
aI24326
aI24347
aI24350
aI24351
aI24352
aI24392
aI24395
aI24398
aI24399
aI24402
aI24403
aI24405
aI24406
aI24407
aI24408
aI24410
aI24412
aI24413
aI24415
aI24416
aI24417
aI24422
aI24424
aI24426
aI24432
aI24448
aI24449
aI24450
aI24452
aI24475
aI24478
aI24479
aI24480
aI24481
aI24482
aI24487
aI24524
aI24526
aI24528
aI24531
aI24534
aI24535
aI24536
aI24541
aI24542
aI24543
aI24544
aI24545
aI24546
aI24551
aI24553
aI24558
aI24560
aI24562
aI24577
aI24578
aI24579
aI24602
aI24603
aI24607
aI24608
aI24609
aI24610
aI24652
aI24653
aI24654
aI24655
aI24656
aI24657
aI24658
aI24664
aI24665
aI24666
aI24667
aI24672
aI24676
aI24680
aI24682
aI24683
aI24689
aI24704
aI24705
aI24706
aI24707
aI24718
aI24728
aI24734
aI24735
aI24736
aI24738
aI24780
aI24782
aI24783
aI24784
aI24785
aI24786
aI24787
aI24790
aI24791
aI24792
aI24794
aI24795
aI24800
aI24804
aI24808
aI24810
aI24832
aI24833
aI24835
aI24836
aI24861
aI24862
aI24863
aI24865
aI24866
aI24867
aI24909
aI24915
aI24916
aI24917
aI24921
aI24931
aI24932
aI24933
aI24935
aI24960
aI24961
aI24963
aI24964
aI24965
aI24966
aI24967
aI24969
aI24974
aI24975
aI24978
aI24981
aI24984
aI24986
aI24989
aI24991
aI24992
aI24993
aI24994
aI24995
aI25034
aI25037
aI25039
aI25043
aI25045
aI25050
aI25051
aI25054
aI25056
aI25057
aI25058
aI25059
aI25061
aI25064
aI25065
aI25089
aI25090
aI25091
aI25092
aI25093
aI25095
aI25096
aI25097
aI25098
aI25099
aI25103
aI25106
aI25113
aI25114
aI25118
aI25119
aI25120
aI25121
aI25122
aI25123
aI25162
aI25163
aI25165
aI25168
aI25173
aI25174
aI25176
aI25184
aI25216
aI25220
aI25223
aI25224
aI25225
aI25230
aI25231
aI25241
aI25242
aI25244
aI25247
aI25248
aI25249
aI25251
aI25287
aI25294
aI25295
aI25296
aI25301
aI25302
aI25304
aI25307
aI25309
aI25310
aI25311
aI25313
aI25318
aI25344
aI25348
aI25350
aI25351
aI25352
aI25353
aI25354
aI25355
aI25356
aI25357
aI25358
aI25367
aI25368
aI25370
aI25371
aI25372
aI25374
aI25375
aI25376
aI25382
aI25383
aI25384
aI25472
aI25478
aI25479
aI25480
aI25481
aI25482
aI25483
aI25484
aI25485
aI25486
aI25487
aI25489
aI25490
aI25492
aI25493
aI25494
aI25495
aI25496
aI25498
aI25500
aI25501
aI25502
aI25503
aI25505
aI25570
aI25571
aI25600
aI25607
aI25611
aI25613
aI25614
aI25615
aI25616
aI25617
aI25618
aI25619
aI25620
aI25621
aI25622
aI25623
aI25624
aI25625
aI25626
aI25627
aI25629
aI25630
aI25631
aI25633
aI25634
aI25635
aI25728
aI25741
aI25742
aI25743
aI25744
aI25745
aI25747
aI25751
aI25752
aI25753
aI25754
aI25755
aI25756
aI25757
aI25758
aI25763
aI25764
aI25868
aI25869
aI25877
aI25880
aI25881
aI25885
aI25886
aI25888
aI26008
aI26009
aI26010
aI26014
aI26015
aI26019
aI26112
aI26125
aI26139
aI26144
aI26147
aI26240
aI26260
aI26354
aI26496
aI26995
aI27133
aI27264
aI27645
aI27763
aI27764
aI27765
aI27770
aI27773
aI27890
aI27893
aI27901
aI28025
aI28028
aI28029
aI28031
aI28152
aI28153
aI28154
aI28155
aI28156
aI28157
aI28279
aI28281
aI28283
aI28285
aI28286
aI28408
aI28410
aI28411
aI28413
aI28414
aI28415
aI28532
aI28536
aI28537
aI28541
aI28542
aI28543
aI28665
aI28666
aI28668
aI28669
aI28670
aI28671
aI28786
aI28788
aI28795
aI28796
aI28797
aI28798
aI28799
aI28914
aI28916
aI28918
aI28922
aI28923
aI28924
aI28926
aI28927
aI29041
aI29051
aI29052
aI29170
aI29173
aI29177
aI29178
aI29179
aI29180
aI29181
aI29182
aI29304
aI29305
aI29306
aI29307
aI29308
aI29309
aI29310
aI29311
aI29430
aI29432
aI29433
aI29434
aI29435
aI29436
aI29437
aI29438
aI29558
aI29559
aI29560
aI29561
aI29562
aI29563
aI29564
aI29565
aI29566
aI29687
aI29688
aI29689
aI29690
aI29691
aI29692
aI29696
aI29816
aI29817
aI29818
aI29819
aI29820
aI29821
aI29823
aI29824
aI29943
aI29945
aI29946
aI29947
aI29948
aI29950
aI30070
aI30071
aI30072
aI30073
aI30074
aI30075
aI30076
aI30199
aI30201
aI30202
aI30203
aI30204
aI30206
aI30326
aI30327
aI30328
aI30329
aI30330
aI30331
aI30332
aI30455
aI30456
aI30458
aI30459
aI30460
aI30462
aI30583
aI30584
aI30585
aI30586
aI30587
aI30588
aI30714
aI30715
aI30716
aI30840
aI30842
aI30843
aI30844
aI30845
aI30970
aI30971
aI30972
aI30973
aI31097
aI31099
aI31100
aI31102
aI31223
aI31226
aI31227
aI31228
aI31229
aI31230
aI31231
aI31354
aI31355
aI31356
aI31357
aI31358
aI31359
aI31483
aI31484
aI31485
aI31486
aI31487
aI31611
aI31612
aI31613
aI31614
aI31615
aI31742
aI31743
aI31867
aI31868
aI31870
aI31871
aI31998
aI31999
aI32126
aI32127
aI32383
aa.