(lp1
(lp2
I5612
aI5613
aI5614
aI5741
aI5742
aI5869
aI5870
aI5997
aI5998
aI6123
aI6125
aI6126
aI6245
aI6246
aI6250
aI6251
aI6253
aI6371
aI6372
aI6373
aI6374
aI6379
aI6380
aI6492
aI6493
aI6494
aI6495
aI6607
aI6608
aI6619
aI6620
aI6735
aI6736
aI6737
aI6862
aI6863
aI6864
aI6990
aI6991
aI7118
aI7119
aI7245
aI7246
aI7372
aI7373
aI7500
aI7626
aI7627
aI7628
aI7754
aI7755
aI7756
aI7884
aI7885
aI8012
aI8013
aI8014
aI8144
aI8145
aI8146
aI8150
aI8151
aI8286
aI8288
aI8289
aI8417
aI8418
aI8544
aI8545
aI8546
aI8547
aI8548
aI8674
aI8675
aI8676
aI8802
aI8803
aI8804
aI8931
aI8932
aI9059
aI9060
aI9061
aI9187
aI9188
aI9189
aI9316
aI9317
aI9444
aI9445
aI9572
aI9573
aI9698
aI9699
aI9700
aI9826
aI9827
aI9951
aI9952
aI9953
aI9954
aI10079
aI10080
aI10081
aI10206
aI10207
aI10209
aI10333
aI18209
aI21977
aI21980
aI21981
aI22105
aI22106
aI22107
aI22108
aI22229
aI22230
aI22342
aI22357
aI22358
aI22612
aI22740
aI22868
aI22869
aI22988
aI23114
aI23115
aI23241
aI23242
aI23367
aI23369
aI23495
aI23496
aI23621
aI23622
aI23716
aI23727
aI23749
aI23750
aI23877
aI23878
aI24005
aI24006
aI24133
aI24134
aI24261
aI24389
aI24517
aI24645
aI24773
aI25011
aI25030
aI25031
aI25160
aI25161
aI25290
aI25291
aI25424
aI25425
aI25554
aI25675
aI25682
aI25683
aI25807
aI25808
aI25811
aI25939
aI25940
aI26064
aI26067
aI26068
aI26191
aI26309
aI26324
aI26325
aI26326
aI26454
aI26551
aI26583
aI26584
aa(lp3
I5613
aI5741
aI5742
aI5869
aI5870
aI5997
aI5998
aI6493
aI6736
aI6863
aI6990
aI6991
aI7118
aI7755
aI7885
aI8013
aI8145
aI8146
aI8675
aI8676
aI8803
aI8804
aI8932
aI9060
aI9316
aI9444
aI9572
aI9573
aI9699
aI9827
aI10081
aI22107
aI22358
aI22612
aI23750
aI25030
aI25031
aI25939
aI26068
aa(lp4
I5741
aI5742
aI5869
aI5870
aI5998
aI8675
aI8676
aI8804
aa(lp5
a(lp6
a(lp7
a(lp8
a(lp9
a.