(lp1
(lp2
a(lp3
a(lp4
a(lp5
a(lp6
I7144
aI7272
aI7780
aI7908
aI8036
aa(lp7
I7015
aI7143
aI7271
aI7398
aI7399
aI7400
aI7781
aI7907
aI8035
aI8160
aI8161
aI8288
aI8289
aI8416
aI8417
aI8545
aa(lp8
I6759
aI6887
aI7167
aI7526
aI7527
aI7654
aI7655
aI7909
aI8037
aI8162
aI8290
aI8418
aI8544
aI8673
aI8802
aI8930
aI9596
aI9597
aI9982
aI10239
aI10365
aI10623
aI10751
aI22133
aI22508
aI22509
aI22891
aI26068
aa(lp9
I51
aI1221
aI1413
aI2099
aI2112
aI2945
aI3251
aI3339
aI3546
aI3579
aI3709
aI3744
aI4303
aI4346
aI4510
aI4528
aI4769
aI5398
aI5694
aI6020
aI6886
aI6889
aI6909
aI6978
aI7014
aI7016
aI7017
aI7035
aI7036
aI7037
aI7038
aI7039
aI7142
aI7158
aI7161
aI7162
aI7163
aI7164
aI7165
aI7166
aI7270
aI7287
aI7288
aI7289
aI7290
aI7294
aI7331
aI7528
aI7535
aI7546
aI7547
aI7653
aI7656
aI7779
aI7782
aI7783
aI7906
aI8034
aI8163
aI8164
aI8291
aI8313
aI8419
aI8543
aI8546
aI8602
aI8671
aI8672
aI8674
aI8675
aI8694
aI8801
aI8803
aI8804
aI8821
aI8822
aI8829
aI8831
aI8931
aI8932
aI8952
aI8954
aI8958
aI9060
aI9061
aI9080
aI9199
aI9337
aI9339
aI9340
aI9343
aI9346
aI9392
aI9463
aI9464
aI9465
aI9467
aI9470
aI9488
aI9521
aI9595
aI9619
aI9651
aI9725
aI9726
aI9852
aI9853
aI9854
aI9981
aI9983
aI10109
aI10110
aI10111
aI10237
aI10238
aI10277
aI10366
aI10367
aI10432
aI10492
aI10493
aI10494
aI10495
aI10621
aI10622
aI10658
aI10749
aI10750
aI10778
aI10779
aI10875
aI10876
aI10879
aI11003
aI11004
aI11132
aI11133
aI11258
aI11259
aI11260
aI11262
aI11386
aI11387
aI11388
aI11389
aI11514
aI11515
aI11516
aI11518
aI11642
aI11644
aI11766
aI11767
aI11770
aI11785
aI11890
aI11894
aI12018
aI12019
aI12030
aI12031
aI12150
aI12196
aI12276
aI12551
aI12887
aI12911
aI12913
aI12915
aI12921
aI12965
aI13050
aI13160
aI13205
aI13301
aI13304
aI13422
aI13713
aI13752
aI13935
aI14065
aI14066
aI14130
aI14188
aI14437
aI14441
aI14565
aI14748
aI14828
aI15082
aI15083
aI15117
aI15610
aI15750
aI15982
aI16258
aI16267
aI16344
aI16421
aI16422
aI16553
aI16601
aI16700
aI16750
aI16759
aI16777
aI16994
aI17125
aI17263
aI17364
aI17451
aI17520
aI17521
aI17657
aI17768
aI17785
aI17787
aI17788
aI17907
aI18892
aI19447
aI19559
aI20028
aI20177
aI20178
aI20453
aI20550
aI21066
aI21105
aI21108
aI21157
aI21193
aI21234
aI21361
aI21440
aI21441
aI21603
aI21754
aI21882
aI21883
aI21884
aI21983
aI22007
aI22009
aI22011
aI22121
aI22132
aI22134
aI22249
aI22259
aI22260
aI22332
aI22334
aI22361
aI22362
aI22368
aI22379
aI22380
aI22381
aI22382
aI22383
aI22384
aI22510
aI22606
aI22629
aI22636
aI22637
aI22734
aI22764
aI22863
aI22884
aI22889
aI22976
aI22995
aI22997
aI23003
aI23019
aI23117
aI23118
aI23132
aI23138
aI23139
aI23147
aI23256
aI23262
aI23264
aI23265
aI23266
aI23275
aI23359
aI23389
aI23490
aI23518
aI23519
aI23532
aI23558
aI23641
aI23645
aI23661
aI23769
aI23771
aI23772
aI23900
aI24017
aI24018
aI24026
aI24027
aI24149
aI24265
aI24272
aI24274
aI24278
aI24279
aI24280
aI24281
aI24405
aI24524
aI24532
aI24660
aI24788
aI24899
aI24900
aI24904
aI24908
aI24916
aI24917
aI24918
aI25027
aI25037
aI25039
aI25040
aI25045
aI25162
aI25282
aI25296
aI25422
aI25427
aI25428
aI25429
aI25430
aI25487
aI25512
aI25550
aI25553
aI25557
aI25558
aI25684
aI25685
aI25686
aI25812
aI25813
aI25814
aI25842
aI25936
aI25940
aI25941
aI25942
aI26066
aI26070
aI26187
aI26193
aI26198
aI26199
aI26200
aI26326
aI26327
aI26328
aI26455
aI26456
aI26457
aI26546
aI26548
aI26573
aI26585
aI26712
aI26720
aI26807
aI26938
aI26945
aI26960
aI26980
aI27074
aI27109
aI27225
aI27348
aI27363
aI27365
aI27479
aI27483
aI27493
aI27495
aI27602
aI27604
aI27619
aI27743
aI27750
aI27751
aI27863
aI27877
aI27991
aI28001
aI28112
aI28129
aI28130
aI28135
aI28136
aI28137
aI28237
aI28249
aI28358
aI28381
aI28394
aI28395
aI28505
aI28506
aI28510
aI28521
aI28634
aI29024
aI29027
aI29028
aI29499
aI29526
aI29789
aI30043
aI30131
aI30296
aI30431
aI30993
aI31748
aa.