(lp1
(lp2
a(lp3
a(lp4
a(lp5
a(lp6
a(lp7
a(lp8
I3913
aI18982
aI25091
aa(lp9
I37
aI63
aI191
aI388
aI389
aI419
aI460
aI548
aI569
aI652
aI779
aI900
aI1169
aI1311
aI1317
aI1372
aI1445
aI1501
aI1593
aI1900
aI1936
aI2050
aI2058
aI2059
aI2075
aI2180
aI2229
aI2318
aI2356
aI2510
aI2619
aI2701
aI2703
aI2946
aI2997
aI3040
aI3084
aI3090
aI3121
aI3293
aI3390
aI3397
aI3418
aI3421
aI3430
aI3470
aI3478
aI3531
aI3722
aI3739
aI3751
aI3786
aI3879
aI3951
aI4004
aI4005
aI4006
aI4059
aI4061
aI4063
aI4207
aI4227
aI4438
aI4711
aI4750
aI4753
aI4754
aI4825
aI4827
aI4882
aI4907
aI4908
aI4912
aI4932
aI4959
aI4993
aI5059
aI5160
aI5326
aI5414
aI5451
aI5596
aI5649
aI5728
aI5776
aI5789
aI5843
aI6167
aI6199
aI6203
aI6214
aI6305
aI6321
aI6338
aI6430
aI6451
aI6459
aI6470
aI6582
aI6792
aI6797
aI6854
aI6910
aI6938
aI7035
aI7089
aI7332
aI7356
aI7357
aI7467
aI7468
aI7510
aI7515
aI7537
aI7664
aI7727
aI7748
aI7922
aI8123
aI8290
aI8350
aI8351
aI8387
aI8429
aI8490
aI8563
aI8613
aI8631
aI8674
aI8692
aI8816
aI8911
aI8960
aI8963
aI8974
aI8981
aI9085
aI9182
aI9265
aI9283
aI9345
aI9395
aI9450
aI9451
aI9467
aI9499
aI9578
aI9591
aI9625
aI9640
aI9712
aI9749
aI9804
aI9806
aI9811
aI9832
aI9839
aI9909
aI9960
aI9986
aI10082
aI10138
aI10210
aI10211
aI10268
aI10555
aI10658
aI10718
aI10755
aI10801
aI10829
aI10888
aI10910
aI10911
aI10914
aI10943
aI11025
aI11031
aI11054
aI11072
aI11148
aI11173
aI11532
aI11589
aI11590
aI11642
aI11649
aI11659
aI11683
aI11738
aI11747
aI11767
aI11910
aI12232
aI12310
aI12335
aI12556
aI12572
aI12579
aI12644
aI12730
aI12791
aI12808
aI12812
aI12826
aI12856
aI12871
aI12872
aI13085
aI13102
aI13108
aI13125
aI13164
aI13213
aI13319
aI13336
aI13340
aI13342
aI13354
aI13389
aI13434
aI13468
aI13470
aI13532
aI13568
aI13575
aI13577
aI13581
aI13655
aI13660
aI13670
aI13703
aI13726
aI13735
aI13754
aI13761
aI13770
aI13793
aI13805
aI13836
aI13851
aI13896
aI13917
aI13922
aI13964
aI14080
aI14081
aI14096
aI14202
aI14209
aI14228
aI14231
aI14257
aI14258
aI14268
aI14269
aI14275
aI14276
aI14279
aI14281
aI14336
aI14337
aI14343
aI14386
aI14388
aI14411
aI14422
aI14654
aI14655
aI14679
aI14724
aI14728
aI14817
aI14830
aI14835
aI14849
aI14883
aI15142
aI15176
aI15239
aI15269
aI15275
aI15346
aI15364
aI15365
aI15383
aI15477
aI15546
aI15634
aI15710
aI15762
aI15764
aI15796
aI15876
aI15922
aI15982
aI15999
aI16014
aI16155
aI16190
aI16191
aI16195
aI16208
aI16210
aI16213
aI16233
aI16274
aI16409
aI16424
aI16438
aI16538
aI16959
aI17123
aI17169
aI17232
aI17322
aI17323
aI17384
aI17444
aI17450
aI17597
aI17711
aI17958
aI17959
aI17984
aI17985
aI17989
aI18014
aI18051
aI18082
aI18090
aI18134
aI18140
aI18231
aI18232
aI18261
aI18306
aI18336
aI18365
aI18412
aI18463
aI18464
aI18502
aI18512
aI18530
aI18531
aI18609
aI18695
aI18713
aI18745
aI18748
aI18773
aI18823
aI18850
aI18967
aI19040
aI19080
aI19153
aI19227
aI19288
aI19416
aI19574
aI19702
aI19778
aI19782
aI19783
aI19818
aI19819
aI19849
aI19867
aI19885
aI19921
aI19931
aI19971
aI19972
aI19991
aI20096
aI20122
aI20129
aI20130
aI20132
aI20174
aI20200
aI20249
aI20279
aI20290
aI20458
aI20516
aI20529
aI20555
aI20577
aI20640
aI20656
aI20738
aI20829
aI20899
aI20949
aI21000
aI21030
aI21033
aI21217
aI21260
aI21322
aI21405
aI21474
aI21475
aI21505
aI21542
aI21587
aI21600
aI21606
aI21645
aI21728
aI21743
aI21763
aI21783
aI21821
aI21855
aI21856
aI22072
aI22086
aI22226
aI22264
aI22274
aI22283
aI22326
aI22351
aI22353
aI22374
aI22399
aI22415
aI22420
aI22478
aI22537
aI22684
aI22693
aI22712
aI22742
aI22751
aI22794
aI22831
aI22861
aI22870
aI22886
aI22895
aI23078
aI23092
aI23164
aI23381
aI23450
aI23550
aI23578
aI23616
aI23621
aI23747
aI23842
aI23997
aI23998
aI24007
aI24118
aI24186
aI24227
aI24246
aI24264
aI24350
aI24365
aI24374
aI24384
aI24429
aI24430
aI24484
aI24558
aI24561
aI24614
aI24687
aI24790
aI24807
aI24815
aI24869
aI25013
aI25116
aI25119
aI25138
aI25144
aI25166
aI25170
aI25182
aI25183
aI25186
aI25242
aI25252
aI25262
aI25284
aI25308
aI25311
aI25317
aI25318
aI25334
aI25372
aI25433
aI25471
aI25530
aI25542
aI25569
aI25591
aI25598
aI25605
aI25634
aI25736
aI25802
aI25948
aI25953
aI25969
aI26013
aI26018
aI26022
aI26026
aI26027
aI26031
aI26041
aI26043
aI26088
aI26110
aI26140
aI26184
aI26211
aI26301
aI26306
aI26309
aI26322
aI26389
aI26453
aI26554
aI26635
aI26693
aI26770
aI26800
aI26843
aI26917
aI27077
aI27089
aI27157
aI27173
aI27283
aI27333
aI27370
aI27383
aI27421
aI27432
aI27446
aI27483
aI27485
aI27526
aI27527
aI27547
aI27552
aI27610
aI27638
aI27645
aI27687
aI27697
aI27728
aI27729
aI27753
aI27756
aI27760
aI27774
aI27801
aI27822
aI27826
aI27872
aI27884
aI28066
aI28116
aI28208
aI28212
aI28307
aI28318
aI28321
aI28332
aI28336
aI28354
aI28355
aI28378
aI28391
aI28417
aI28424
aI28426
aI28444
aI28447
aI28448
aI28521
aI28556
aI28558
aI28567
aI28573
aI28576
aI28580
aI28648
aI28653
aI28688
aI28690
aI28702
aI28703
aI28727
aI28728
aI28741
aI28763
aI28764
aI28780
aI28797
aI28801
aI28810
aI28839
aI28855
aI28860
aI28891
aI28895
aI28898
aI28913
aI28918
aI28983
aI28984
aI28993
aI28995
aI28998
aI29085
aI29149
aI29150
aI29182
aI29322
aI29339
aI29362
aI29386
aI29398
aI29406
aI29422
aI29426
aI29427
aI29443
aI29448
aI29451
aI29491
aI29506
aI29540
aI29553
aI29574
aI29575
aI29585
aI29587
aI29588
aI29589
aI29626
aI29643
aI29679
aI29825
aI29835
aI29879
aI29880
aI29881
aI29883
aI29930
aI30005
aI30165
aI30184
aI30190
aI30232
aI30233
aI30245
aI30255
aI30262
aI30265
aI30314
aI30346
aI30359
aI30368
aI30406
aI30457
aI30488
aI30502
aI30517
aI30526
aI30551
aI30569
aI30587
aI30588
aI30703
aI30733
aI30774
aI30777
aI30835
aI30863
aI30879
aI30931
aI30946
aI30947
aI30953
aI30961
aI30985
aI30993
aI31019
aI31090
aI31118
aI31133
aI31149
aI31150
aI31156
aI31183
aI31223
aI31238
aI31247
aI31272
aI31322
aI31364
aI31377
aI31407
aI31423
aI31504
aI31514
aI31515
aI31538
aI31620
aI31699
aI31770
aI31774
aI31807
aI31823
aI31898
aI31979
aI31982
aI32010
aI32017
aI32032
aI32033
aI32095
aI32123
aI32174
aI32242
aI32265
aI32266
aI32268
aI32277
aI32278
aI32282
aI32283
aI32314
aI32325
aI32339
aI32364
aI32370
aI32412
aI32452
aI32458
aI32463
aI32490
aI32496
aI32499
aI32501
aI32518
aI32651
aI32652
aI32655
aI32672
aI32765
aa.