(lp1
(lp2
a(lp3
a(lp4
a(lp5
a(lp6
a(lp7
a(lp8
I3330
aa(lp9
I5
aI8
aI13
aI17
aI136
aI140
aI141
aI175
aI262
aI265
aI389
aI391
aI518
aI776
aI809
aI951
aI1068
aI1069
aI1282
aI1301
aI1456
aI1486
aI1556
aI1800
aI1945
aI2532
aI2609
aI2633
aI2705
aI2871
aI3250
aI3276
aI3290
aI3321
aI3327
aI3331
aI3334
aI3433
aI3504
aI3587
aI3806
aI3857
aI3858
aI3873
aI3906
aI4224
aI4233
aI4265
aI4321
aI4541
aI4622
aI4695
aI4701
aI4800
aI4925
aI4993
aI4994
aI4998
aI5086
aI5087
aI5270
aI5272
aI5538
aI5578
aI5584
aI5654
aI5717
aI5729
aI5781
aI5782
aI5853
aI5946
aI5952
aI5969
aI5970
aI6029
aI6043
aI6103
aI6165
aI6247
aI6268
aI6327
aI6330
aI6450
aI6525
aI6529
aI6578
aI6599
aI6624
aI6829
aI6877
aI6895
aI7276
aI7352
aI7419
aI7700
aI7809
aI7824
aI8107
aI8175
aI8415
aI8541
aI8544
aI8557
aI8563
aI8570
aI8624
aI8831
aI8833
aI8946
aI9294
aI9321
aI9401
aI9402
aI9443
aI9449
aI9574
aI9612
aI9647
aI9735
aI9827
aI9861
aI9879
aI9893
aI10038
aI10084
aI10088
aI10089
aI10107
aI10108
aI10124
aI10130
aI10197
aI10229
aI10278
aI10316
aI10321
aI10349
aI10355
aI10430
aI10434
aI10449
aI10450
aI10468
aI10472
aI10484
aI10488
aI10666
aI10686
aI10838
aI10936
aI10965
aI11024
aI11109
aI11126
aI11577
aI11649
aI11727
aI11730
aI11755
aI11815
aI11826
aI11829
aI11881
aI11905
aI12208
aI12228
aI12260
aI12299
aI12377
aI12483
aI12548
aI12551
aI12584
aI12620
aI12678
aI12681
aI12695
aI12743
aI12791
aI12812
aI12939
aI12944
aI13058
aI13064
aI13187
aI13216
aI13250
aI13319
aI13390
aI13443
aI13569
aI13646
aI13647
aI13707
aI13716
aI13734
aI13779
aI13782
aI13786
aI13810
aI13835
aI13842
aI13870
aI13982
aI13992
aI14210
aI14250
aI14397
aI14441
aI14460
aI14490
aI14507
aI14569
aI14740
aI14876
aI14892
aI14905
aI15147
aI15260
aI15285
aI15288
aI15380
aI15381
aI15411
aI15413
aI15474
aI15498
aI15585
aI15589
aI15719
aI15750
aI16004
aI16005
aI16022
aI16130
aI16134
aI16140
aI16288
aI16325
aI16367
aI16368
aI16387
aI16450
aI16515
aI16516
aI16582
aI16643
aI16675
aI16679
aI16713
aI16769
aI16790
aI16828
aI16863
aI16941
aI16952
aI16980
aI17069
aI17161
aI17195
aI17207
aI17286
aI17347
aI17349
aI17369
aI17706
aI17793
aI17821
aI17833
aI17865
aI17884
aI17928
aI17967
aI18078
aI18080
aI18101
aI18104
aI18179
aI18185
aI18217
aI18260
aI18261
aI18306
aI18314
aI18359
aI18390
aI18406
aI18463
aI18465
aI18515
aI18517
aI18689
aI18748
aI18898
aI19027
aI19043
aI19044
aI19079
aI19101
aI19139
aI19214
aI19216
aI19274
aI19282
aI19285
aI19474
aI19579
aI19743
aI19819
aI19930
aI19951
aI19969
aI20076
aI20122
aI20150
aI20224
aI20250
aI20252
aI20262
aI20263
aI20266
aI20271
aI20281
aI20312
aI20363
aI20383
aI20386
aI20387
aI20390
aI20541
aI20635
aI20641
aI20704
aI20827
aI20837
aI20886
aI20950
aI20972
aI20984
aI21020
aI21179
aI21250
aI21455
aI21468
aI21531
aI21552
aI21553
aI21565
aI21566
aI21570
aI21580
aI21586
aI21627
aI21693
aI21695
aI21711
aI21712
aI21755
aI21756
aI21842
aI21857
aI21864
aI21878
aI21879
aI21884
aI21917
aI22096
aI22099
aI22167
aI22198
aI22215
aI22297
aI22326
aI22348
aI22445
aI22477
aI22492
aI22515
aI22528
aI22538
aI22539
aI22595
aI22604
aI22618
aI22638
aI22642
aI22649
aI22721
aI22722
aI22748
aI22843
aI22856
aI23014
aI23024
aI23089
aI23097
aI23141
aI23165
aI23221
aI23272
aI23332
aI23340
aI23347
aI23351
aI23358
aI23359
aI23365
aI23393
aI23394
aI23396
aI23408
aI23447
aI23458
aI23473
aI23488
aI23512
aI23514
aI23516
aI23517
aI23527
aI23533
aI23538
aI23558
aI23560
aI23589
aI23611
aI23612
aI23977
aI24008
aI24054
aI24180
aI24228
aI24319
aI24376
aI24380
aI24389
aI24395
aI24428
aI24447
aI24514
aI24515
aI24640
aI24641
aI24642
aI24679
aI24767
aI24768
aI24815
aI24934
aI24955
aI24987
aI25014
aI25053
aI25060
aI25065
aI25073
aI25075
aI25077
aI25079
aI25121
aI25141
aI25154
aI25175
aI25187
aI25194
aI25195
aI25208
aI25247
aI25252
aI25262
aI25266
aI25299
aI25335
aI25346
aI25381
aI25402
aI25404
aI25433
aI25531
aI25584
aI25588
aI25644
aI25651
aI25652
aI25671
aI25748
aI25779
aI25798
aI25818
aI25845
aI25854
aI25874
aI25888
aI25971
aI26060
aI26114
aI26144
aI26163
aI26167
aI26187
aI26199
aI26249
aI26250
aI26256
aI26289
aI26343
aI26369
aI26384
aI26501
aI26507
aI26513
aI26535
aI26547
aI26548
aI26653
aI26670
aI26799
aI26888
aI26917
aI26956
aI26957
aI26960
aI27045
aI27176
aI27220
aI27256
aI27264
aI27288
aI27298
aI27309
aI27392
aI27412
aI27427
aI27466
aI27574
aI27584
aI27690
aI27737
aI27788
aI27909
aI27949
aI27989
aI28036
aI28050
aI28057
aI28069
aI28076
aI28160
aI28253
aI28282
aI28293
aI28302
aI28330
aI28390
aI28408
aI28417
aI28491
aI28506
aI28507
aI28517
aI28522
aI28524
aI28531
aI28534
aI28580
aI28589
aI28614
aI28703
aI28707
aI28717
aI28729
aI28746
aI28788
aI28792
aI28808
aI28810
aI28822
aI28824
aI28831
aI28839
aI28847
aI28860
aI28871
aI28931
aI28951
aI28955
aI28982
aI29031
aI29074
aI29075
aI29085
aI29110
aI29137
aI29202
aI29229
aI29238
aI29265
aI29341
aI29347
aI29357
aI29359
aI29360
aI29372
aI29392
aI29399
aI29401
aI29404
aI29463
aI29467
aI29496
aI29544
aI29597
aI29610
aI29636
aI29678
aI29717
aI29726
aI29729
aI29730
aI29731
aI29763
aI29764
aI29800
aI29858
aI29860
aI29876
aI29878
aI29879
aI29905
aI29918
aI29928
aI29993
aI30017
aI30049
aI30232
aI30253
aI30274
aI30292
aI30344
aI30370
aI30497
aI30546
aI30547
aI30548
aI30571
aI30601
aI30605
aI30610
aI30617
aI30627
aI30663
aI30666
aI30667
aI30669
aI30672
aI30675
aI30676
aI30677
aI30678
aI30682
aI30748
aI30775
aI30776
aI30857
aI30859
aI30864
aI30880
aI30896
aI30900
aI30903
aI30942
aI30998
aI31012
aI31019
aI31032
aI31065
aI31115
aI31121
aI31131
aI31170
aI31172
aI31179
aI31217
aI31229
aI31243
aI31257
aI31264
aI31290
aI31291
aI31292
aI31360
aI31368
aI31381
aI31395
aI31397
aI31441
aI31464
aI31517
aI31613
aI31629
aI31630
aI31633
aI31634
aI31636
aI31653
aI31659
aI31664
aI31666
aI31688
aI31689
aI31706
aI31763
aI31850
aI31896
aI31960
aI31981
aI31992
aI32001
aI32004
aI32066
aI32117
aI32149
aI32150
aI32153
aI32154
aI32187
aI32203
aI32257
aI32268
aI32270
aI32303
aI32304
aI32326
aI32348
aI32364
aI32373
aI32445
aI32564
aI32704
aa.