(lp1
(lp2
I6399
aI6520
aI6521
aI6636
aI6637
aI6648
aI6649
aI6764
aI6765
aI6890
aI6891
aI6892
aI6893
aI7018
aI7019
aI7020
aI7146
aI7147
aI7148
aI7274
aI7275
aI7276
aI7400
aI7401
aI7402
aI7403
aI7528
aI7529
aI7530
aI7655
aI7656
aI7657
aI7784
aI7785
aI7786
aI7913
aI7914
aI7915
aI8043
aI8044
aI8045
aI8046
aI8174
aI8175
aI8179
aI8180
aI8317
aI8318
aI8319
aI8445
aI8446
aI8447
aI8573
aI8574
aI8575
aI8703
aI8831
aI8959
aI9206
aI9207
aI9726
aI9727
aI9854
aI9855
aI9980
aI9981
aI9982
aI10108
aI10109
aI10110
aI10234
aI10235
aI10362
aI10363
aI22007
aI22009
aI22134
aI22135
aI22136
aI22247
aI22257
aI22258
aI22376
aI22385
aI22386
aI22512
aI22513
aI22628
aI22639
aI22640
aI22641
aI22768
aI22769
aI22896
aI22897
aI22898
aI23011
aI23015
aI23016
aI23025
aI23142
aI23143
aI23144
aI23267
aI23269
aI23270
aI23271
aI23394
aI23398
aI23399
aI23519
aI23521
aI23522
aI23524
aI23525
aI23650
aI23651
aI23652
aI23653
aI23777
aI23778
aI23779
aI23780
aI23905
aI23906
aI23907
aI23908
aI24033
aI24034
aI24035
aI24161
aI24162
aI24163
aI24164
aI24289
aI24290
aI24291
aI24405
aI24418
aI24419
aI24420
aI24546
aI24547
aI24548
aI24674
aI24675
aI24676
aI24802
aI24803
aI24804
aI24930
aI24931
aI24932
aI24985
aI25058
aI25059
aI25060
aI25061
aI25062
aI25136
aI25189
aI25190
aI25191
aI25192
aI25319
aI25320
aI25321
aI25325
aI25326
aI25451
aI25452
aI25454
aI25455
aI25456
aI25582
aI25583
aI25584
aI25593
aI25594
aI25711
aI25712
aI25839
aI25840
aI25841
aI25967
aI25968
aI25969
aI26097
aI26098
aI26225
aI26226
aI26355
aI26356
aI26357
aI26483
aI26484
aI26485
aI26600
aI26614
aI26615
aI26742
aI26743
aa(lp3
I6637
aI6765
aI6892
aI7018
aI7019
aI7020
aI7146
aI7147
aI7274
aI7275
aI7528
aI7529
aI7656
aI7784
aI7785
aI7913
aI7914
aI8045
aI8317
aI9727
aI9855
aI9980
aI9981
aI10108
aI10109
aI10234
aI10235
aI10363
aI22385
aI22512
aI23016
aI23270
aI23524
aI23525
aI23652
aI23778
aI23779
aI23906
aI23907
aI24034
aI24035
aI24162
aI24163
aI24290
aI24291
aI24418
aI24419
aI24546
aI24547
aI24674
aI24675
aI24676
aI24802
aI24803
aI24804
aI24930
aI24931
aI24932
aI25061
aI25191
aI25192
aI25319
aI25583
aI25584
aI25711
aI25712
aI25840
aI25968
aI26097
aI26098
aI26225
aI26226
aI26355
aI26356
aI26357
aI26483
aI26484
aI26485
aI26614
aa(lp4
I7146
aI7147
aI7529
aI7914
aI9981
aI10109
aI23016
aI23524
aI23525
aI24034
aI24035
aI24162
aI24163
aI24290
aI24291
aI24418
aI24546
aI24674
aI24802
aI24803
aI24804
aI24931
aI24932
aI25583
aI25712
aI26097
aI26098
aI26225
aI26226
aI26355
aI26356
aI26484
aI26485
aa(lp5
a(lp6
a(lp7
a(lp8
a(lp9
a.