(lp1
(lp2
a(lp3
a(lp4
a(lp5
a(lp6
a(lp7
a(lp8
I4670
aI23083
aa(lp9
I127
aI169
aI173
aI176
aI196
aI319
aI513
aI523
aI641
aI692
aI743
aI824
aI921
aI923
aI962
aI1012
aI1036
aI1062
aI1063
aI1065
aI1138
aI1139
aI1140
aI1163
aI1187
aI1192
aI1193
aI1282
aI1322
aI1436
aI1453
aI1496
aI1699
aI1721
aI1757
aI1815
aI1826
aI1855
aI1954
aI2070
aI2076
aI2211
aI2227
aI2276
aI2316
aI2364
aI2372
aI2486
aI2511
aI2517
aI2757
aI2766
aI2951
aI2975
aI2976
aI3090
aI3099
aI3160
aI3243
aI3288
aI3330
aI3484
aI3629
aI3635
aI3649
aI3715
aI3747
aI4019
aI4064
aI4111
aI4134
aI4210
aI4236
aI4286
aI4365
aI4475
aI4490
aI4492
aI4566
aI4610
aI4640
aI4671
aI4866
aI4888
aI5030
aI5075
aI5209
aI5214
aI5220
aI5324
aI5338
aI5388
aI5414
aI5454
aI5467
aI5472
aI5473
aI5520
aI5665
aI5772
aI5806
aI5829
aI5966
aI6051
aI6171
aI6175
aI6176
aI6273
aI6304
aI6317
aI6510
aI6628
aI6769
aI6790
aI6794
aI6828
aI6839
aI6840
aI6843
aI6844
aI6853
aI6854
aI6881
aI6912
aI6958
aI7035
aI7216
aI7218
aI7219
aI7232
aI7288
aI7359
aI7373
aI7489
aI7497
aI7838
aI7972
aI7973
aI7992
aI8027
aI8042
aI8117
aI8138
aI8139
aI8167
aI8191
aI8224
aI8266
aI8333
aI8334
aI8383
aI8411
aI8486
aI8501
aI8552
aI8571
aI8630
aI8658
aI8703
aI8796
aI8797
aI8798
aI8804
aI8808
aI8870
aI8890
aI8910
aI8912
aI8919
aI8938
aI8948
aI8952
aI8962
aI8971
aI8998
aI8999
aI9193
aI9321
aI9449
aI9508
aI9560
aI9654
aI9678
aI9701
aI9710
aI9746
aI9750
aI9760
aI9775
aI9802
aI9860
aI9877
aI9886
aI9887
aI9904
aI9905
aI9968
aI10044
aI10059
aI10200
aI10210
aI10211
aI10252
aI10282
aI10333
aI10358
aI10364
aI10549
aI10676
aI10791
aI10792
aI10856
aI10968
aI10969
aI10970
aI10973
aI11125
aI11166
aI11167
aI11168
aI11234
aI11255
aI11347
aI11441
aI11475
aI11515
aI11535
aI11556
aI11735
aI11771
aI11776
aI11792
aI11950
aI11971
aI12045
aI12232
aI12233
aI12318
aI12376
aI12441
aI12474
aI12491
aI12492
aI12504
aI12601
aI12625
aI12634
aI12650
aI12662
aI12675
aI12681
aI12707
aI12715
aI12748
aI12767
aI12778
aI12870
aI12876
aI12911
aI13094
aI13105
aI13109
aI13127
aI13157
aI13159
aI13166
aI13186
aI13213
aI13234
aI13238
aI13256
aI13329
aI13332
aI13337
aI13367
aI13421
aI13479
aI13503
aI13546
aI13577
aI13631
aI13645
aI13705
aI13713
aI13714
aI13729
aI13753
aI13766
aI13834
aI13870
aI13906
aI13907
aI13930
aI13931
aI13956
aI13959
aI13980
aI14003
aI14008
aI14065
aI14075
aI14080
aI14098
aI14151
aI14186
aI14211
aI14222
aI14230
aI14237
aI14244
aI14264
aI14275
aI14296
aI14344
aI14353
aI14371
aI14382
aI14388
aI14396
aI14419
aI14509
aI14541
aI14542
aI14560
aI14626
aI14637
aI14756
aI14766
aI14835
aI14845
aI14955
aI14978
aI15123
aI15201
aI15235
aI15335
aI15361
aI15414
aI15489
aI15542
aI15583
aI15600
aI15670
aI15675
aI15681
aI15750
aI15797
aI15869
aI15875
aI15989
aI15992
aI15997
aI16009
aI16010
aI16012
aI16068
aI16107
aI16149
aI16153
aI16251
aI16285
aI16334
aI16339
aI16350
aI16373
aI16607
aI16778
aI16779
aI16830
aI16923
aI16930
aI16950
aI16978
aI17162
aI17323
aI17565
aI17668
aI17795
aI17811
aI17828
aI17861
aI17866
aI17869
aI17990
aI18079
aI18112
aI18138
aI18179
aI18221
aI18284
aI18355
aI18360
aI18456
aI18463
aI18468
aI18522
aI18604
aI18693
aI18867
aI18871
aI19079
aI19286
aI19340
aI19413
aI19431
aI19468
aI19477
aI19478
aI19522
aI19536
aI19667
aI19668
aI19798
aI19888
aI19890
aI20123
aI20145
aI20165
aI20241
aI20246
aI20258
aI20268
aI20303
aI20304
aI20317
aI20328
aI20378
aI20396
aI20428
aI20440
aI20451
aI20485
aI20650
aI20664
aI20729
aI20766
aI20820
aI20825
aI20834
aI20906
aI21038
aI21160
aI21161
aI21193
aI21209
aI21300
aI21309
aI21314
aI21336
aI21411
aI21458
aI21470
aI21672
aI21673
aI21727
aI21919
aI21986
aI22009
aI22092
aI22093
aI22136
aI22158
aI22215
aI22217
aI22223
aI22235
aI22326
aI22344
aI22390
aI22411
aI22501
aI22616
aI22697
aI22702
aI22703
aI22705
aI22752
aI22776
aI22778
aI22815
aI22885
aI22888
aI22899
aI22950
aI22958
aI22960
aI22968
aI22984
aI22988
aI23005
aI23017
aI23087
aI23090
aI23360
aI23487
aI23556
aI23726
aI23793
aI23846
aI23856
aI23857
aI23861
aI23870
aI23918
aI23974
aI23981
aI23989
aI24047
aI24062
aI24067
aI24109
aI24110
aI24358
aI24366
aI24485
aI24486
aI24532
aI24616
aI24626
aI24627
aI24685
aI24735
aI24749
aI24806
aI24813
aI24876
aI24944
aI24992
aI25005
aI25045
aI25183
aI25201
aI25211
aI25444
aI25453
aI25458
aI25467
aI25531
aI25572
aI25599
aI25652
aI25676
aI25686
aI25720
aI25721
aI25735
aI25760
aI25783
aI25792
aI25795
aI25797
aI25848
aI25849
aI25851
aI25900
aI25933
aI26016
aI26032
aI26106
aI26126
aI26174
aI26207
aI26208
aI26309
aI26334
aI26369
aI26404
aI26406
aI26487
aI26494
aI26495
aI26522
aI26678
aI26686
aI26703
aI26724
aI26774
aI26793
aI26805
aI26813
aI26814
aI26831
aI26959
aI26960
aI26964
aI26965
aI27023
aI27029
aI27055
aI27065
aI27116
aI27216
aI27224
aI27242
aI27243
aI27325
aI27360
aI27378
aI27380
aI27404
aI27413
aI27448
aI27502
aI27626
aI27627
aI27695
aI27696
aI27742
aI27823
aI27826
aI27869
aI27870
aI27905
aI27929
aI27937
aI28024
aI28073
aI28092
aI28093
aI28114
aI28145
aI28152
aI28207
aI28208
aI28232
aI28233
aI28248
aI28254
aI28279
aI28280
aI28298
aI28311
aI28314
aI28340
aI28384
aI28393
aI28399
aI28422
aI28426
aI28442
aI28461
aI28468
aI28475
aI28492
aI28494
aI28544
aI28564
aI28574
aI28575
aI28638
aI28640
aI28642
aI28721
aI28741
aI28807
aI28819
aI28829
aI28836
aI28840
aI28867
aI28871
aI28872
aI28873
aI28908
aI28909
aI28917
aI28992
aI29042
aI29072
aI29078
aI29092
aI29096
aI29097
aI29114
aI29119
aI29127
aI29147
aI29185
aI29187
aI29220
aI29258
aI29293
aI29329
aI29336
aI29346
aI29384
aI29392
aI29442
aI29491
aI29503
aI29504
aI29561
aI29587
aI29644
aI29670
aI29685
aI29758
aI29827
aI29843
aI30005
aI30007
aI30010
aI30011
aI30083
aI30228
aI30249
aI30265
aI30268
aI30355
aI30406
aI30416
aI30437
aI30508
aI30831
aI30863
aI30868
aI30902
aI31000
aI31012
aI31051
aI31052
aI31056
aI31084
aI31246
aI31251
aI31259
aI31316
aI31374
aI31414
aI31441
aI31474
aI31487
aI31505
aI31537
aI31538
aI31622
aI31638
aI31702
aI31724
aI31749
aI31754
aI31764
aI31789
aI31805
aI31867
aI31892
aI31901
aI31916
aI31949
aI31985
aI31992
aI32129
aI32147
aI32190
aI32199
aI32238
aI32475
aI32512
aI32530
aI32538
aI32587
aI32612
aI32634
aI32680
aI32686
aI32703
aI32731
aI32748
aI32749
aa.