(lp1
(lp2
a(lp3
a(lp4
a(lp5
a(lp6
a(lp7
I27777
aa(lp8
I5409
aI5664
aI5919
aI6286
aI9618
aI9746
aI9873
aI9874
aI10130
aI10257
aI10385
aI10513
aI10767
aI10895
aI11019
aI11524
aI11526
aI27520
aI27648
aI27649
aI27751
aI27776
aa(lp9
I8
aI29
aI38
aI39
aI65
aI136
aI158
aI191
aI259
aI287
aI289
aI312
aI386
aI783
aI1150
aI1198
aI1613
aI1818
aI1849
aI1865
aI1887
aI1937
aI1938
aI2001
aI2103
aI2128
aI2246
aI2307
aI2345
aI2365
aI2436
aI2437
aI2503
aI2504
aI2517
aI2695
aI2736
aI2822
aI2895
aI3123
aI3283
aI3416
aI3645
aI3660
aI4011
aI4058
aI4097
aI4101
aI4109
aI4156
aI4237
aI4238
aI4395
aI4408
aI4414
aI4443
aI4468
aI4469
aI4470
aI4505
aI4523
aI4525
aI4535
aI4542
aI4623
aI4637
aI4638
aI4639
aI4642
aI4664
aI4673
aI4692
aI4700
aI4771
aI4894
aI4904
aI4921
aI5022
aI5023
aI5029
aI5030
aI5031
aI5032
aI5043
aI5119
aI5151
aI5152
aI5153
aI5158
aI5161
aI5279
aI5280
aI5281
aI5336
aI5365
aI5366
aI5406
aI5407
aI5408
aI5412
aI5444
aI5457
aI5465
aI5473
aI5488
aI5534
aI5535
aI5536
aI5537
aI5539
aI5540
aI5542
aI5544
aI5546
aI5622
aI5663
aI5670
aI5720
aI5790
aI5791
aI5792
aI5794
aI5797
aI5823
aI5851
aI5854
aI5873
aI5918
aI5920
aI5922
aI5924
aI5939
aI5940
aI5941
aI5943
aI5955
aI5965
aI5971
aI5978
aI5982
aI5983
aI5985
aI6046
aI6047
aI6053
aI6070
aI6082
aI6106
aI6111
aI6112
aI6157
aI6158
aI6159
aI6170
aI6174
aI6175
aI6176
aI6214
aI6255
aI6257
aI6285
aI6287
aI6291
aI6302
aI6303
aI6304
aI6322
aI6342
aI6385
aI6412
aI6413
aI6415
aI6418
aI6439
aI6449
aI6472
aI6534
aI6535
aI6543
aI6561
aI6578
aI6579
aI6660
aI6663
aI6695
aI6704
aI6770
aI6842
aI6843
aI6948
aI7097
aI7279
aI7280
aI7440
aI7451
aI7565
aI7602
aI7701
aI8039
aI8083
aI8084
aI8088
aI8117
aI8196
aI8201
aI8292
aI8323
aI8329
aI8353
aI8456
aI8457
aI8458
aI8470
aI8519
aI8576
aI8587
aI8588
aI8590
aI8596
aI8620
aI8640
aI8641
aI8716
aI8717
aI8718
aI8807
aI8821
aI8845
aI8847
aI8860
aI8935
aI8936
aI8977
aI9073
aI9087
aI9104
aI9105
aI9115
aI9135
aI9177
aI9233
aI9234
aI9253
aI9306
aI9368
aI9378
aI9380
aI9381
aI9464
aI9488
aI9489
aI9490
aI9491
aI9494
aI9500
aI9576
aI9616
aI9617
aI9695
aI9697
aI9701
aI9744
aI9747
aI9787
aI9872
aI9894
aI9902
aI9919
aI9977
aI10000
aI10001
aI10002
aI10085
aI10092
aI10109
aI10128
aI10129
aI10256
aI10258
aI10263
aI10289
aI10348
aI10384
aI10386
aI10419
aI10512
aI10515
aI10516
aI10521
aI10539
aI10542
aI10563
aI10600
aI10621
aI10639
aI10640
aI10641
aI10642
aI10646
aI10647
aI10649
aI10766
aI10769
aI10770
aI10773
aI10856
aI10892
aI10894
aI10907
aI10938
aI10940
aI10950
aI10951
aI10969
aI11020
aI11022
aI11026
aI11042
aI11094
aI11144
aI11145
aI11146
aI11147
aI11148
aI11156
aI11160
aI11167
aI11208
aI11221
aI11271
aI11272
aI11273
aI11275
aI11282
aI11286
aI11290
aI11348
aI11399
aI11400
aI11402
aI11408
aI11411
aI11419
aI11440
aI11473
aI11512
aI11525
aI11527
aI11528
aI11530
aI11534
aI11538
aI11545
aI11590
aI11602
aI11605
aI11606
aI11660
aI11779
aI11793
aI11796
aI11800
aI11829
aI11884
aI11896
aI11905
aI11907
aI11924
aI11972
aI12060
aI12087
aI12125
aI12126
aI12142
aI12163
aI12192
aI12213
aI12216
aI12217
aI12223
aI12291
aI12334
aI12337
aI12399
aI12416
aI12437
aI12438
aI12442
aI12487
aI12583
aI12584
aI12640
aI12642
aI12643
aI12649
aI12673
aI12675
aI12707
aI12715
aI12726
aI12732
aI12756
aI12759
aI12762
aI12768
aI12770
aI12791
aI12828
aI12834
aI12876
aI12886
aI12937
aI12971
aI12973
aI12976
aI12985
aI13013
aI13056
aI13057
aI13077
aI13079
aI13084
aI13088
aI13094
aI13113
aI13116
aI13142
aI13199
aI13202
aI13205
aI13206
aI13225
aI13237
aI13325
aI13331
aI13380
aI13413
aI13454
aI13496
aI13510
aI13584
aI13602
aI13619
aI13648
aI13654
aI13731
aI13824
aI13875
aI13878
aI13879
aI13928
aI13929
aI13968
aI13970
aI13978
aI14022
aI14035
aI14044
aI14054
aI14113
aI14123
aI14124
aI14197
aI14226
aI14259
aI14314
aI14315
aI14352
aI14376
aI14385
aI14445
aI14459
aI14467
aI14501
aI14573
aI14612
aI14675
aI14762
aI14803
aI14855
aI14885
aI14899
aI14900
aI14937
aI14945
aI14954
aI15029
aI15055
aI15145
aI15181
aI15248
aI15272
aI15284
aI15403
aI15499
aI15509
aI15541
aI15617
aI15627
aI15789
aI16034
aI16059
aI16077
aI16147
aI16164
aI16179
aI16210
aI16289
aI16290
aI16648
aI16704
aI16777
aI16842
aI16900
aI17029
aI17077
aI17097
aI17122
aI17176
aI17200
aI17232
aI17354
aI17438
aI17479
aI17590
aI17607
aI17813
aI17829
aI17883
aI17983
aI17985
aI18070
aI18088
aI18141
aI18199
aI18241
aI18331
aI18339
aI18341
aI18350
aI18370
aI18371
aI18529
aI18588
aI18657
aI18739
aI18743
aI18744
aI18914
aI19254
aI19286
aI19360
aI19379
aI19386
aI19488
aI19528
aI19594
aI19655
aI19662
aI19701
aI19720
aI19842
aI20056
aI20119
aI20204
aI20276
aI20419
aI20431
aI20841
aI20845
aI20997
aI20998
aI20999
aI21000
aI21001
aI21002
aI21015
aI21103
aI21126
aI21127
aI21128
aI21129
aI21131
aI21132
aI21141
aI21142
aI21158
aI21180
aI21205
aI21249
aI21250
aI21252
aI21253
aI21258
aI21259
aI21269
aI21270
aI21271
aI21351
aI21367
aI21376
aI21377
aI21505
aI21506
aI21554
aI21983
aI22097
aI22116
aI22227
aI22475
aI22601
aI22602
aI22764
aI22844
aI22915
aI22964
aI22986
aI23014
aI23016
aI23035
aI23042
aI23052
aI23141
aI23203
aI23272
aI23274
aI23279
aI23286
aI23328
aI23365
aI23419
aI23476
aI23537
aI23605
aI23678
aI23805
aI23857
aI24130
aI24138
aI24242
aI24318
aI24429
aI24560
aI24638
aI24639
aI24682
aI24685
aI24767
aI24836
aI24837
aI24964
aI24965
aI25086
aI25118
aI25176
aI25177
aI25200
aI25201
aI25207
aI25311
aI25315
aI25418
aI25428
aI25583
aI25595
aI25722
aI26066
aI26153
aI26189
aI26191
aI26270
aI26288
aI26355
aI26358
aI26429
aI26433
aI26486
aI26494
aI26495
aI26535
aI26543
aI26555
aI26644
aI26676
aI26677
aI26709
aI26730
aI26731
aI27107
aI27116
aI27178
aI27186
aI27207
aI27284
aI27323
aI27340
aI27484
aI27625
aI27871
aI27879
aI27905
aI28047
aI28090
aI28331
aI28780
aI28879
aI28917
aI29092
aI29171
aI29215
aI29220
aI29223
aI29250
aI29251
aI29263
aI29266
aI29284
aI29285
aI29294
aI29367
aI29393
aI29427
aI29428
aI29475
aI29601
aI29639
aI29668
aI29697
aI29721
aI30012
aI30119
aI30150
aI30182
aI30185
aI30301
aI30330
aI30342
aI30372
aI30559
aI30635
aI30654
aI30694
aI30705
aI30832
aI30907
aI31017
aI31018
aI31042
aI31081
aI31090
aI31093
aI31144
aI31207
aI31209
aI31494
aI31536
aI31539
aI31568
aI31569
aI31599
aI31620
aI31725
aI31733
aI31748
aI31763
aI31809
aI31819
aI31843
aI31891
aI31950
aI32017
aI32087
aI32099
aI32120
aI32267
aI32268
aI32288
aI32321
aI32322
aI32365
aI32453
aI32457
aI32459
aI32510
aI32516
aI32609
aI32621
aI32641
aI32648
aI32656
aI32657
aI32717
aa.