(lp1
(lp2
I1568
aI1951
aI5564
aI5565
aI5693
aI5694
aI5821
aI5822
aI5949
aI5950
aI6075
aI6197
aI6198
aI6323
aI6324
aI6325
aI6326
aI6443
aI6444
aI6445
aI6446
aI6558
aI6559
aI6571
aI6572
aI6686
aI6687
aI6688
aI6813
aI6814
aI6815
aI6940
aI6941
aI7068
aI7069
aI7193
aI7194
aI7195
aI7196
aI7321
aI7322
aI7323
aI7324
aI7834
aI7835
aI7961
aI7962
aI7963
aI8094
aI8095
aI8096
aI8222
aI8223
aI8224
aI8350
aI8351
aI8352
aI8495
aI8496
aI8623
aI8625
aI8626
aI8753
aI8754
aI8755
aI8882
aI8883
aI9010
aI9011
aI9138
aI9139
aI9255
aI9266
aI9267
aI9383
aI9394
aI9395
aI9522
aI9523
aI9650
aI9651
aI9775
aI9776
aI9777
aI9904
aI9905
aI9906
aI10029
aI10030
aI10157
aI10158
aI10411
aI10412
aI21925
aI21926
aI21931
aI21932
aI21933
aI22057
aI22058
aI22059
aI22060
aI22180
aI22181
aI22308
aI22309
aI22434
aI22435
aI22562
aI22563
aI22690
aI22691
aI22819
aI22820
aI22938
aI22948
aI23065
aI23066
aI25374
aI25499
aI25632
aI25633
aI25760
aI25761
aI25888
aI25889
aI26016
aI26017
aI26402
aI26403
aI27646
aa(lp3
I5693
aI5694
aI5821
aI5822
aI5949
aI5950
aI6443
aI6686
aI6687
aI6688
aI6814
aI6940
aI6941
aI7068
aI8094
aI8095
aI8223
aI8224
aI8495
aI8496
aI8625
aI8754
aI8882
aI8883
aI9010
aI9011
aI9138
aI9139
aI9266
aI9267
aI9394
aI9395
aI9522
aI9523
aI9650
aI9776
aI9905
aI10029
aI10157
aI22059
aI22181
aI22308
aI22309
aI22435
aI22563
aa(lp4
I6687
aa(lp5
a(lp6
a(lp7
a(lp8
a(lp9
a.