(lp1
(lp2
I5587
aI5715
aI5716
aI5843
aI5844
aI5972
aI5973
aI6097
aI6098
aI6099
aI6220
aI6221
aI6225
aI6346
aI6347
aI6466
aI6467
aI6581
aI6582
aI6594
aI6709
aI6710
aI6835
aI6836
aI6837
aI6838
aI6963
aI6964
aI7091
aI7092
aI7219
aI7220
aI7345
aI7346
aI7347
aI7348
aI7473
aI7474
aI7599
aI7600
aI7601
aI7726
aI7727
aI7728
aI7729
aI7857
aI7858
aI7985
aI7986
aI8117
aI8118
aI8245
aI8246
aI8247
aI8376
aI8379
aI8380
aI8388
aI8389
aI8390
aI8391
aI8518
aI8519
aI8648
aI8649
aI8650
aI8776
aI8777
aI8778
aI8904
aI8905
aI8906
aI9032
aI9033
aI9034
aI9160
aI9161
aI9162
aI9163
aI9278
aI9288
aI9289
aI9290
aI9416
aI9417
aI9418
aI9544
aI9545
aI9546
aI9672
aI9673
aI9674
aI9799
aI9800
aI9926
aI9927
aI9928
aI10052
aI10053
aI10054
aI10180
aI10181
aI10182
aI10434
aI18206
aI21952
aI21953
aI22080
aI22081
aI22082
aI22172
aI22202
aI22203
aI22204
aI22324
aI22330
aI22331
aI22332
aI22457
aI22458
aI22549
aI22585
aI22586
aI22713
aI22714
aI22842
aI22843
aI22953
aI22957
aI22961
aI22962
aI22970
aI23089
aI23090
aI23207
aI23212
aI23214
aI23215
aI23216
aI23342
aI23343
aI23344
aI23468
aI23469
aI23596
aI23597
aI23722
aI23723
aI23724
aI23850
aI23851
aI23978
aI23979
aI24106
aI24107
aI24234
aI24362
aI24490
aI24618
aI24874
aI25002
aI25003
aI25133
aI25134
aI25262
aI25783
aI25911
aI26039
aI26040
aI26169
aI26427
aa(lp3
I5844
aI6709
aI6710
aI6963
aI6964
aI7091
aI7092
aI7219
aI7220
aI7473
aI7727
aI7728
aI7857
aI7858
aI7985
aI7986
aI8117
aI8118
aI8518
aI8519
aI8648
aI8649
aI8776
aI8777
aI8904
aI8905
aI9034
aI9417
aI9545
aI9546
aI9672
aI9673
aI9674
aI9927
aI10052
aI22081
aI22203
aI22331
aI22586
aI22714
aI22842
aI22961
aI22962
aI23214
aI23215
aI23216
aI23342
aI23469
aI23596
aI23851
aI24106
aa(lp4
I6709
aI6710
aI6963
aI6964
aI8649
aI8776
aa(lp5
a(lp6
a(lp7
a(lp8
a(lp9
a.