(lp1
(lp2
a(lp3
a(lp4
a(lp5
a(lp6
a(lp7
I18177
aI24013
aa(lp8
I16649
aI16663
aI16777
aI16821
aI16843
aI17078
aI17186
aI17214
aI17690
aI18187
aI18204
aI18231
aI18322
aI18433
aI18562
aI18863
aI18866
aI19033
aI19623
aI19636
aI19727
aI19760
aI19777
aI20531
aI20575
aI20636
aI20641
aI20643
aI20769
aI20801
aI20835
aI20849
aI20866
aI20898
aI21012
aI21052
aI21058
aI21384
aI21457
aI21459
aI21461
aI21468
aI21543
aI21605
aI21645
aI21646
aI21668
aI21960
aI21969
aI22122
aI22161
aI22166
aI22174
aI22175
aI22197
aI22200
aI22216
aI22285
aI22287
aI22333
aI22339
aI22377
aI22538
aI22629
aI22677
aI22770
aI22887
aI23073
aI23075
aI23092
aI23098
aI23101
aI23198
aI23215
aI23273
aI23285
aI23342
aI23493
aI23724
aI23788
aI23813
aI23858
aI23862
aI24015
aI24113
aI24238
aI24288
aI24369
aI24392
aI24620
aI25078
aI25115
aI25116
aI25145
aI25146
aI25150
aI25211
aI25287
aI25311
aI25340
aI25384
aI25570
aI25886
aI25899
aI26076
aI26088
aI26181
aI26260
aI26293
aI26354
aI26417
aI26446
aI26541
aI26575
aI26640
aI26709
aI26710
aI26922
aI26923
aI26932
aI27074
aI27195
aI27282
aI27405
aI27596
aI27714
aI27738
aI27759
aI27763
aI27765
aI27790
aI27865
aI27935
aI28113
aI28216
aI28232
aI28233
aI28321
aI28341
aI28342
aI28455
aI28564
aI28578
aI28591
aI28592
aI28631
aI28716
aI28777
aI28801
aI28812
aI28818
aI28864
aI28888
aI28936
aI29009
aI29113
aI29200
aI29227
aI29373
aI29558
aI29570
aI29617
aI29639
aI29642
aI29698
aI29701
aI29825
aI29829
aI29844
aI29875
aI29880
aI29995
aI30087
aI30088
aI30152
aI30199
aI30238
aI30288
aI30349
aI30361
aI30387
aI30482
aI30550
aI30914
aI30927
aI31001
aI31002
aI31013
aI31048
aI31076
aI31212
aI31256
aI31274
aI31328
aI31384
aI31392
aI31405
aI31439
aI31477
aI31511
aI31617
aI31619
aI31622
aI31632
aI31680
aI31774
aI31808
aI31849
aI31867
aI31868
aI31909
aI31934
aI31941
aI32114
aI32165
aI32184
aI32280
aI32398
aI32433
aI32456
aI32473
aI32507
aI32624
aa(lp9
I113
aI116
aI240
aI243
aI374
aI501
aI503
aI510
aI628
aI760
aI1016
aI1017
aI1146
aI1544
aI1681
aI3535
aI3760
aI4412
aI4811
aI5685
aI5914
aI6529
aI6654
aI7800
aI7802
aI8701
aI9162
aI9917
aI9918
aI10118
aI10344
aI11128
aI11209
aI11531
aI11695
aI11824
aI12438
aI12575
aI12766
aI12854
aI13075
aI13089
aI13149
aI13871
aI14227
aI14552
aI14620
aI15725
aI16290
aI16384
aI16387
aI16392
aI16396
aI16405
aI16415
aI16416
aI16417
aI16427
aI16428
aI16433
aI16434
aI16435
aI16436
aI16437
aI16438
aI16445
aI16450
aI16456
aI16457
aI16458
aI16464
aI16465
aI16513
aI16524
aI16526
aI16528
aI16536
aI16537
aI16538
aI16545
aI16556
aI16557
aI16561
aI16563
aI16565
aI16566
aI16567
aI16568
aI16569
aI16573
aI16578
aI16584
aI16585
aI16586
aI16667
aI16668
aI16672
aI16676
aI16677
aI16691
aI16696
aI16697
aI16698
aI16718
aI16722
aI16724
aI16769
aI16770
aI16771
aI16774
aI16778
aI16779
aI16780
aI16784
aI16789
aI16790
aI16795
aI16796
aI16810
aI16815
aI16820
aI16822
aI16823
aI16824
aI16834
aI16835
aI16836
aI16837
aI16838
aI16839
aI16848
aI16850
aI16852
aI16854
aI16855
aI16856
aI16857
aI16864
aI16900
aI16901
aI16910
aI16911
aI16922
aI16924
aI16935
aI16937
aI16950
aI16967
aI16968
aI16970
aI16972
aI16981
aI16982
aI16987
aI16989
aI16995
aI17026
aI17032
aI17038
aI17039
aI17040
aI17042
aI17047
aI17050
aI17066
aI17068
aI17077
aI17080
aI17082
aI17087
aI17096
aI17097
aI17098
aI17104
aI17115
aI17116
aI17122
aI17155
aI17161
aI17166
aI17167
aI17168
aI17170
aI17171
aI17185
aI17188
aI17190
aI17191
aI17193
aI17196
aI17201
aI17211
aI17215
aI17216
aI17217
aI17218
aI17220
aI17222
aI17224
aI17225
aI17231
aI17232
aI17233
aI17236
aI17238
aI17239
aI17241
aI17243
aI17244
aI17246
aI17248
aI17249
aI17251
aI17281
aI17295
aI17298
aI17302
aI17315
aI17318
aI17320
aI17328
aI17333
aI17341
aI17345
aI17346
aI17347
aI17349
aI17350
aI17352
aI17353
aI17356
aI17366
aI17369
aI17370
aI17371
aI17373
aI17374
aI17376
aI17379
aI17408
aI17409
aI17410
aI17411
aI17417
aI17429
aI17432
aI17440
aI17442
aI17443
aI17449
aI17451
aI17460
aI17461
aI17469
aI17471
aI17473
aI17482
aI17483
aI17484
aI17492
aI17495
aI17502
aI17505
aI17536
aI17538
aI17539
aI17550
aI17553
aI17554
aI17560
aI17569
aI17570
aI17576
aI17584
aI17596
aI17599
aI17605
aI17610
aI17611
aI17613
aI17615
aI17616
aI17629
aI17633
aI17634
aI17667
aI17669
aI17671
aI17698
aI17700
aI17720
aI17721
aI17725
aI17726
aI17729
aI17732
aI17733
aI17734
aI17735
aI17743
aI17753
aI17759
aI17760
aI17762
aI17798
aI17799
aI17801
aI17808
aI17819
aI17829
aI17840
aI17841
aI17842
aI17846
aI17849
aI17850
aI17851
aI17853
aI17862
aI17866
aI17878
aI17879
aI17881
aI17887
aI17891
aI17894
aI17920
aI17921
aI17931
aI17939
aI17940
aI17953
aI17960
aI17962
aI17963
aI17965
aI17967
aI17968
aI17975
aI17976
aI17978
aI17979
aI17980
aI17994
aI18000
aI18006
aI18007
aI18009
aI18012
aI18013
aI18016
aI18017
aI18048
aI18049
aI18051
aI18054
aI18059
aI18067
aI18068
aI18083
aI18097
aI18098
aI18099
aI18100
aI18102
aI18107
aI18108
aI18111
aI18114
aI18116
aI18121
aI18124
aI18126
aI18134
aI18135
aI18136
aI18139
aI18148
aI18149
aI18150
aI18176
aI18178
aI18188
aI18190
aI18191
aI18194
aI18200
aI18201
aI18211
aI18214
aI18215
aI18216
aI18218
aI18219
aI18221
aI18222
aI18224
aI18225
aI18226
aI18232
aI18233
aI18238
aI18242
aI18243
aI18246
aI18251
aI18252
aI18257
aI18258
aI18260
aI18261
aI18262
aI18279
aI18304
aI18312
aI18315
aI18317
aI18318
aI18331
aI18341
aI18342
aI18343
aI18344
aI18346
aI18349
aI18350
aI18351
aI18352
aI18369
aI18370
aI18374
aI18378
aI18379
aI18383
aI18398
aI18401
aI18402
aI18403
aI18404
aI18407
aI18408
aI18409
aI18412
aI18432
aI18459
aI18468
aI18469
aI18470
aI18483
aI18485
aI18498
aI18500
aI18504
aI18506
aI18507
aI18510
aI18514
aI18516
aI18526
aI18527
aI18561
aI18569
aI18575
aI18581
aI18588
aI18594
aI18597
aI18607
aI18622
aI18636
aI18640
aI18653
aI18654
aI18688
aI18690
aI18691
aI18697
aI18699
aI18703
aI18704
aI18706
aI18707
aI18716
aI18734
aI18756
aI18759
aI18771
aI18777
aI18783
aI18787
aI18794
aI18816
aI18817
aI18818
aI18819
aI18826
aI18829
aI18830
aI18833
aI18836
aI18837
aI18843
aI18845
aI18854
aI18855
aI18858
aI18860
aI18861
aI18862
aI18864
aI18868
aI18870
aI18871
aI18872
aI18873
aI18879
aI18888
aI18889
aI18896
aI18897
aI18898
aI18899
aI18904
aI18906
aI18908
aI18909
aI18918
aI18922
aI18923
aI18946
aI18948
aI18952
aI18953
aI18960
aI18969
aI18972
aI18973
aI18978
aI18986
aI19003
aI19004
aI19019
aI19025
aI19028
aI19032
aI19035
aI19036
aI19037
aI19038
aI19052
aI19089
aI19107
aI19108
aI19114
aI19118
aI19119
aI19120
aI19123
aI19126
aI19135
aI19147
aI19148
aI19152
aI19156
aI19167
aI19200
aI19202
aI19205
aI19206
aI19210
aI19213
aI19216
aI19218
aI19221
aI19222
aI19223
aI19224
aI19236
aI19242
aI19243
aI19246
aI19247
aI19248
aI19254
aI19255
aI19261
aI19263
aI19267
aI19271
aI19272
aI19273
aI19274
aI19284
aI19289
aI19291
aI19292
aI19295
aI19299
aI19300
aI19307
aI19308
aI19330
aI19339
aI19340
aI19347
aI19353
aI19355
aI19360
aI19361
aI19368
aI19372
aI19381
aI19382
aI19387
aI19392
aI19393
aI19394
aI19396
aI19397
aI19404
aI19405
aI19411
aI19412
aI19415
aI19417
aI19420
aI19422
aI19428
aI19434
aI19435
aI19459
aI19463
aI19464
aI19469
aI19470
aI19471
aI19475
aI19480
aI19481
aI19485
aI19486
aI19493
aI19494
aI19495
aI19500
aI19501
aI19508
aI19510
aI19512
aI19515
aI19521
aI19530
aI19541
aI19542
aI19543
aI19544
aI19545
aI19546
aI19547
aI19550
aI19551
aI19552
aI19553
aI19555
aI19556
aI19567
aI19568
aI19590
aI19602
aI19603
aI19613
aI19614
aI19615
aI19621
aI19622
aI19625
aI19627
aI19629
aI19631
aI19638
aI19639
aI19646
aI19649
aI19651
aI19652
aI19660
aI19661
aI19662
aI19663
aI19664
aI19669
aI19672
aI19674
aI19675
aI19678
aI19679
aI19680
aI19682
aI19683
aI19684
aI19686
aI19694
aI19695
aI19712
aI19713
aI19715
aI19717
aI19718
aI19719
aI19733
aI19744
aI19746
aI19752
aI19753
aI19754
aI19757
aI19759
aI19761
aI19762
aI19767
aI19771
aI19772
aI19773
aI19774
aI19776
aI19786
aI19787
aI19791
aI19796
aI19797
aI19800
aI19802
aI19803
aI19804
aI19813
aI19814
aI19818
aI19827
aI19846
aI19848
aI19861
aI19862
aI19873
aI19874
aI19877
aI19886
aI19892
aI19897
aI19901
aI19903
aI19910
aI19912
aI19913
aI19915
aI19916
aI19922
aI19925
aI19949
aI19954
aI19956
aI19979
aI19981
aI19982
aI19985
aI19990
aI19991
aI20001
aI20007
aI20029
aI20032
aI20034
aI20035
aI20043
aI20044
aI20050
aI20054
aI20057
aI20063
aI20069
aI20070
aI20099
aI20103
aI20113
aI20114
aI20115
aI20116
aI20117
aI20118
aI20131
aI20134
aI20156
aI20171
aI20177
aI20179
aI20180
aI20181
aI20189
aI20191
aI20193
aI20196
aI20204
aI20207
aI20210
aI20211
aI20227
aI20241
aI20243
aI20244
aI20245
aI20250
aI20258
aI20266
aI20280
aI20281
aI20287
aI20296
aI20305
aI20309
aI20310
aI20311
aI20314
aI20315
aI20329
aI20330
aI20331
aI20339
aI20340
aI20341
aI20343
aI20346
aI20347
aI20352
aI20355
aI20356
aI20359
aI20361
aI20366
aI20371
aI20379
aI20381
aI20382
aI20383
aI20385
aI20386
aI20389
aI20416
aI20417
aI20419
aI20427
aI20429
aI20430
aI20431
aI20439
aI20448
aI20449
aI20450
aI20453
aI20454
aI20455
aI20462
aI20468
aI20477
aI20481
aI20483
aI20486
aI20492
aI20493
aI20494
aI20500
aI20504
aI20505
aI20507
aI20508
aI20513
aI20515
aI20516
aI20521
aI20523
aI20524
aI20526
aI20529
aI20530
aI20532
aI20543
aI20546
aI20547
aI20548
aI20550
aI20560
aI20561
aI20567
aI20569
aI20570
aI20571
aI20572
aI20573
aI20574
aI20576
aI20578
aI20581
aI20583
aI20584
aI20585
aI20593
aI20595
aI20596
aI20602
aI20603
aI20604
aI20605
aI20609
aI20612
aI20620
aI20621
aI20622
aI20635
aI20644
aI20646
aI20647
aI20657
aI20658
aI20666
aI20667
aI20669
aI20670
aI20671
aI20675
aI20677
aI20678
aI20686
aI20687
aI20689
aI20692
aI20695
aI20697
aI20698
aI20699
aI20702
aI20706
aI20710
aI20711
aI20713
aI20714
aI20721
aI20725
aI20737
aI20747
aI20759
aI20762
aI20763
aI20764
aI20765
aI20776
aI20777
aI20778
aI20787
aI20802
aI20814
aI20815
aI20816
aI20817
aI20826
aI20827
aI20828
aI20829
aI20832
aI20837
aI20838
aI20839
aI20842
aI20843
aI20845
aI20854
aI20855
aI20857
aI20858
aI20859
aI20860
aI20861
aI20862
aI20865
aI20868
aI20891
aI20892
aI20897
aI20905
aI20909
aI20932
aI20933
aI20936
aI20937
aI20942
aI20951
aI20954
aI20957
aI20958
aI20964
aI20965
aI20967
aI20974
aI20977
aI20986
aI20987
aI20988
aI20989
aI20990
aI20995
aI21000
aI21006
aI21008
aI21013
aI21016
aI21030
aI21034
aI21041
aI21050
aI21056
aI21061
aI21069
aI21070
aI21075
aI21085
aI21088
aI21093
aI21097
aI21108
aI21112
aI21118
aI21122
aI21127
aI21128
aI21140
aI21149
aI21180
aI21181
aI21182
aI21183
aI21196
aI21203
aI21204
aI21213
aI21223
aI21231
aI21235
aI21236
aI21244
aI21248
aI21262
aI21264
aI21284
aI21304
aI21310
aI21331
aI21334
aI21337
aI21338
aI21340
aI21342
aI21346
aI21347
aI21376
aI21379
aI21382
aI21385
aI21386
aI21392
aI21394
aI21395
aI21397
aI21400
aI21401
aI21404
aI21408
aI21409
aI21410
aI21411
aI21417
aI21419
aI21423
aI21424
aI21427
aI21432
aI21441
aI21443
aI21444
aI21456
aI21458
aI21463
aI21469
aI21470
aI21471
aI21473
aI21474
aI21477
aI21479
aI21482
aI21484
aI21487
aI21490
aI21494
aI21501
aI21505
aI21506
aI21512
aI21513
aI21517
aI21520
aI21536
aI21537
aI21538
aI21545
aI21546
aI21553
aI21554
aI21556
aI21559
aI21561
aI21563
aI21566
aI21568
aI21577
aI21579
aI21581
aI21585
aI21586
aI21588
aI21589
aI21594
aI21596
aI21609
aI21613
aI21614
aI21618
aI21619
aI21622
aI21623
aI21629
aI21631
aI21634
aI21642
aI21643
aI21644
aI21647
aI21662
aI21664
aI21665
aI21666
aI21671
aI21674
aI21675
aI21676
aI21681
aI21684
aI21685
aI21687
aI21692
aI21694
aI21695
aI21696
aI21697
aI21701
aI21705
aI21709
aI21719
aI21720
aI21723
aI21724
aI21726
aI21733
aI21735
aI21736
aI21737
aI21738
aI21739
aI21746
aI21750
aI21751
aI21758
aI21759
aI21760
aI21766
aI21768
aI21775
aI21787
aI21790
aI21791
aI21795
aI21804
aI21807
aI21812
aI21828
aI21829
aI21830
aI21834
aI21835
aI21837
aI21843
aI21846
aI21847
aI21854
aI21855
aI21857
aI21867
aI21874
aI21875
aI21885
aI21886
aI21887
aI21888
aI21890
aI21896
aI21897
aI21898
aI21899
aI21903
aI21907
aI21915
aI21919
aI21924
aI21926
aI21927
aI21930
aI21934
aI21957
aI21961
aI21968
aI21970
aI21972
aI21985
aI21986
aI21988
aI22007
aI22011
aI22012
aI22013
aI22020
aI22023
aI22028
aI22033
aI22038
aI22045
aI22046
aI22047
aI22048
aI22058
aI22060
aI22071
aI22073
aI22077
aI22078
aI22082
aI22085
aI22088
aI22089
aI22104
aI22126
aI22127
aI22129
aI22134
aI22137
aI22140
aI22144
aI22145
aI22147
aI22148
aI22153
aI22154
aI22155
aI22156
aI22157
aI22158
aI22159
aI22165
aI22167
aI22168
aI22171
aI22173
aI22176
aI22181
aI22183
aI22184
aI22186
aI22187
aI22190
aI22192
aI22194
aI22199
aI22201
aI22202
aI22203
aI22208
aI22209
aI22217
aI22219
aI22228
aI22235
aI22242
aI22243
aI22244
aI22247
aI22249
aI22253
aI22255
aI22262
aI22269
aI22270
aI22271
aI22276
aI22292
aI22295
aI22296
aI22297
aI22303
aI22304
aI22308
aI22309
aI22315
aI22317
aI22318
aI22319
aI22330
aI22331
aI22332
aI22334
aI22335
aI22336
aI22337
aI22338
aI22352
aI22358
aI22361
aI22364
aI22373
aI22374
aI22375
aI22384
aI22389
aI22390
aI22400
aI22401
aI22409
aI22419
aI22427
aI22434
aI22436
aI22443
aI22445
aI22446
aI22455
aI22456
aI22458
aI22461
aI22463
aI22470
aI22491
aI22492
aI22495
aI22497
aI22499
aI22500
aI22502
aI22504
aI22509
aI22512
aI22520
aI22534
aI22540
aI22548
aI22549
aI22555
aI22556
aI22565
aI22568
aI22569
aI22570
aI22571
aI22572
aI22573
aI22575
aI22576
aI22580
aI22584
aI22588
aI22591
aI22604
aI22619
aI22628
aI22630
aI22637
aI22642
aI22645
aI22648
aI22663
aI22665
aI22666
aI22672
aI22673
aI22678
aI22683
aI22684
aI22698
aI22699
aI22701
aI22703
aI22716
aI22717
aI22719
aI22723
aI22739
aI22745
aI22747
aI22753
aI22765
aI22773
aI22775
aI22791
aI22816
aI22828
aI22839
aI22842
aI22853
aI22854
aI22856
aI22859
aI22867
aI22873
aI22874
aI22878
aI22879
aI22884
aI22898
aI22915
aI22923
aI22924
aI22925
aI22926
aI22931
aI22932
aI22938
aI22948
aI22950
aI22951
aI22960
aI22965
aI22967
aI22968
aI22971
aI22990
aI22992
aI22995
aI22996
aI23003
aI23004
aI23010
aI23011
aI23013
aI23016
aI23030
aI23031
aI23033
aI23034
aI23043
aI23046
aI23047
aI23048
aI23051
aI23053
aI23054
aI23055
aI23056
aI23060
aI23063
aI23064
aI23068
aI23069
aI23072
aI23079
aI23081
aI23082
aI23090
aI23093
aI23100
aI23103
aI23112
aI23113
aI23124
aI23139
aI23141
aI23142
aI23147
aI23162
aI23163
aI23169
aI23179
aI23180
aI23181
aI23182
aI23184
aI23185
aI23189
aI23200
aI23202
aI23204
aI23212
aI23216
aI23217
aI23220
aI23221
aI23226
aI23228
aI23230
aI23239
aI23240
aI23248
aI23249
aI23250
aI23255
aI23261
aI23262
aI23272
aI23279
aI23280
aI23286
aI23292
aI23297
aI23303
aI23304
aI23306
aI23307
aI23308
aI23312
aI23313
aI23320
aI23323
aI23324
aI23330
aI23331
aI23332
aI23334
aI23335
aI23336
aI23341
aI23349
aI23351
aI23363
aI23370
aI23372
aI23374
aI23375
aI23378
aI23380
aI23382
aI23383
aI23386
aI23389
aI23393
aI23400
aI23401
aI23405
aI23407
aI23413
aI23417
aI23421
aI23428
aI23429
aI23432
aI23433
aI23447
aI23448
aI23458
aI23471
aI23472
aI23473
aI23495
aI23496
aI23498
aI23511
aI23514
aI23519
aI23521
aI23527
aI23528
aI23534
aI23548
aI23549
aI23551
aI23553
aI23570
aI23572
aI23574
aI23575
aI23576
aI23579
aI23581
aI23585
aI23612
aI23619
aI23622
aI23623
aI23626
aI23628
aI23629
aI23632
aI23637
aI23646
aI23651
aI23652
aI23658
aI23660
aI23661
aI23662
aI23677
aI23680
aI23681
aI23682
aI23683
aI23698
aI23701
aI23705
aI23707
aI23709
aI23717
aI23718
aI23719
aI23720
aI23723
aI23730
aI23731
aI23733
aI23734
aI23735
aI23739
aI23740
aI23747
aI23748
aI23754
aI23757
aI23759
aI23765
aI23774
aI23775
aI23784
aI23786
aI23789
aI23790
aI23791
aI23795
aI23796
aI23802
aI23805
aI23806
aI23812
aI23814
aI23815
aI23824
aI23825
aI23826
aI23833
aI23837
aI23840
aI23843
aI23846
aI23848
aI23850
aI23859
aI23860
aI23861
aI23865
aI23871
aI23881
aI23884
aI23887
aI23888
aI23901
aI23903
aI23910
aI23913
aI23914
aI23915
aI23920
aI23923
aI23926
aI23929
aI23930
aI23931
aI23940
aI23941
aI23949
aI23958
aI23960
aI23961
aI23974
aI23976
aI23986
aI23989
aI23997
aI24004
aI24009
aI24017
aI24018
aI24020
aI24021
aI24024
aI24036
aI24037
aI24042
aI24043
aI24061
aI24063
aI24068
aI24069
aI24076
aI24085
aI24088
aI24089
aI24098
aI24107
aI24109
aI24110
aI24114
aI24116
aI24118
aI24121
aI24124
aI24127
aI24131
aI24141
aI24144
aI24148
aI24159
aI24167
aI24175
aI24177
aI24183
aI24188
aI24192
aI24198
aI24201
aI24202
aI24213
aI24216
aI24219
aI24234
aI24237
aI24244
aI24245
aI24249
aI24250
aI24254
aI24256
aI24257
aI24258
aI24260
aI24262
aI24264
aI24265
aI24268
aI24271
aI24273
aI24276
aI24277
aI24283
aI24287
aI24293
aI24294
aI24295
aI24302
aI24304
aI24306
aI24315
aI24319
aI24320
aI24322
aI24324
aI24325
aI24327
aI24334
aI24348
aI24349
aI24351
aI24360
aI24364
aI24365
aI24370
aI24371
aI24373
aI24374
aI24377
aI24378
aI24379
aI24387
aI24388
aI24390
aI24393
aI24395
aI24398
aI24402
aI24403
aI24405
aI24406
aI24407
aI24408
aI24410
aI24413
aI24415
aI24416
aI24417
aI24422
aI24432
aI24436
aI24440
aI24443
aI24444
aI24474
aI24476
aI24485
aI24487
aI24491
aI24500
aI24501
aI24506
aI24507
aI24510
aI24514
aI24515
aI24516
aI24524
aI24526
aI24531
aI24535
aI24536
aI24542
aI24551
aI24553
aI24560
aI24562
aI24568
aI24570
aI24571
aI24572
aI24573
aI24574
aI24576
aI24577
aI24578
aI24580
aI24581
aI24583
aI24584
aI24585
aI24597
aI24604
aI24605
aI24606
aI24618
aI24629
aI24631
aI24632
aI24641
aI24644
aI24652
aI24653
aI24657
aI24658
aI24664
aI24665
aI24667
aI24672
aI24676
aI24680
aI24682
aI24683
aI24689
aI24690
aI24694
aI24695
aI24702
aI24703
aI24705
aI24712
aI24731
aI24733
aI24738
aI24740
aI24748
aI24753
aI24754
aI24755
aI24756
aI24757
aI24758
aI24759
aI24760
aI24768
aI24769
aI24772
aI24773
aI24780
aI24782
aI24783
aI24784
aI24785
aI24786
aI24787
aI24790
aI24791
aI24792
aI24794
aI24795
aI24800
aI24804
aI24810
aI24818
aI24822
aI24823
aI24824
aI24826
aI24830
aI24841
aI24866
aI24873
aI24877
aI24889
aI24902
aI24903
aI24909
aI24915
aI24916
aI24917
aI24921
aI24935
aI24943
aI24950
aI24963
aI24972
aI24980
aI24985
aI24987
aI24988
aI24990
aI24994
aI25006
aI25009
aI25015
aI25016
aI25027
aI25034
aI25037
aI25039
aI25045
aI25054
aI25056
aI25057
aI25058
aI25064
aI25065
aI25071
aI25082
aI25088
aI25089
aI25090
aI25091
aI25093
aI25100
aI25109
aI25111
aI25112
aI25117
aI25121
aI25122
aI25123
aI25131
aI25136
aI25137
aI25141
aI25142
aI25144
aI25152
aI25154
aI25155
aI25156
aI25157
aI25158
aI25159
aI25160
aI25162
aI25163
aI25165
aI25168
aI25173
aI25174
aI25176
aI25183
aI25184
aI25185
aI25208
aI25210
aI25215
aI25221
aI25226
aI25227
aI25228
aI25236
aI25237
aI25243
aI25246
aI25249
aI25258
aI25259
aI25268
aI25273
aI25275
aI25277
aI25278
aI25280
aI25281
aI25283
aI25288
aI25289
aI25294
aI25295
aI25296
aI25301
aI25302
aI25304
aI25307
aI25309
aI25310
aI25313
aI25318
aI25335
aI25343
aI25348
aI25351
aI25360
aI25361
aI25362
aI25363
aI25364
aI25365
aI25366
aI25373
aI25382
aI25383
aI25386
aI25392
aI25397
aI25400
aI25408
aI25411
aI25414
aI25420
aI25431
aI25438
aI25463
aI25464
aI25468
aI25473
aI25474
aI25480
aI25481
aI25491
aI25502
aI25503
aI25505
aI25518
aI25519
aI25520
aI25527
aI25534
aI25535
aI25536
aI25542
aI25550
aI25552
aI25554
aI25555
aI25556
aI25557
aI25558
aI25559
aI25565
aI25567
aI25571
aI25573
aI25574
aI25576
aI25583
aI25584
aI25593
aI25602
aI25631
aI25634
aI25635
aI25639
aI25640
aI25645
aI25646
aI25647
aI25648
aI25654
aI25656
aI25660
aI25661
aI25668
aI25679
aI25680
aI25696
aI25697
aI25701
aI25703
aI25709
aI25711
aI25713
aI25714
aI25718
aI25724
aI25730
aI25744
aI25745
aI25754
aI25758
aI25764
aI25772
aI25773
aI25775
aI25788
aI25789
aI25790
aI25792
aI25793
aI25794
aI25796
aI25797
aI25801
aI25803
aI25807
aI25813
aI25826
aI25837
aI25838
aI25839
aI25842
aI25843
aI25846
aI25863
aI25885
aI25892
aI25893
aI25894
aI25898
aI25905
aI25911
aI25912
aI25917
aI25919
aI25923
aI25925
aI25936
aI25940
aI25945
aI25946
aI25947
aI25949
aI25962
aI25963
aI25964
aI25970
aI25971
aI25973
aI25979
aI25980
aI25982
aI25986
aI25987
aI25994
aI25998
aI26001
aI26009
aI26010
aI26014
aI26015
aI26019
aI26022
aI26023
aI26024
aI26025
aI26027
aI26028
aI26030
aI26035
aI26040
aI26044
aI26045
aI26047
aI26049
aI26051
aI26052
aI26055
aI26060
aI26066
aI26068
aI26069
aI26073
aI26074
aI26075
aI26077
aI26079
aI26086
aI26093
aI26097
aI26098
aI26099
aI26100
aI26101
aI26105
aI26107
aI26108
aI26110
aI26125
aI26133
aI26139
aI26144
aI26147
aI26151
aI26152
aI26154
aI26155
aI26161
aI26164
aI26167
aI26169
aI26171
aI26176
aI26177
aI26179
aI26182
aI26183
aI26184
aI26185
aI26197
aI26198
aI26200
aI26203
aI26205
aI26212
aI26213
aI26216
aI26219
aI26227
aI26229
aI26230
aI26240
aI26241
aI26247
aI26248
aI26249
aI26251
aI26252
aI26253
aI26254
aI26255
aI26258
aI26278
aI26282
aI26291
aI26292
aI26305
aI26306
aI26316
aI26320
aI26332
aI26335
aI26343
aI26349
aI26350
aI26356
aI26367
aI26369
aI26370
aI26376
aI26377
aI26388
aI26389
aI26390
aI26391
aI26396
aI26401
aI26412
aI26418
aI26430
aI26432
aI26436
aI26445
aI26447
aI26449
aI26463
aI26465
aI26477
aI26479
aI26482
aI26484
aI26485
aI26487
aI26490
aI26491
aI26492
aI26493
aI26494
aI26499
aI26503
aI26505
aI26509
aI26512
aI26521
aI26531
aI26545
aI26546
aI26550
aI26562
aI26568
aI26583
aI26589
aI26590
aI26591
aI26603
aI26613
aI26616
aI26617
aI26619
aI26621
aI26622
aI26629
aI26633
aI26634
aI26637
aI26641
aI26643
aI26649
aI26652
aI26694
aI26700
aI26701
aI26707
aI26720
aI26725
aI26737
aI26738
aI26750
aI26756
aI26757
aI26768
aI26769
aI26770
aI26777
aI26780
aI26792
aI26797
aI26798
aI26801
aI26802
aI26804
aI26807
aI26808
aI26810
aI26824
aI26826
aI26837
aI26838
aI26843
aI26852
aI26853
aI26858
aI26859
aI26864
aI26865
aI26866
aI26875
aI26876
aI26878
aI26883
aI26885
aI26891
aI26893
aI26896
aI26902
aI26908
aI26912
aI26917
aI26918
aI26928
aI26929
aI26930
aI26940
aI26941
aI26945
aI26946
aI26947
aI26956
aI26959
aI26963
aI26967
aI26972
aI26973
aI26974
aI26979
aI26980
aI26986
aI26988
aI26995
aI26997
aI26999
aI27000
aI27001
aI27002
aI27003
aI27004
aI27005
aI27013
aI27014
aI27029
aI27030
aI27031
aI27036
aI27038
aI27039
aI27040
aI27041
aI27045
aI27052
aI27053
aI27056
aI27057
aI27059
aI27061
aI27063
aI27064
aI27068
aI27069
aI27071
aI27077
aI27079
aI27086
aI27087
aI27091
aI27097
aI27098
aI27101
aI27102
aI27114
aI27115
aI27124
aI27125
aI27132
aI27133
aI27140
aI27141
aI27149
aI27158
aI27159
aI27171
aI27178
aI27181
aI27185
aI27193
aI27196
aI27215
aI27216
aI27217
aI27218
aI27219
aI27232
aI27238
aI27240
aI27241
aI27244
aI27245
aI27251
aI27252
aI27253
aI27255
aI27264
aI27272
aI27274
aI27285
aI27286
aI27290
aI27301
aI27305
aI27309
aI27312
aI27313
aI27314
aI27322
aI27343
aI27351
aI27353
aI27365
aI27373
aI27393
aI27394
aI27397
aI27406
aI27413
aI27414
aI27426
aI27430
aI27436
aI27437
aI27438
aI27444
aI27471
aI27473
aI27477
aI27496
aI27500
aI27505
aI27515
aI27516
aI27523
aI27524
aI27528
aI27531
aI27532
aI27534
aI27535
aI27540
aI27541
aI27542
aI27543
aI27554
aI27558
aI27560
aI27561
aI27563
aI27564
aI27565
aI27566
aI27569
aI27571
aI27572
aI27574
aI27576
aI27581
aI27584
aI27586
aI27591
aI27594
aI27597
aI27598
aI27611
aI27616
aI27617
aI27621
aI27623
aI27628
aI27631
aI27645
aI27648
aI27651
aI27652
aI27653
aI27654
aI27660
aI27662
aI27666
aI27667
aI27668
aI27670
aI27681
aI27684
aI27686
aI27689
aI27692
aI27694
aI27695
aI27702
aI27706
aI27709
aI27710
aI27711
aI27712
aI27713
aI27715
aI27716
aI27722
aI27723
aI27724
aI27726
aI27731
aI27734
aI27735
aI27736
aI27737
aI27739
aI27740
aI27744
aI27745
aI27747
aI27750
aI27756
aI27758
aI27760
aI27761
aI27762
aI27764
aI27770
aI27777
aI27778
aI27780
aI27781
aI27787
aI27788
aI27796
aI27797
aI27798
aI27799
aI27805
aI27807
aI27808
aI27809
aI27812
aI27813
aI27815
aI27823
aI27824
aI27827
aI27830
aI27834
aI27836
aI27837
aI27840
aI27841
aI27842
aI27843
aI27844
aI27845
aI27847
aI27848
aI27850
aI27851
aI27852
aI27854
aI27855
aI27861
aI27863
aI27866
aI27868
aI27882
aI27888
aI27890
aI27891
aI27893
aI27895
aI27901
aI27907
aI27908
aI27909
aI27910
aI27917
aI27920
aI27927
aI27932
aI27937
aI27947
aI27949
aI27950
aI27951
aI27952
aI27960
aI27962
aI27965
aI27968
aI27971
aI27983
aI27984
aI27993
aI27994
aI27996
aI27998
aI27999
aI28000
aI28025
aI28028
aI28029
aI28044
aI28047
aI28048
aI28058
aI28062
aI28065
aI28070
aI28074
aI28075
aI28076
aI28085
aI28087
aI28088
aI28094
aI28098
aI28099
aI28100
aI28101
aI28107
aI28112
aI28114
aI28122
aI28125
aI28126
aI28127
aI28131
aI28139
aI28154
aI28155
aI28156
aI28157
aI28163
aI28172
aI28173
aI28183
aI28186
aI28193
aI28195
aI28198
aI28199
aI28205
aI28206
aI28213
aI28214
aI28215
aI28219
aI28222
aI28228
aI28231
aI28234
aI28235
aI28236
aI28239
aI28240
aI28250
aI28255
aI28261
aI28270
aI28271
aI28275
aI28279
aI28285
aI28290
aI28293
aI28294
aI28317
aI28319
aI28320
aI28322
aI28323
aI28325
aI28334
aI28339
aI28340
aI28344
aI28356
aI28357
aI28362
aI28365
aI28392
aI28394
aI28398
aI28407
aI28411
aI28413
aI28441
aI28444
aI28445
aI28450
aI28454
aI28456
aI28457
aI28460
aI28463
aI28470
aI28471
aI28472
aI28479
aI28480
aI28482
aI28484
aI28485
aI28488
aI28489
aI28491
aI28494
aI28495
aI28503
aI28511
aI28512
aI28513
aI28515
aI28518
aI28523
aI28536
aI28541
aI28543
aI28547
aI28548
aI28549
aI28552
aI28557
aI28559
aI28561
aI28562
aI28577
aI28579
aI28580
aI28581
aI28584
aI28585
aI28589
aI28590
aI28605
aI28608
aI28611
aI28612
aI28615
aI28616
aI28617
aI28619
aI28620
aI28623
aI28624
aI28625
aI28626
aI28627
aI28632
aI28633
aI28637
aI28638
aI28641
aI28649
aI28655
aI28665
aI28669
aI28670
aI28673
aI28674
aI28676
aI28679
aI28683
aI28684
aI28688
aI28707
aI28708
aI28719
aI28720
aI28723
aI28724
aI28727
aI28728
aI28731
aI28733
aI28734
aI28735
aI28737
aI28752
aI28759
aI28760
aI28765
aI28767
aI28769
aI28770
aI28771
aI28773
aI28784
aI28786
aI28788
aI28795
aI28800
aI28802
aI28803
aI28804
aI28806
aI28807
aI28808
aI28819
aI28820
aI28836
aI28841
aI28843
aI28844
aI28856
aI28857
aI28865
aI28871
aI28873
aI28876
aI28877
aI28878
aI28886
aI28887
aI28891
aI28894
aI28897
aI28898
aI28899
aI28904
aI28907
aI28910
aI28916
aI28918
aI28925
aI28931
aI28933
aI28934
aI28938
aI28940
aI28941
aI28948
aI28949
aI28950
aI28966
aI28969
aI28976
aI28985
aI28988
aI28989
aI28993
aI29002
aI29003
aI29007
aI29008
aI29015
aI29017
aI29031
aI29040
aI29041
aI29044
aI29053
aI29054
aI29055
aI29070
aI29072
aI29076
aI29078
aI29080
aI29097
aI29099
aI29101
aI29103
aI29104
aI29105
aI29111
aI29115
aI29119
aI29126
aI29129
aI29130
aI29131
aI29133
aI29147
aI29154
aI29155
aI29166
aI29167
aI29168
aI29170
aI29173
aI29178
aI29183
aI29185
aI29187
aI29190
aI29196
aI29199
aI29204
aI29209
aI29212
aI29221
aI29226
aI29228
aI29234
aI29245
aI29247
aI29248
aI29256
aI29260
aI29264
aI29274
aI29279
aI29280
aI29286
aI29291
aI29295
aI29298
aI29312
aI29314
aI29319
aI29324
aI29329
aI29342
aI29345
aI29347
aI29348
aI29356
aI29362
aI29363
aI29370
aI29381
aI29387
aI29389
aI29394
aI29403
aI29406
aI29407
aI29408
aI29412
aI29415
aI29430
aI29439
aI29440
aI29446
aI29447
aI29457
aI29463
aI29464
aI29465
aI29470
aI29471
aI29478
aI29485
aI29486
aI29516
aI29517
aI29527
aI29528
aI29530
aI29539
aI29544
aI29547
aI29548
aI29551
aI29553
aI29557
aI29559
aI29561
aI29565
aI29567
aI29569
aI29572
aI29573
aI29578
aI29580
aI29590
aI29591
aI29593
aI29597
aI29604
aI29605
aI29611
aI29624
aI29625
aI29631
aI29632
aI29633
aI29636
aI29637
aI29638
aI29646
aI29647
aI29650
aI29656
aI29657
aI29661
aI29662
aI29663
aI29664
aI29666
aI29667
aI29668
aI29669
aI29670
aI29672
aI29673
aI29674
aI29678
aI29684
aI29690
aI29693
aI29694
aI29695
aI29696
aI29697
aI29700
aI29702
aI29703
aI29705
aI29706
aI29717
aI29721
aI29722
aI29733
aI29737
aI29738
aI29744
aI29745
aI29747
aI29752
aI29753
aI29759
aI29765
aI29766
aI29767
aI29775
aI29780
aI29785
aI29793
aI29795
aI29796
aI29802
aI29805
aI29806
aI29810
aI29811
aI29812
aI29822
aI29824
aI29826
aI29827
aI29828
aI29830
aI29831
aI29834
aI29837
aI29838
aI29843
aI29850
aI29859
aI29860
aI29861
aI29862
aI29864
aI29879
aI29890
aI29895
aI29900
aI29908
aI29911
aI29920
aI29934
aI29937
aI29943
aI29949
aI29951
aI29954
aI29955
aI29957
aI29962
aI29971
aI29972
aI29974
aI29975
aI29981
aI29982
aI29988
aI29992
aI30003
aI30007
aI30008
aI30012
aI30022
aI30024
aI30029
aI30036
aI30041
aI30043
aI30046
aI30048
aI30049
aI30050
aI30051
aI30055
aI30056
aI30071
aI30075
aI30076
aI30083
aI30093
aI30094
aI30100
aI30101
aI30102
aI30103
aI30107
aI30108
aI30114
aI30116
aI30120
aI30122
aI30129
aI30132
aI30134
aI30135
aI30137
aI30138
aI30139
aI30140
aI30146
aI30150
aI30151
aI30153
aI30157
aI30168
aI30172
aI30175
aI30179
aI30184
aI30185
aI30186
aI30187
aI30190
aI30193
aI30196
aI30211
aI30220
aI30230
aI30232
aI30233
aI30237
aI30242
aI30243
aI30244
aI30247
aI30250
aI30251
aI30252
aI30259
aI30260
aI30262
aI30267
aI30270
aI30277
aI30280
aI30286
aI30295
aI30297
aI30298
aI30299
aI30316
aI30319
aI30326
aI30333
aI30334
aI30336
aI30337
aI30339
aI30343
aI30344
aI30346
aI30348
aI30350
aI30354
aI30356
aI30358
aI30368
aI30370
aI30380
aI30381
aI30388
aI30394
aI30396
aI30407
aI30413
aI30414
aI30417
aI30418
aI30424
aI30430
aI30438
aI30445
aI30446
aI30449
aI30453
aI30455
aI30456
aI30457
aI30464
aI30466
aI30467
aI30477
aI30478
aI30484
aI30485
aI30486
aI30488
aI30489
aI30502
aI30503
aI30509
aI30514
aI30515
aI30522
aI30524
aI30526
aI30527
aI30532
aI30534
aI30541
aI30543
aI30544
aI30546
aI30547
aI30551
aI30552
aI30553
aI30555
aI30556
aI30564
aI30569
aI30576
aI30584
aI30589
aI30590
aI30594
aI30596
aI30599
aI30600
aI30602
aI30604
aI30612
aI30613
aI30622
aI30623
aI30625
aI30637
aI30640
aI30653
aI30657
aI30666
aI30668
aI30669
aI30678
aI30680
aI30681
aI30687
aI30688
aI30695
aI30696
aI30697
aI30707
aI30717
aI30721
aI30722
aI30734
aI30735
aI30736
aI30738
aI30742
aI30748
aI30751
aI30765
aI30779
aI30780
aI30781
aI30783
aI30784
aI30787
aI30788
aI30791
aI30793
aI30796
aI30799
aI30813
aI30815
aI30816
aI30817
aI30818
aI30819
aI30823
aI30828
aI30848
aI30858
aI30864
aI30866
aI30874
aI30876
aI30878
aI30887
aI30888
aI30890
aI30891
aI30893
aI30907
aI30911
aI30915
aI30919
aI30921
aI30925
aI30930
aI30932
aI30941
aI30943
aI30944
aI30947
aI30949
aI30955
aI30956
aI30957
aI30971
aI30980
aI30984
aI30985
aI30986
aI30987
aI30992
aI31003
aI31005
aI31026
aI31029
aI31035
aI31038
aI31040
aI31042
aI31043
aI31044
aI31049
aI31051
aI31054
aI31055
aI31056
aI31065
aI31066
aI31069
aI31071
aI31073
aI31074
aI31075
aI31077
aI31080
aI31081
aI31094
aI31097
aI31099
aI31100
aI31103
aI31109
aI31111
aI31116
aI31119
aI31122
aI31127
aI31134
aI31142
aI31150
aI31151
aI31152
aI31153
aI31155
aI31156
aI31164
aI31173
aI31178
aI31180
aI31185
aI31186
aI31196
aI31198
aI31201
aI31202
aI31203
aI31207
aI31216
aI31223
aI31226
aI31227
aI31236
aI31237
aI31238
aI31239
aI31247
aI31257
aI31259
aI31260
aI31262
aI31263
aI31264
aI31265
aI31270
aI31272
aI31276
aI31281
aI31282
aI31289
aI31291
aI31292
aI31307
aI31311
aI31322
aI31323
aI31326
aI31330
aI31332
aI31334
aI31337
aI31339
aI31340
aI31341
aI31342
aI31350
aI31351
aI31354
aI31367
aI31369
aI31373
aI31376
aI31379
aI31381
aI31383
aI31386
aI31391
aI31395
aI31400
aI31401
aI31402
aI31404
aI31406
aI31407
aI31415
aI31416
aI31417
aI31418
aI31419
aI31423
aI31424
aI31438
aI31440
aI31442
aI31444
aI31447
aI31448
aI31453
aI31454
aI31455
aI31459
aI31460
aI31466
aI31470
aI31476
aI31480
aI31483
aI31484
aI31488
aI31489
aI31496
aI31497
aI31500
aI31502
aI31507
aI31509
aI31517
aI31518
aI31522
aI31527
aI31528
aI31529
aI31532
aI31537
aI31542
aI31544
aI31545
aI31546
aI31547
aI31551
aI31558
aI31559
aI31562
aI31571
aI31575
aI31576
aI31581
aI31583
aI31594
aI31595
aI31598
aI31601
aI31603
aI31604
aI31606
aI31608
aI31611
aI31612
aI31613
aI31618
aI31627
aI31634
aI31640
aI31645
aI31646
aI31647
aI31650
aI31655
aI31657
aI31658
aI31664
aI31665
aI31667
aI31670
aI31672
aI31676
aI31678
aI31679
aI31681
aI31684
aI31692
aI31693
aI31694
aI31695
aI31698
aI31705
aI31706
aI31707
aI31708
aI31709
aI31723
aI31726
aI31728
aI31735
aI31736
aI31737
aI31738
aI31743
aI31746
aI31748
aI31749
aI31750
aI31752
aI31766
aI31770
aI31773
aI31775
aI31776
aI31781
aI31782
aI31783
aI31791
aI31795
aI31798
aI31802
aI31805
aI31807
aI31809
aI31810
aI31811
aI31812
aI31813
aI31814
aI31818
aI31821
aI31822
aI31824
aI31825
aI31826
aI31828
aI31837
aI31838
aI31850
aI31851
aI31852
aI31859
aI31860
aI31862
aI31864
aI31865
aI31870
aI31872
aI31876
aI31878
aI31883
aI31884
aI31890
aI31893
aI31894
aI31897
aI31901
aI31905
aI31911
aI31914
aI31922
aI31929
aI31930
aI31931
aI31933
aI31935
aI31936
aI31937
aI31938
aI31940
aI31943
aI31950
aI31951
aI31952
aI31969
aI31976
aI31977
aI31978
aI31982
aI31986
aI31987
aI31989
aI31992
aI31993
aI31994
aI31995
aI31996
aI31998
aI31999
aI32003
aI32014
aI32020
aI32023
aI32025
aI32029
aI32031
aI32033
aI32034
aI32043
aI32053
aI32055
aI32056
aI32059
aI32064
aI32068
aI32070
aI32074
aI32081
aI32092
aI32093
aI32096
aI32097
aI32100
aI32103
aI32119
aI32122
aI32124
aI32127
aI32129
aI32141
aI32142
aI32146
aI32149
aI32154
aI32158
aI32159
aI32161
aI32164
aI32166
aI32167
aI32171
aI32172
aI32174
aI32181
aI32183
aI32197
aI32206
aI32209
aI32214
aI32222
aI32230
aI32231
aI32232
aI32236
aI32238
aI32247
aI32249
aI32250
aI32253
aI32257
aI32260
aI32261
aI32271
aI32274
aI32277
aI32279
aI32283
aI32285
aI32290
aI32291
aI32295
aI32298
aI32300
aI32311
aI32312
aI32315
aI32319
aI32332
aI32335
aI32341
aI32342
aI32343
aI32344
aI32345
aI32351
aI32352
aI32358
aI32359
aI32360
aI32361
aI32362
aI32363
aI32364
aI32366
aI32368
aI32372
aI32374
aI32383
aI32384
aI32385
aI32387
aI32393
aI32397
aI32407
aI32408
aI32410
aI32413
aI32414
aI32417
aI32418
aI32419
aI32424
aI32448
aI32449
aI32454
aI32460
aI32465
aI32468
aI32471
aI32472
aI32476
aI32481
aI32488
aI32500
aI32528
aI32532
aI32542
aI32548
aI32549
aI32552
aI32553
aI32555
aI32570
aI32586
aI32587
aI32588
aI32589
aI32598
aI32599
aI32604
aI32627
aI32628
aI32636
aI32639
aI32647
aI32648
aI32656
aI32660
aI32662
aI32665
aI32688
aI32692
aI32695
aI32697
aI32702
aI32714
aI32720
aI32743
aI32749
aI32750
aI32753
aI32754
aI32755
aI32756
aI32763
aa.