(lp1
(lp2
I24053
aI24688
aI24815
aI24816
aI24943
aI24944
aI25071
aI25199
aI25582
aI25966
aI26094
aI26095
aI26223
aI27261
aa(lp3
I24306
aI24560
aI24687
aI25072
aI25326
aI25327
aI25454
aI25455
aI25710
aI25838
aI25967
aI26222
aI27133
aI27134
aI27262
aI27389
aI27390
aI27518
aa(lp4
I24054
aI24307
aI24559
aI25198
aI25200
aI25583
aI25711
aI25839
aI27517
aI27775
aI27903
aI28031
aa(lp5
I23800
aI23801
aI23925
aI23926
aI24180
aI24434
aI25070
aI26353
aI26481
aI26482
aI26872
aI27902
aa(lp6
I23672
aI23673
aI24178
aI24305
aI24308
aI24435
aI24942
aI25328
aI25709
aI25837
aI25965
aI26093
aI26352
aI26354
aI26480
aI26611
aI26744
aI26745
aI26873
aI27132
aI27645
aI27646
aI27774
aI28159
aa(lp7
I23544
aI23927
aI24179
aI24181
aI24432
aI24433
aI24561
aI24689
aI24814
aI25456
aI25581
aI26224
aI26610
aI26612
aI26746
aI26874
aI27388
aI27516
aI27647
aI28030
aa(lp8
I7934
aI8314
aI8826
aI8955
aI8957
aI23292
aI23543
aI23545
aI23670
aI23671
aI23799
aI24052
aI24177
aI24431
aI24436
aI24558
aI24686
aI24817
aI25968
aI26096
aI26221
aI26479
aI26609
aI26613
aI27000
aI27001
aI27002
aI27003
aI27005
aI27006
aI27129
aI27131
aI27135
aI27260
aI27644
aI27773
aI27901
aI28158
aI28287
aa(lp9
I692
aI2238
aI2774
aI3015
aI4250
aI4943
aI5319
aI5525
aI7679
aI7806
aI7807
aI7933
aI7935
aI8062
aI8187
aI8188
aI8315
aI8316
aI8442
aI8444
aI8570
aI8572
aI8697
aI8827
aI8829
aI8954
aI8956
aI8958
aI9083
aI9084
aI9085
aI9086
aI9087
aI9213
aI9214
aI10149
aI10887
aI12068
aI13069
aI13361
aI13752
aI14236
aI14257
aI14381
aI14864
aI15987
aI16417
aI16434
aI16481
aI16498
aI16584
aI16610
aI16626
aI16692
aI16694
aI16696
aI16738
aI16901
aI16982
aI17233
aI17257
aI17289
aI17641
aI17911
aI18077
aI18183
aI18255
aI18374
aI18534
aI18625
aI18637
aI18638
aI18766
aI18920
aI19007
aI19048
aI19395
aI19447
aI19581
aI19668
aI19689
aI20051
aI20073
aI20182
aI20184
aI20190
aI20226
aI20270
aI20280
aI20308
aI20374
aI20378
aI20395
aI20504
aI20562
aI20654
aI20672
aI20683
aI20778
aI20787
aI20794
aI20845
aI20902
aI20904
aI20944
aI20986
aI21012
aI21037
aI21101
aI21107
aI21112
aI21153
aI21172
aI21187
aI21207
aI21229
aI21233
aI21238
aI21244
aI21271
aI21412
aI21440
aI21441
aI21495
aI21558
aI21619
aI21620
aI21623
aI21647
aI21745
aI21748
aI21751
aI21874
aI21878
aI21885
aI21904
aI21923
aI21962
aI21963
aI21982
aI22000
aI22027
aI22094
aI22130
aI22131
aI22140
aI22211
aI22259
aI22260
aI22268
aI22280
aI22302
aI22390
aI22430
aI22520
aI22524
aI22594
aI22599
aI22641
aI22646
aI22727
aI22760
aI22769
aI22776
aI22866
aI22871
aI22888
aI22890
aI22896
aI22897
aI22898
aI22901
aI22905
aI22983
aI23026
aI23039
aI23160
aI23166
aI23179
aI23270
aI23273
aI23289
aI23291
aI23293
aI23387
aI23401
aI23402
aI23403
aI23415
aI23417
aI23418
aI23419
aI23420
aI23433
aI23531
aI23546
aI23649
aI23653
aI23654
aI23655
aI23668
aI23669
aI23774
aI23777
aI23780
aI23782
aI23783
aI23784
aI23796
aI23797
aI23798
aI23906
aI23916
aI23917
aI23922
aI23924
aI23976
aI23977
aI24027
aI24030
aI24031
aI24047
aI24051
aI24117
aI24159
aI24162
aI24174
aI24175
aI24176
aI24182
aI24199
aI24263
aI24302
aI24304
aI24409
aI24413
aI24414
aI24415
aI24417
aI24419
aI24420
aI24430
aI24500
aI24541
aI24546
aI24554
aI24555
aI24556
aI24670
aI24674
aI24678
aI24679
aI24684
aI24794
aI24813
aI24873
aI24930
aI24940
aI24941
aI24945
aI25054
aI25060
aI25067
aI25069
aI25144
aI25195
aI25197
aI25314
aI25316
aI25319
aI25322
aI25323
aI25324
aI25325
aI25363
aI25367
aI25401
aI25447
aI25448
aI25452
aI25453
aI25576
aI25577
aI25580
aI25584
aI25619
aI25677
aI25683
aI25708
aI25712
aI25783
aI25831
aI25832
aI25834
aI25836
aI25840
aI25949
aI25950
aI25962
aI25964
aI26038
aI26042
aI26043
aI26075
aI26090
aI26091
aI26177
aI26206
aI26207
aI26305
aI26333
aI26336
aI26350
aI26351
aI26415
aI26462
aI26477
aI26532
aI26539
aI26540
aI26595
aI26596
aI26606
aI26608
aI26665
aI26669
aI26671
aI26727
aI26734
aI26739
aI26743
aI26780
aI26793
aI26850
aI26855
aI26862
aI26871
aI26992
aI26995
aI26996
aI27004
aI27039
aI27044
aI27090
aI27107
aI27122
aI27124
aI27125
aI27127
aI27128
aI27217
aI27222
aI27253
aI27259
aI27263
aI27285
aI27340
aI27369
aI27380
aI27385
aI27391
aI27475
aI27487
aI27519
aI27531
aI27595
aI27621
aI27622
aI27623
aI27632
aI27633
aI27637
aI27639
aI27735
aI27736
aI27755
aI27766
aI27770
aI27772
aI27859
aI27863
aI27883
aI27887
aI27895
aI27896
aI27897
aI27900
aI27995
aI27996
aI27997
aI28009
aI28015
aI28017
aI28028
aI28029
aI28125
aI28135
aI28136
aI28137
aI28153
aI28154
aI28155
aI28156
aI28267
aI28268
aI28270
aI28272
aI28282
aI28283
aI28284
aI28286
aI28324
aI28385
aI28393
aI28399
aI28401
aI28403
aI28519
aI28532
aI28639
aI28640
aI28650
aI28722
aI28741
aI28766
aI28777
aI28779
aI28787
aI28788
aI28789
aI28793
aI28795
aI28797
aI28798
aI28827
aI28849
aI28850
aI28869
aI28891
aI28894
aI28895
aI28907
aI28915
aI28916
aI28917
aI28923
aI28925
aI28926
aI28938
aI28964
aI29028
aI29036
aI29037
aI29038
aI29041
aI29043
aI29044
aI29065
aI29083
aI29088
aI29111
aI29171
aI29173
aI29174
aI29175
aI29207
aI29299
aI29380
aI29463
aI29464
aI29471
aI29476
aI29482
aI29493
aI29508
aI29540
aI29549
aI29563
aI29590
aI29833
aI29867
aI29974
aI29982
aI29983
aI29986
aI30050
aI30070
aI30106
aI30115
aI30117
aI30121
aI30158
aI30204
aI30206
aI30216
aI30356
aI30373
aI30440
aI30448
aI30455
aI30573
aI30601
aI30632
aI30633
aI30697
aI30698
aI30699
aI30701
aI30713
aI30714
aI30762
aI30841
aI31158
aI31259
aI31341
aI31351
aI31469
aI32019
aI32266
aI32631
aI32703
aa.