(lp1
(lp2
I5551
aI5552
aI5553
aI6064
aI6065
aI6185
aI6186
aI6193
aI6425
aI6431
aI6558
aI6559
aI8353
aI8354
aI8483
aI8741
aI8869
aI8997
aI9125
aI9253
aI9381
aI9509
aI9637
aI9763
aI9764
aI9891
aI9892
aI10017
aI10018
aI10145
aI10270
aI21914
aI21919
aI22046
aI25757
aI27662
aa(lp3
I8741
aI10017
aa(lp4
a(lp5
a(lp6
a(lp7
a(lp8
a(lp9
a.