(lp1
(lp2
I26525
aI26653
aI26654
aI26782
aI27941
aI27942
aa(lp3
I22934
aI24078
aI24333
aI24334
aI24461
aI25229
aI25357
aI25358
aI26526
aI26655
aI26781
aI26783
aI26910
aI26911
aI27296
aa(lp4
I22933
aI23187
aI23314
aI23315
aI23696
aI23949
aI23950
aI24077
aI24205
aI24206
aI24462
aI24589
aI24590
aI24717
aI24718
aI24845
aI24846
aI25230
aI25485
aI25486
aI26527
aI26909
aI27039
aI27167
aI27168
aI27424
aI27425
aI27682
aI28069
aa(lp5
I22935
aI23061
aI23316
aI23568
aI23569
aI23697
aI23951
aI24079
aI24844
aI24972
aI24973
aI24974
aI25101
aI25102
aI25487
aI27038
aI27295
aI27297
aI27554
aI28070
aa(lp6
I9141
aI9527
aI9655
aI9783
aI9911
aI9912
aI10039
aI10167
aI10295
aI10423
aI10550
aI10551
aI10678
aI10679
aI11313
aI22179
aI23062
aI23186
aI23188
aI24207
aI24332
aI24335
aI24460
aI24463
aI24588
aI24716
aI25100
aI25228
aI25744
aI25872
aI25873
aI26397
aI26524
aI26652
aI27169
aI27552
aI27553
aI27683
aI27811
aI27812
aI27940
aI28071
aa(lp7
I5447
aI5575
aI5703
aI5831
aI6086
aI6087
aI6215
aI6342
aI9140
aI9269
aI9526
aI9782
aI9784
aI9910
aI10040
aI10166
aI10168
aI10294
aI10422
aI10933
aI11060
aI11314
aI11441
aI11442
aI21924
aI21925
aI22051
aI22052
aI22306
aI22433
aI22434
aI22561
aI22562
aI22805
aI22806
aI22807
aI22808
aI22947
aI23063
aI23440
aI23442
aI23567
aI23695
aI23823
aI23824
aI24076
aI24204
aI24591
aI24719
aI25231
aI25356
aI25359
aI25484
aI25615
aI25745
aI26137
aI26265
aI26396
aI26398
aI26399
aI26780
aI26908
aI27037
aI27166
aI27426
aI27681
aI27684
aI27943
aI28068
aa(lp8
I5318
aI5319
aI5446
aI5574
aI5576
aI5702
aI5704
aI5830
aI5832
aI5958
aI5959
aI6088
aI6214
aI6303
aI6343
aI6430
aI6431
aI6471
aI6558
aI6580
aI6686
aI6687
aI6688
aI6816
aI6941
aI6944
aI7068
aI8218
aI8347
aI8476
aI8750
aI8751
aI8752
aI8878
aI8879
aI8880
aI8882
aI9013
aI9142
aI9268
aI9528
aI9654
aI9656
aI10038
aI10296
aI10424
aI10805
aI10807
aI10808
aI10932
aI11059
aI11061
aI11186
aI11439
aI11440
aI11565
aI11566
aI11692
aI11693
aI21923
aI22053
aI22178
aI22305
aI22553
aI22680
aI22681
aI22689
aI22690
aI22804
aI22817
aI22818
aI22932
aI22946
aI23060
aI23441
aI23443
aI23444
aI23694
aI23821
aI23822
aI23825
aI23948
aI24840
aI24847
aI24975
aI25103
aI25614
aI25616
aI25617
aI25871
aI26002
aI26003
aI26004
aI26135
aI26136
aI26138
aI26264
aI26266
aI26394
aI27036
aI27293
aI27294
aI27551
aI27555
aI27680
aI27810
aI27813
aa(lp9
I92
aI201
aI590
aI785
aI2419
aI2594
aI2661
aI2734
aI4594
aI4600
aI4768
aI4804
aI4805
aI4919
aI4930
aI4935
aI5051
aI5060
aI5061
aI5062
aI5063
aI5188
aI5189
aI5190
aI5191
aI5193
aI5317
aI5321
aI5322
aI5448
aI5449
aI5577
aI5578
aI5705
aI5833
aI5834
aI5960
aI5961
aI6035
aI6043
aI6044
aI6089
aI6171
aI6173
aI6174
aI6175
aI6213
aI6218
aI6299
aI6301
aI6302
aI6341
aI6346
aI6347
aI6429
aI6452
aI6453
aI6454
aI6460
aI6461
aI6466
aI6469
aI6470
aI6473
aI6559
aI6560
aI6581
aI6582
aI6587
aI6596
aI6597
aI6598
aI6706
aI6708
aI6713
aI6814
aI6815
aI6822
aI6824
aI6834
aI6835
aI6850
aI6853
aI6854
aI6897
aI6942
aI6943
aI6957
aI6959
aI6975
aI6976
aI7025
aI7069
aI7196
aI7197
aI7380
aI7450
aI7451
aI7577
aI7578
aI7579
aI7613
aI7704
aI7705
aI7721
aI7832
aI7833
aI7835
aI7851
aI7853
aI7862
aI7960
aI8014
aI8089
aI8180
aI8217
aI8219
aI8220
aI8346
aI8348
aI8349
aI8365
aI8474
aI8475
aI8477
aI8604
aI8608
aI8610
aI8612
aI8623
aI8624
aI8630
aI8742
aI8743
aI8744
aI8753
aI8754
aI8881
aI8883
aI9005
aI9009
aI9010
aI9011
aI9012
aI9014
aI9070
aI9270
aI9324
aI9397
aI9398
aI9401
aI9529
aI9577
aI9657
aI9658
aI9785
aI9788
aI9915
aI10041
aI10043
aI10105
aI10169
aI10297
aI10425
aI10552
aI10680
aI10806
aI10809
aI10820
aI10931
aI10935
aI10936
aI11063
aI11187
aI11188
aI11189
aI11199
aI11312
aI11315
aI11443
aI11564
aI11567
aI11568
aI11569
aI11570
aI11690
aI11691
aI11694
aI11695
aI11703
aI11714
aI11789
aI11790
aI11820
aI11956
aI12076
aI12081
aI12148
aI12202
aI12204
aI12276
aI12322
aI12585
aI12669
aI12713
aI12936
aI16396
aI16453
aI16469
aI16654
aI16740
aI16783
aI16785
aI16865
aI16970
aI17023
aI17048
aI17094
aI17099
aI17100
aI17295
aI17298
aI17300
aI17329
aI17331
aI17344
aI17379
aI17443
aI17459
aI17530
aI17635
aI17636
aI17646
aI17680
aI17681
aI17747
aI17754
aI17762
aI17809
aI17816
aI17818
aI17881
aI17895
aI17943
aI18024
aI18131
aI18161
aI18309
aI18526
aI18654
aI18700
aI18739
aI18828
aI18909
aI19070
aI19099
aI19170
aI19172
aI19225
aI19357
aI19373
aI19374
aI19457
aI19479
aI19493
aI19525
aI19562
aI19573
aI19608
aI19698
aI19700
aI19701
aI19836
aI19878
aI19879
aI20131
aI20143
aI20145
aI20198
aI20269
aI20484
aI20490
aI20516
aI20526
aI20534
aI20589
aI20612
aI20618
aI20619
aI20620
aI20645
aI20654
aI20661
aI20775
aI20776
aI20893
aI20923
aI21000
aI21010
aI21029
aI21031
aI21113
aI21169
aI21170
aI21293
aI21299
aI21309
aI21364
aI21375
aI21406
aI21407
aI21417
aI21420
aI21423
aI21426
aI21427
aI21428
aI21438
aI21534
aI21535
aI21541
aI21546
aI21547
aI21548
aI21660
aI21664
aI21668
aI21673
aI21674
aI21762
aI21763
aI21796
aI21797
aI21798
aI21801
aI21802
aI21803
aI21906
aI21916
aI21921
aI21922
aI22049
aI22177
aI22304
aI22409
aI22432
aI22552
aI22554
aI22654
aI22665
aI22676
aI22682
aI22802
aI22803
aI22809
aI22945
aI22948
aI23051
aI23052
aI23054
aI23055
aI23056
aI23057
aI23058
aI23059
aI23075
aI23076
aI23077
aI23185
aI23203
aI23312
aI23388
aI23436
aI23439
aI23506
aI23565
aI23566
aI23596
aI23680
aI23687
aI23689
aI23691
aI23693
aI23814
aI23819
aI23820
aI23910
aI23941
aI23947
aI24074
aI24183
aI24287
aI24439
aI24456
aI24457
aI24580
aI24712
aI24714
aI24834
aI24837
aI24841
aI24842
aI24954
aI24970
aI25099
aI25131
aI25217
aI25220
aI25224
aI25227
aI25259
aI25260
aI25341
aI25482
aI25610
aI25611
aI25612
aI25613
aI25739
aI25740
aI25743
aI25746
aI25805
aI25862
aI25864
aI25868
aI25869
aI25870
aI25874
aI25994
aI26001
aI26091
aI26129
aI26130
aI26133
aI26193
aI26212
aI26240
aI26243
aI26255
aI26263
aI26356
aI26381
aI26382
aI26383
aI26384
aI26388
aI26390
aI26393
aI26395
aI26515
aI26519
aI26522
aI26523
aI26608
aI26649
aI26651
aI26779
aI26874
aI26886
aI26891
aI26906
aI26998
aI27019
aI27040
aI27150
aI27163
aI27164
aI27165
aI27410
aI27411
aI27419
aI27420
aI27421
aI27422
aI27423
aI27475
aI27478
aI27514
aI27537
aI27539
aI27541
aI27546
aI27658
aI27660
aI27675
aI27678
aI27789
aI27808
aI27809
aI27814
aI27927
aI27939
aI27997
aI28305
aI28350
aI28365
aI28456
aI28675
aI28689
aI28802
aI28815
aI28817
aI28959
aI29278
aI29414
aI29424
aI29446
aI29573
aI29679
aI29701
aI29922
aI30064
aI30079
aI30086
aI30311
aI30436
aI30694
aI30947
aI30952
aI31338
aI31339
aI31424
aI31465
aI31590
aI31598
aI31612
aI31822
aI32040
aI32226
aI32331
aI32413
aI32547
aa.