(lp1
(lp2
I16075
aI16966
aI17144
aI18249
aI18395
aI18528
aI18623
aI18882
aI19040
aI19136
aI19358
aI19899
aI20027
aI22070
aI22686
aI23472
aI24726
aI25922
aI26608
aI26613
aI26803
aI26852
aI27450
aI28327
aI29650
aI30160
aI30406
aI30919
aI31256
aI31692
aa(lp3
a(lp4
a(lp5
a(lp6
a(lp7
a(lp8
a(lp9
a.